	.file "fmsynth.pas"
# Begin asmlist al_begin

.section .text.b_DEBUGSTART_$FMSYNTH,"x"
.globl	DEBUGSTART_$FMSYNTH
DEBUGSTART_$FMSYNTH:
# End asmlist al_begin
# Begin asmlist al_procedures

.section .text.n_fmsynth$_$tfmvoice_$__$$_create$$tfmvoice,"x"
	.balign 16,0x90
.globl	FMSYNTH$_$TFMVOICE_$__$$_CREATE$$TFMVOICE
FMSYNTH$_$TFMVOICE_$__$$_CREATE$$TFMVOICE:
.Lc1:
.seh_proc FMSYNTH$_$TFMVOICE_$__$$_CREATE$$TFMVOICE
.Ll1:
# [fmsynth.pas]
# [70] begin
	pushq	%rbp
.seh_pushreg %rbp
.Lc3:
.Lc4:
	movq	%rsp,%rbp
.Lc5:
	leaq	-64(%rsp),%rsp
.seh_stackalloc 64
.seh_endprologue
# Var $vmt located at rbp-8, size=OS_64
# Var $self located at rbp-16, size=OS_64
# Var i located at rbp-24, size=OS_S32
	movq	%rcx,-16(%rbp)
	movq	%rdx,-8(%rbp)
.Ll2:
	cmpq	$1,-8(%rbp)
	jne	.Lj6
	movq	-16(%rbp),%rax
	movq	-16(%rbp),%rdx
	movq	%rax,%rcx
	call	*104(%rdx)
	movq	%rax,-16(%rbp)
.Lj6:
	cmpq	$0,-16(%rbp)
	je	.Lj3
.Lj18:
.Ll3:
# [76] end;
	nop
.Lj17:
.Ll4:
# [71] for i:=0 to 7 do operators[i]:=TFmOperator.create(0,@outputs);
	movl	$0,-24(%rbp)
	subl	$1,-24(%rbp)
	.balign 8,0x90
.Lj22:
	addl	$1,-24(%rbp)
	movq	-16(%rbp),%rax
	leaq	72(%rax),%r9
	leaq	VMT_$FMSYNTH_$$_TFMOPERATOR(%rip),%rcx
	movl	$0,%r8d
	movq	$1,%rdx
	call	FMSYNTH$_$TFMOPERATOR_$__$$_CREATE$LONGINT$POINTER$$TFMOPERATOR
	movq	-16(%rbp),%rdx
	movl	-24(%rbp),%ecx
	movq	%rax,8(%rdx,%rcx,8)
	cmpl	$7,-24(%rbp)
	jl	.Lj22
.Ll5:
# [72] for i:=0 to 7 do operators[i].init;
	movl	$0,-24(%rbp)
	subl	$1,-24(%rbp)
	.balign 8,0x90
.Lj35:
	addl	$1,-24(%rbp)
	movq	-16(%rbp),%rax
	movl	-24(%rbp),%edx
	movq	8(%rax,%rdx,8),%rcx
	call	FMSYNTH$_$TFMOPERATOR_$__$$_INIT
	cmpl	$7,-24(%rbp)
	jl	.Lj35
.Ll6:
# [73] for i:=0 to 7 do operators[i].outputtable:=@outputs;
	movl	$0,-24(%rbp)
	subl	$1,-24(%rbp)
	.balign 8,0x90
.Lj40:
	addl	$1,-24(%rbp)
.Ll7:
	movq	-16(%rbp),%rdx
.Ll8:
	movl	-24(%rbp),%eax
	movq	8(%rdx,%rax,8),%rcx
	leaq	72(%rdx),%rax
	movq	%rax,288(%rcx)
	cmpl	$7,-24(%rbp)
	jl	.Lj40
.Ll9:
# [74] outmuls[0]:=1;
	movq	-16(%rbp),%rax
	movl	_$FMSYNTH$_Ld1(%rip),%edx
	movl	%edx,136(%rax)
.Ll10:
# [75] for i:=1 to 7 do outmuls[i]:=0;
	movl	$1,-24(%rbp)
	subl	$1,-24(%rbp)
	.balign 8,0x90
.Lj49:
	addl	$1,-24(%rbp)
	movq	-16(%rbp),%rax
	movl	-24(%rbp),%edx
	movl	_$FMSYNTH$_Ld2(%rip),%ecx
	movl	%ecx,136(%rax,%rdx,4)
	cmpl	$7,-24(%rbp)
	jl	.Lj49
.Ll11:
	cmpq	$0,-16(%rbp)
	je	.Lj15
	cmpq	$0,-8(%rbp)
	je	.Lj15
	movq	-16(%rbp),%rcx
	movq	-16(%rbp),%rax
	movq	(%rax),%rax
	call	*136(%rax)
	jmp	.Lj15
.Lj14:
	cmpq	$0,-8(%rbp)
	je	.Lj58
	movq	-16(%rbp),%rcx
	movq	$-1,%rdx
	movq	-16(%rbp),%rax
	movq	(%rax),%rax
	call	*96(%rax)
.Lj58:
	call	fpc_reraise
	call	FPC_DONEEXCEPTION
.Lj63:
	nop
.Lj15:
.Lj3:
	movq	-16(%rbp),%rax
	nop
	leaq	(%rbp),%rsp
	popq	%rbp
	ret
.seh_handler __FPC_specific_handler,@except,@unwind
.seh_handlerdata
	.long	1
	.long	1
	.rva	.Lj17
	.rva	.Lj14
	.rva	.Lj15

.section .text.n_fmsynth$_$tfmvoice_$__$$_create$$tfmvoice,"x"
.seh_endproc
.Lc2:
.Lt10:
.Ll12:

.section .text.n_fmsynth$_$tfmvoice_$__$$_getsample$$double,"x"
	.balign 16,0x90
.globl	FMSYNTH$_$TFMVOICE_$__$$_GETSAMPLE$$DOUBLE
FMSYNTH$_$TFMVOICE_$__$$_GETSAMPLE$$DOUBLE:
.Lc6:
.seh_proc FMSYNTH$_$TFMVOICE_$__$$_GETSAMPLE$$DOUBLE
.Ll13:
# [84] begin
	pushq	%rbx
.seh_pushreg %rbx
	pushq	%rsi
.seh_pushreg %rsi
	leaq	-40(%rsp),%rsp
.Lc8:
.seh_stackalloc 40
# Var $self located in register rbx
# Var $result located in register xmm0
# Var i located in register edx
# Var j located in register eax
# Var output located in register xmm0
.seh_endprologue
	movq	%rcx,%rbx
# Var i located in register esi
.Ll14:
# [85] for i:=0 to 7 do
	movl	$0,%esi
	subl	$1,%esi
	.balign 8,0x90
.Lj68:
	addl	$1,%esi
# PeepHole Optimization,var2a
.Ll15:
# [86] outputs[i]:=operators[i].getsample;
	movl	%esi,%eax
	movq	8(%rbx,%rax,8),%rcx
	call	FMSYNTH$_$TFMOPERATOR_$__$$_GETSAMPLE$$DOUBLE
# PeepHole Optimization,var2a
	movl	%esi,%eax
	movsd	%xmm0,72(%rbx,%rax,8)
.Ll16:
	cmpl	$7,%esi
	jl	.Lj68
# Var output located in register xmm0
.Ll17:
# [87] output:=0;
	movsd	_$FMSYNTH$_Ld3(%rip),%xmm0
# Var i located in register edx
.Ll18:
# [88] for i:=0 to 7 do output+=outmuls[i]*outputs[i];
	movl	$0,%edx
	subl	$1,%edx
	.balign 8,0x90
.Lj77:
	addl	$1,%edx
# PeepHole Optimization,var2a
	movl	%edx,%eax
	cvtss2sd	136(%rbx,%rax,4),%xmm1
# PeepHole Optimization,var2a
	movl	%edx,%eax
	mulsd	72(%rbx,%rax,8),%xmm1
	addsd	%xmm0,%xmm1
	movapd	%xmm1,%xmm0
	cmpl	$7,%edx
	jl	.Lj77
# Var $result located in register xmm0
# Var output located in register xmm0
.Ll19:
# [90] end;
	nop
	leaq	40(%rsp),%rsp
	popq	%rsi
	popq	%rbx
	ret
.seh_endproc
.Lc7:
.Lt11:
.Ll20:

.section .text.n_fmsynth_$$_initflogtable,"x"
	.balign 16,0x90
.globl	FMSYNTH_$$_INITFLOGTABLE
FMSYNTH_$$_INITFLOGTABLE:
.Lc9:
# Var i located in register edx
# Var q located in register xmm1
# Var q2 located in register xmm2
# [100] begin
# Var q located in register xmm1
.Ll21:
# [101] q:=1;
	movsd	_$FMSYNTH$_Ld4(%rip),%xmm1
# Var q2 located in register xmm2
.Ll22:
# [103] q2:= 0.99989460157410704627595119007091;
	movsd	_$FMSYNTH$_Ld5(%rip),%xmm2
# Var i located in register edx
.Ll23:
# [104] for i:=65540 downto 0 do
	movl	$65540,%edx
	addl	$1,%edx
	.balign 8,0x90
.Lj90:
	subl	$1,%edx
.Ll24:
# [106] if i>65535 then flogtable[i]:=1
	cmpl	$65535,%edx
	jng	.Lj92
# PeepHole Optimization,var2a
	movl	%edx,%eax
	movq	_$FMSYNTH$_Ld4(%rip),%r8
	leaq	U_$FMSYNTH_$$_FLOGTABLE(%rip),%rcx
	movq	%r8,(%rcx,%rax,8)
	jmp	.Lj95
.Lj92:
# PeepHole Optimization,var2a
.Ll25:
# [109] flogtable[i]:=q;
	movl	%edx,%eax
	leaq	U_$FMSYNTH_$$_FLOGTABLE(%rip),%rcx
	movsd	%xmm1,(%rcx,%rax,8)
.Ll26:
# [110] q:=q*q2;
	movapd	%xmm1,%xmm0
	mulsd	%xmm2,%xmm0
	movapd	%xmm0,%xmm1
.Lj95:
.Ll27:
	testl	%edx,%edx
	jg	.Lj90
.Ll28:
# [113] end;
	ret
.Lc10:
.Lt2:
.Ll29:

.section .text.n_fmsynth_$$_initfsinetable,"x"
	.balign 16,0x90
.globl	FMSYNTH_$$_INITFSINETABLE
FMSYNTH_$$_INITFSINETABLE:
.Lc11:
.seh_proc FMSYNTH_$$_INITFSINETABLE
.Ll30:
# [120] begin
	pushq	%rbx
.seh_pushreg %rbx
	leaq	-32(%rsp),%rsp
.Lc13:
.seh_stackalloc 32
# Var i located in register ebx
.seh_endprologue
# Var i located in register ebx
.Ll31:
# [121] for i:=0 to 65535 do fsinetable[i]:=sin(2*pi*i/65536);
	movl	$0,%ebx
	subl	$1,%ebx
	.balign 8,0x90
.Lj104:
	addl	$1,%ebx
	cvtsi2sd	%ebx,%xmm0
	mulsd	_$FMSYNTH$_Ld6(%rip),%xmm0
	mulsd	_$FMSYNTH$_Ld7(%rip),%xmm0
	call	fpc_sin_real
# PeepHole Optimization,var2a
	movl	%ebx,%eax
	leaq	U_$FMSYNTH_$$_FSINETABLE(%rip),%rdx
	movsd	%xmm0,(%rdx,%rax,8)
	cmpl	$65535,%ebx
	jl	.Lj104
.Ll32:
# [122] end;
	nop
	leaq	32(%rsp),%rsp
	popq	%rbx
	ret
.seh_endproc
.Lc12:
.Lt3:
.Ll33:

.section .text.n_fmsynth_$$_assign$longint$$tsinglestereosample,"x"
	.balign 16,0x90
.globl	FMSYNTH_$$_assign$LONGINT$$TSINGLESTEREOSAMPLE
FMSYNTH_$$_assign$LONGINT$$TSINGLESTEREOSAMPLE:
.Lc14:
# Var b located in register edx
# Var $result located in register rax
.Ll34:
# [126] begin
	movq	%rcx,%rax
.Ll35:
# [127] result[0]:=b;
	cvtsi2sd	%edx,%xmm0
	movsd	%xmm0,(%rax)
.Ll36:
# [128] result[1]:=b;
	cvtsi2sd	%edx,%xmm0
	movsd	%xmm0,8(%rax)
.Ll37:
# [129] end;
	ret
.Lc15:
.Lt4:
.Ll38:

.section .text.n_fmsynth_$$_star$tsinglestereosample$single$$tsinglestereosample,"x"
	.balign 16,0x90
.globl	FMSYNTH_$$_star$TSINGLESTEREOSAMPLE$SINGLE$$TSINGLESTEREOSAMPLE
FMSYNTH_$$_star$TSINGLESTEREOSAMPLE$SINGLE$$TSINGLESTEREOSAMPLE:
.Lc16:
# Temps allocated between rsp+8 and rsp+24
.seh_proc FMSYNTH_$$_star$TSINGLESTEREOSAMPLE$SINGLE$$TSINGLESTEREOSAMPLE
.Ll39:
# [133] begin
	leaq	-24(%rsp),%rsp
.Lc18:
.seh_stackalloc 24
# Var b located in register xmm0
# Var $result located in register rax
.seh_endprologue
# Var a located at rsp+0, size=OS_64
	movq	%rcx,%rax
	movq	%rdx,(%rsp)
	movaps	%xmm2,%xmm0
	movq	(%rsp),%rcx
	movq	(%rcx),%rdx
	movq	%rdx,8(%rsp)
	movq	8(%rcx),%rdx
	movq	%rdx,16(%rsp)
.Ll40:
# [134] result[0]:=a[0]*b;
	cvtss2sd	%xmm0,%xmm1
	mulsd	8(%rsp),%xmm1
	movsd	%xmm1,(%rax)
.Ll41:
# [135] result[1]:=a[1]*b;
	cvtss2sd	%xmm0,%xmm0
	mulsd	16(%rsp),%xmm0
	movsd	%xmm0,8(%rax)
.Ll42:
# [136] end;
	leaq	24(%rsp),%rsp
	ret
.seh_endproc
.Lc17:
.Lt5:
.Ll43:

.section .text.n_fmsynth$_$tfmoperator_$__$$_create$longint$pointer$$tfmoperator,"x"
	.balign 16,0x90
.globl	FMSYNTH$_$TFMOPERATOR_$__$$_CREATE$LONGINT$POINTER$$TFMOPERATOR
FMSYNTH$_$TFMOPERATOR_$__$$_CREATE$LONGINT$POINTER$$TFMOPERATOR:
.Lc19:
.seh_proc FMSYNTH$_$TFMOPERATOR_$__$$_CREATE$LONGINT$POINTER$$TFMOPERATOR
.Ll44:
# [143] begin
	pushq	%rbp
.seh_pushreg %rbp
.Lc21:
.Lc22:
	movq	%rsp,%rbp
.Lc23:
	leaq	-80(%rsp),%rsp
.seh_stackalloc 80
.seh_endprologue
# Var mode located at rbp-8, size=OS_S32
# Var outs located at rbp-16, size=OS_64
# Var $vmt located at rbp-24, size=OS_64
# Var $self located at rbp-32, size=OS_64
# Var q located at rbp-40, size=OS_F64
# Var i located at rbp-48, size=OS_S32
	movq	%rcx,-32(%rbp)
	movq	%rdx,-24(%rbp)
	movl	%r8d,-8(%rbp)
	movq	%r9,-16(%rbp)
.Ll45:
	cmpq	$1,-24(%rbp)
	jne	.Lj124
	movq	-32(%rbp),%rax
	movq	-32(%rbp),%rdx
	movq	%rax,%rcx
	call	*104(%rdx)
	movq	%rax,-32(%rbp)
.Lj124:
	cmpq	$0,-32(%rbp)
	je	.Lj121
.Lj136:
.Ll46:
# [156] end;
	nop
.Lj135:
.Ll47:
# [144] outputtable:=outs;
	movq	-32(%rbp),%rax
	movq	-16(%rbp),%rdx
	movq	%rdx,288(%rax)
.Ll48:
# [145] if mode=0 then wptr:=@fsinetable;
	cmpl	$0,-8(%rbp)
	jne	.Lj141
	movq	-32(%rbp),%rax
	leaq	U_$FMSYNTH_$$_FSINETABLE(%rip),%rdx
	movq	%rdx,136(%rax)
.Lj141:
.Ll49:
# [153] wlength:=65536;
	movq	-32(%rbp),%rdx
	movq	_$FMSYNTH$_Ld8(%rip),%rax
	movq	%rax,144(%rdx)
.Ll50:
	cmpq	$0,-32(%rbp)
	je	.Lj133
	cmpq	$0,-24(%rbp)
	je	.Lj133
	movq	-32(%rbp),%rcx
	movq	-32(%rbp),%rax
	movq	(%rax),%rax
	call	*136(%rax)
	jmp	.Lj133
.Lj132:
	cmpq	$0,-24(%rbp)
	je	.Lj152
	movq	-32(%rbp),%rcx
	movq	$-1,%rdx
	call	FMSYNTH$_$TFMOPERATOR_$__$$_DESTROY
.Lj152:
	call	fpc_reraise
	call	FPC_DONEEXCEPTION
.Lj157:
	nop
.Lj133:
.Lj121:
	movq	-32(%rbp),%rax
	nop
	leaq	(%rbp),%rsp
	popq	%rbp
	ret
.seh_handler __FPC_specific_handler,@except,@unwind
.seh_handlerdata
	.long	1
	.long	1
	.rva	.Lj135
	.rva	.Lj132
	.rva	.Lj133

.section .text.n_fmsynth$_$tfmoperator_$__$$_create$longint$pointer$$tfmoperator,"x"
.seh_endproc
.Lc20:
.Lt8:
.Ll51:

.section .text.n_fmsynth$_$tfmoperator_$__$$_destroy,"x"
	.balign 16,0x90
.globl	FMSYNTH$_$TFMOPERATOR_$__$$_DESTROY
FMSYNTH$_$TFMOPERATOR_$__$$_DESTROY:
.Lc24:
.seh_proc FMSYNTH$_$TFMOPERATOR_$__$$_DESTROY
.Ll52:
# [160] begin
	pushq	%rbx
.seh_pushreg %rbx
	pushq	%rsi
.seh_pushreg %rsi
	leaq	-40(%rsp),%rsp
.Lc26:
.seh_stackalloc 40
# Var $vmt located in register rsi
# Var $self located in register rbx
.seh_endprologue
	movq	%rcx,%rbx
	movq	%rdx,%rsi
.Ll53:
	cmpq	$0,%rsi
	jng	.Lj161
	movq	%rbx,%rcx
	movq	%rbx,%rax
	movq	(%rax),%rax
	call	*144(%rax)
.Lj161:
.Ll54:
# [161] freemem(wptr);
	movq	136(%rbx),%rcx
	call	SYSTEM_$$_FREEMEM$POINTER$$QWORD
.Ll55:
# [162] end;
	testq	%rbx,%rbx
	je	.Lj167
	testq	%rsi,%rsi
	je	.Lj167
	movq	%rbx,%rcx
	movq	%rbx,%rax
	movq	(%rax),%rax
	call	*112(%rax)
.Lj167:
	nop
	leaq	40(%rsp),%rsp
	popq	%rsi
	popq	%rbx
	ret
.seh_endproc
.Lc25:
.Lt9:
.Ll56:

.section .text.n_fmsynth$_$tfmoperator_$__$$_init,"x"
	.balign 16,0x90
.globl	FMSYNTH$_$TFMOPERATOR_$__$$_INIT
FMSYNTH$_$TFMOPERATOR_$__$$_INIT:
.Lc27:
# Var $self located in register rax
.Ll57:
# [166] begin
	movq	%rcx,%rax
.Ll58:
# [168] freq:=440*(65536/192000);    //341
	movq	_$FMSYNTH$_Ld9(%rip),%rdx
	movq	%rdx,8(%rax)
.Ll59:
# [169] c3:=1;
	movq	_$FMSYNTH$_Ld4(%rip),%rdx
	movq	%rdx,16(%rax)
.Ll60:
# [170] c4:=1;
	movq	_$FMSYNTH$_Ld4(%rip),%rdx
	movq	%rdx,24(%rax)
.Ll61:
# [171] c5:=1;
	movq	_$FMSYNTH$_Ld4(%rip),%rdx
	movq	%rdx,32(%rax)
.Ll62:
# [172] c6:=1;
	movq	_$FMSYNTH$_Ld4(%rip),%rdx
	movq	%rdx,40(%rax)
.Ll63:
# [173] lfo1:=1;
	movq	_$FMSYNTH$_Ld4(%rip),%rdx
	movq	%rdx,48(%rax)
.Ll64:
# [174] lfo2:=1;
	movq	_$FMSYNTH$_Ld4(%rip),%rdx
	movq	%rdx,56(%rax)
.Ll65:
# [175] lfo3:=1;
	movq	_$FMSYNTH$_Ld4(%rip),%rdx
	movq	%rdx,64(%rax)
.Ll66:
# [176] mul0:=0;
	movq	_$FMSYNTH$_Ld3(%rip),%rdx
	movq	%rdx,72(%rax)
.Ll67:
# [177] mul1:=0;
	movq	_$FMSYNTH$_Ld3(%rip),%rdx
	movq	%rdx,80(%rax)
.Ll68:
# [178] mul2:=0;
	movq	_$FMSYNTH$_Ld3(%rip),%rdx
	movq	%rdx,88(%rax)
.Ll69:
# [179] mul3:=0;
	movq	_$FMSYNTH$_Ld3(%rip),%rdx
	movq	%rdx,96(%rax)
.Ll70:
# [180] mul4:=0;
	movq	_$FMSYNTH$_Ld3(%rip),%rdx
	movq	%rdx,104(%rax)
.Ll71:
# [181] mul5:=0;
	movq	_$FMSYNTH$_Ld3(%rip),%rdx
	movq	%rdx,112(%rax)
.Ll72:
# [182] mul6:=0;
	movq	_$FMSYNTH$_Ld3(%rip),%rdx
	movq	%rdx,120(%rax)
.Ll73:
# [183] mul7:=0;
	movq	_$FMSYNTH$_Ld3(%rip),%rdx
	movq	%rdx,128(%rax)
.Ll74:
# [184] wlength:=65536;
	movq	_$FMSYNTH$_Ld8(%rip),%rdx
	movq	%rdx,144(%rax)
.Ll75:
# [185] adsrstate:=0;
	movl	$0,296(%rax)
.Ll76:
# [186] adsrval:=0;
	movq	_$FMSYNTH$_Ld3(%rip),%rdx
	movq	%rdx,168(%rax)
.Ll77:
# [187] ar1:=1/1920;
	movq	_$FMSYNTH$_Ld10(%rip),%rdx
	movq	%rdx,176(%rax)
.Ll78:
# [188] ar2:=-1/192000;
	movq	_$FMSYNTH$_Ld11(%rip),%rdx
	movq	%rdx,192(%rax)
.Ll79:
# [189] ar3:=-1/1920000;
	movq	_$FMSYNTH$_Ld12(%rip),%rdx
	movq	%rdx,208(%rax)
.Ll80:
# [190] ar4:=-1/1920000;
	movq	_$FMSYNTH$_Ld12(%rip),%rdx
	movq	%rdx,224(%rax)
.Ll81:
# [191] av1:=1;
	movq	_$FMSYNTH$_Ld4(%rip),%rdx
	movq	%rdx,184(%rax)
.Ll82:
# [192] av2:=0.95;
	movq	_$FMSYNTH$_Ld13(%rip),%rdx
	movq	%rdx,200(%rax)
.Ll83:
# [193] av3:=0.9;
	movq	_$FMSYNTH$_Ld14(%rip),%rdx
	movq	%rdx,216(%rax)
.Ll84:
# [194] av4:=0;
	movq	_$FMSYNTH$_Ld3(%rip),%rdx
	movq	%rdx,232(%rax)
.Ll85:
# [195] adsrbias:=0;
	movq	_$FMSYNTH$_Ld3(%rip),%rdx
	movq	%rdx,240(%rax)
.Ll86:
# [196] vel:=1;
	movq	_$FMSYNTH$_Ld4(%rip),%rdx
	movq	%rdx,248(%rax)
.Ll87:
# [197] keysense:=1;
	movq	_$FMSYNTH$_Ld4(%rip),%rdx
	movq	%rdx,256(%rax)
.Ll88:
# [198] expr:=1;
	movq	_$FMSYNTH$_Ld4(%rip),%rdx
	movq	%rdx,264(%rax)
.Ll89:
# [199] end;
	ret
.Lc28:
.Lt7:
.Ll90:

.section .text.n_fmsynth$_$tfmoperator_$__$$_getsample$$double,"x"
	.balign 16,0x90
.globl	FMSYNTH$_$TFMOPERATOR_$__$$_GETSAMPLE$$DOUBLE
FMSYNTH$_$TFMOPERATOR_$__$$_GETSAMPLE$$DOUBLE:
.Lc29:
# Var $self located in register rcx
# Var $result located in register xmm0
# Var res64a located in register xmm0
# Var modulator located in register xmm1
# Var i located in register eax
# Var j located in register eax
# Var sample located in register xmm0
# Var freq2 located in register xmm0
# [212] begin
.Ll91:
# [217] freq2:=(freq+(c3*lfo1))*c4*lfo2;
	movsd	16(%rcx),%xmm0
	mulsd	48(%rcx),%xmm0
	addsd	8(%rcx),%xmm0
	mulsd	24(%rcx),%xmm0
	mulsd	56(%rcx),%xmm0
# Var freq2 located in register xmm0
.Ll92:
	movq	288(%rcx),%rax
.Ll93:
# [222] modulator:=outputtable[0]*mul0
	movsd	(%rax),%xmm2
	mulsd	72(%rcx),%xmm2
.Ll94:
# [223] +outputtable[1]*mul1
	movsd	8(%rax),%xmm1
	mulsd	80(%rcx),%xmm1
	addsd	%xmm2,%xmm1
.Ll95:
# [224] +outputtable[2]*mul2
	movsd	16(%rax),%xmm2
	mulsd	88(%rcx),%xmm2
	addsd	%xmm1,%xmm2
.Ll96:
# [225] +outputtable[3]*mul3
	movsd	24(%rax),%xmm1
	mulsd	96(%rcx),%xmm1
	addsd	%xmm2,%xmm1
.Ll97:
# [226] +outputtable[4]*mul4
	movsd	32(%rax),%xmm2
	mulsd	104(%rcx),%xmm2
	addsd	%xmm1,%xmm2
.Ll98:
# [227] +outputtable[5]*mul5
	movsd	40(%rax),%xmm1
	mulsd	112(%rcx),%xmm1
	addsd	%xmm2,%xmm1
.Ll99:
# [228] +outputtable[6]*mul6
	movsd	48(%rax),%xmm2
	mulsd	120(%rcx),%xmm2
	addsd	%xmm1,%xmm2
.Ll100:
# [229] +outputtable[7]*mul7;
	movsd	56(%rax),%xmm1
	mulsd	128(%rcx),%xmm1
	addsd	%xmm2,%xmm1
# Var modulator located in register xmm1
.Ll101:
# [231] pa:=pa+freq2;
	movsd	272(%rcx),%xmm2
	addsd	%xmm0,%xmm2
	movsd	%xmm2,272(%rcx)
.Ll102:
# [240] if wavemode=0 then
	cmpl	$0,300(%rcx)
	jne	.Lj246
.Ll103:
# [242] if pa>=wlength then
	movsd	272(%rcx),%xmm0
	comisd	144(%rcx),%xmm0
	jp	.Lj248
	jnae	.Lj248
.Ll104:
# [243] pa:=pa-wlength;
	movsd	272(%rcx),%xmm0
	subsd	144(%rcx),%xmm0
	movsd	%xmm0,272(%rcx)
.Lj248:
.Ll105:
# [245] pa2:=pa+modulator;
	movsd	272(%rcx),%xmm0
	addsd	%xmm1,%xmm0
	movsd	%xmm0,280(%rcx)
.Ll106:
# [246] if pa2>=wlength then
	movsd	280(%rcx),%xmm0
	comisd	144(%rcx),%xmm0
	jp	.Lj255
	jnae	.Lj255
	.balign 8,0x90
.Lj257:
.Ll107:
# [247] repeat pa2:=pa2-wlength until pa2<wlength;
	movsd	280(%rcx),%xmm0
	subsd	144(%rcx),%xmm0
	movsd	%xmm0,280(%rcx)
	movsd	280(%rcx),%xmm0
	comisd	144(%rcx),%xmm0
	jp	.Lj257
	jnb	.Lj257
.Lj255:
.Ll108:
# [248] if pa2<0 then
	movsd	280(%rcx),%xmm0
	comisd	_$FMSYNTH$_Ld3(%rip),%xmm0
	jp	.Lj272
	jnb	.Lj272
	.balign 8,0x90
.Lj266:
.Ll109:
# [249] repeat pa2:=pa2+wlength until pa2>0;
	movsd	280(%rcx),%xmm0
	addsd	144(%rcx),%xmm0
	movsd	%xmm0,280(%rcx)
	movsd	280(%rcx),%xmm0
	comisd	_$FMSYNTH$_Ld3(%rip),%xmm0
	jp	.Lj266
	jna	.Lj266
	jmp	.Lj272
.Lj246:
.Ll110:
# [253] if adsrstate<5 then
	cmpl	$5,296(%rcx)
	jnl	.Lj274
.Ll111:
# [255] if pa>wlend-1 then repeat pa:=pa-wlend+wlstart until pa<=wlend;
	movsd	160(%rcx),%xmm0
	subsd	_$FMSYNTH$_Ld4(%rip),%xmm0
	comisd	272(%rcx),%xmm0
	jp	.Lj284
	jnb	.Lj284
	.balign 8,0x90
.Lj278:
	movsd	272(%rcx),%xmm0
	subsd	160(%rcx),%xmm0
	addsd	152(%rcx),%xmm0
	movsd	%xmm0,272(%rcx)
	movsd	272(%rcx),%xmm0
	comisd	160(%rcx),%xmm0
	jp	.Lj278
	jnbe	.Lj278
	jmp	.Lj284
.Lj274:
.Ll112:
# [259] if pa>=wlength then pa:=wlength;
	movsd	272(%rcx),%xmm0
	comisd	144(%rcx),%xmm0
	jp	.Lj286
	jnae	.Lj286
	movq	144(%rcx),%rax
	movq	%rax,272(%rcx)
.Lj286:
.Lj284:
.Ll113:
# [261] pa2:=pa+modulator;
	movsd	272(%rcx),%xmm0
	addsd	%xmm1,%xmm0
	movsd	%xmm0,280(%rcx)
.Ll114:
# [262] if pa2>wlend-1 then repeat pa:=pa-wlend+wlstart until pa<=wlend-1;
	movsd	160(%rcx),%xmm0
	subsd	_$FMSYNTH$_Ld4(%rip),%xmm0
	comisd	280(%rcx),%xmm0
	jp	.Lj293
	jnb	.Lj293
	.balign 8,0x90
.Lj295:
	movsd	272(%rcx),%xmm0
	subsd	160(%rcx),%xmm0
	addsd	152(%rcx),%xmm0
	movsd	%xmm0,272(%rcx)
	movsd	160(%rcx),%xmm0
	subsd	_$FMSYNTH$_Ld4(%rip),%xmm0
	comisd	272(%rcx),%xmm0
	jp	.Lj295
	jnae	.Lj295
.Lj293:
.Lj272:
.Ll115:
# [264] intpa:=trunc(pa2);
	movsd	280(%rcx),%xmm0
	cvttsd2siq	%xmm0,%rax
	movl	%eax,304(%rcx)
.Ll116:
# [265] sample:=wptr[intpa];
	movq	136(%rcx),%rdx
	movslq	304(%rcx),%rax
# Var sample located in register xmm1
	movsd	(%rdx,%rax,8),%xmm1
.Ll117:
# [272] if adsrstate=5 then  // release
	cmpl	$5,296(%rcx)
	jne	.Lj306
.Ll118:
# [274] adsrval:=adsrval+ar4;
	movsd	168(%rcx),%xmm0
	addsd	224(%rcx),%xmm0
	movsd	%xmm0,168(%rcx)
.Ll119:
# [275] if ar4<0 then begin if adsrval<av4 then begin adsrval:=av4; adsrstate:=0; end; end
	movsd	224(%rcx),%xmm0
	comisd	_$FMSYNTH$_Ld3(%rip),%xmm0
	jp	.Lj310
	jnb	.Lj310
	movsd	168(%rcx),%xmm0
	comisd	232(%rcx),%xmm0
	jp	.Lj327
	jnb	.Lj327
	movq	232(%rcx),%rax
	movq	%rax,168(%rcx)
	movl	$0,296(%rcx)
	jmp	.Lj327
.Lj310:
.Ll120:
# [276] else begin if adsrval>av4 then begin adsrval:=av4; adsrstate:=0; end; end;
	movsd	168(%rcx),%xmm0
	comisd	232(%rcx),%xmm0
	jp	.Lj327
	jna	.Lj327
	movq	232(%rcx),%rax
	movq	%rax,168(%rcx)
	movl	$0,296(%rcx)
	jmp	.Lj327
.Lj306:
.Ll121:
# [278] else if adsrstate=3 then  // release
	cmpl	$3,296(%rcx)
	jne	.Lj329
.Ll122:
# [280] adsrval:=adsrval+ar3;
	movsd	168(%rcx),%xmm0
	addsd	208(%rcx),%xmm0
	movsd	%xmm0,168(%rcx)
.Ll123:
# [281] if ar3<0 then begin if adsrval<av3 then begin adsrval:=av3; adsrstate:=4; end; end
	movsd	208(%rcx),%xmm0
	comisd	_$FMSYNTH$_Ld3(%rip),%xmm0
	jp	.Lj333
	jnb	.Lj333
	movsd	168(%rcx),%xmm0
	comisd	216(%rcx),%xmm0
	jp	.Lj350
	jnb	.Lj350
	movq	216(%rcx),%rax
	movq	%rax,168(%rcx)
	movl	$4,296(%rcx)
	jmp	.Lj350
.Lj333:
.Ll124:
# [282] else begin if adsrval>av3 then begin adsrval:=av3; adsrstate:=4; end; end;
	movsd	168(%rcx),%xmm0
	comisd	216(%rcx),%xmm0
	jp	.Lj350
	jna	.Lj350
	movq	216(%rcx),%rax
	movq	%rax,168(%rcx)
	movl	$4,296(%rcx)
	jmp	.Lj350
.Lj329:
.Ll125:
# [284] else if adsrstate=2 then  // release
	cmpl	$2,296(%rcx)
	jne	.Lj352
.Ll126:
# [286] adsrval:=adsrval+ar2;
	movsd	168(%rcx),%xmm0
	addsd	192(%rcx),%xmm0
	movsd	%xmm0,168(%rcx)
.Ll127:
# [287] if ar2<0 then begin if adsrval<av2 then begin adsrval:=av2; adsrstate:=3; end; end
	movsd	192(%rcx),%xmm0
	comisd	_$FMSYNTH$_Ld3(%rip),%xmm0
	jp	.Lj356
	jnb	.Lj356
	movsd	168(%rcx),%xmm0
	comisd	200(%rcx),%xmm0
	jp	.Lj373
	jnb	.Lj373
	movq	200(%rcx),%rax
	movq	%rax,168(%rcx)
	movl	$3,296(%rcx)
	jmp	.Lj373
.Lj356:
.Ll128:
# [288] else begin if adsrval>av2 then begin adsrval:=av2; adsrstate:=3; end; end;
	movsd	168(%rcx),%xmm0
	comisd	200(%rcx),%xmm0
	jp	.Lj373
	jna	.Lj373
	movq	200(%rcx),%rax
	movq	%rax,168(%rcx)
	movl	$3,296(%rcx)
	jmp	.Lj373
.Lj352:
.Ll129:
# [290] else if adsrstate=1 then  // release
	cmpl	$1,296(%rcx)
	jne	.Lj375
.Ll130:
# [292] adsrval:=adsrval+ar1;
	movsd	168(%rcx),%xmm0
	addsd	176(%rcx),%xmm0
	movsd	%xmm0,168(%rcx)
.Ll131:
# [293] if ar1<0 then begin if adsrval<av1 then begin adsrval:=av1; adsrstate:=2; end; end
	movsd	176(%rcx),%xmm0
	comisd	_$FMSYNTH$_Ld3(%rip),%xmm0
	jp	.Lj379
	jnb	.Lj379
	movsd	168(%rcx),%xmm0
	comisd	184(%rcx),%xmm0
	jp	.Lj388
	jnb	.Lj388
	movq	184(%rcx),%rax
	movq	%rax,168(%rcx)
	movl	$2,296(%rcx)
	jmp	.Lj388
.Lj379:
.Ll132:
# [294] else begin if adsrval>av1 then begin  adsrval:=av1; adsrstate:=2; end;  end;
	movsd	168(%rcx),%xmm0
	comisd	184(%rcx),%xmm0
	jp	.Lj390
	jna	.Lj390
	movq	184(%rcx),%rax
	movq	%rax,168(%rcx)
	movl	$2,296(%rcx)
.Lj390:
.Lj388:
.Lj375:
.Lj373:
.Lj350:
.Lj327:
.Ll133:
# [297] if adsrstate<>0 then sample:=sample*flogtable[round(65535*((1-adsrbias)*adsrval)+adsrbias)] else sample:=0;
	cmpl	$0,296(%rcx)
	je	.Lj397
.Ll134:
	movsd	240(%rcx),%xmm2
.Ll135:
	movsd	_$FMSYNTH$_Ld4(%rip),%xmm0
	subsd	%xmm2,%xmm0
	mulsd	168(%rcx),%xmm0
	mulsd	_$FMSYNTH$_Ld15(%rip),%xmm0
	addsd	%xmm2,%xmm0
	cvtsd2siq	%xmm0,%rdx
	movapd	%xmm1,%xmm0
	leaq	U_$FMSYNTH_$$_FLOGTABLE(%rip),%rax
	mulsd	(%rax,%rdx,8),%xmm0
	movapd	%xmm0,%xmm1
	jmp	.Lj402
.Lj397:
	movsd	_$FMSYNTH$_Ld3(%rip),%xmm1
.Lj402:
.Ll136:
# [299] sample:=sample*c5*lfo3;
	mulsd	32(%rcx),%xmm1
	mulsd	64(%rcx),%xmm1
# Var sample located in register xmm1
.Ll137:
	movsd	256(%rcx),%xmm2
.Ll138:
# [300] sample:=sample*(1-keysense+vel*keysense);
	movsd	_$FMSYNTH$_Ld4(%rip),%xmm3
	subsd	%xmm2,%xmm3
	movsd	248(%rcx),%xmm0
	mulsd	%xmm2,%xmm0
	addsd	%xmm3,%xmm0
	mulsd	%xmm1,%xmm0
# Var sample located in register xmm0
.Ll139:
# [301] sample:=sample*c6*expr;
	mulsd	40(%rcx),%xmm0
	mulsd	264(%rcx),%xmm0
# Var sample located in register xmm0
.Ll140:
# [302] if sample>1 then
	comisd	_$FMSYNTH$_Ld4(%rip),%xmm0
	jp	.Lj414
	jna	.Lj414
.Ll141:
# [303] sample:=1;
	movsd	_$FMSYNTH$_Ld4(%rip),%xmm0
.Lj414:
.Ll142:
# [304] if sample<-1 then
	comisd	_$FMSYNTH$_Ld16(%rip),%xmm0
	jp	.Lj419
	jnb	.Lj419
.Ll143:
# [305] sample:=-1;
	movsd	_$FMSYNTH$_Ld16(%rip),%xmm0
.Lj419:
# Var $result located in register xmm0
# Var sample located in register xmm0
.Ll144:
# [316] end;
	ret
.Lc30:
.Lt6:
.Ll145:

.section .text.n_fmsynth_$$_init$,"x"
	.balign 16,0x90
.globl	INIT$_$FMSYNTH
INIT$_$FMSYNTH:
.globl	FMSYNTH_$$_init$
FMSYNTH_$$_init$:
.Lc31:
.seh_proc FMSYNTH_$$_init$
.Ll146:
# [318] initialization
	leaq	-40(%rsp),%rsp
.Lc33:
.seh_stackalloc 40
.seh_endprologue
.Ll147:
# [320] initflogtable;
	call	FMSYNTH_$$_INITFLOGTABLE
.Ll148:
# [321] initfsinetable;
	call	FMSYNTH_$$_INITFSINETABLE
.Ll149:
# [323] end.
	nop
	leaq	40(%rsp),%rsp
	ret
.seh_endproc
.Lc32:
.Lt1:
.Ll150:
# End asmlist al_procedures
# Begin asmlist al_globals

.section .bss
	.balign 8
# [49] var flogtable:array[0..65540] of double;
	.globl U_$FMSYNTH_$$_FLOGTABLE
U_$FMSYNTH_$$_FLOGTABLE:
	.zero 524328

.section .bss
	.balign 8
# [50] foutputtable:array[0..8191] of double;
	.globl U_$FMSYNTH_$$_FOUTPUTTABLE
U_$FMSYNTH_$$_FOUTPUTTABLE:
	.zero 65536

.section .bss
	.balign 8
# [51] fnotes:array[0..127] of double;
	.globl U_$FMSYNTH_$$_FNOTES
U_$FMSYNTH_$$_FNOTES:
	.zero 1024

.section .bss
	.balign 8
# [52] fsinetable:array[0..65535] of double;
	.globl U_$FMSYNTH_$$_FSINETABLE
U_$FMSYNTH_$$_FSINETABLE:
	.zero 524288

.section .bss
	.balign 8
# [54] fmoperator:TFmOperator;
	.globl U_$FMSYNTH_$$_FMOPERATOR
U_$FMSYNTH_$$_FMOPERATOR:
	.zero 8

.section .data.n_VMT_$FMSYNTH_$$_TFMOPERATOR,"d"
	.balign 8
.globl	VMT_$FMSYNTH_$$_TFMOPERATOR
VMT_$FMSYNTH_$$_TFMOPERATOR:
	.quad	312,-312
	.quad	VMT_$SYSTEM_$$_TOBJECT
	.quad	.Ld17
	.quad	0,0,0
	.quad	RTTI_$FMSYNTH_$$_TFMOPERATOR
	.quad	0,0
	.quad	FPC_EMPTYINTF
	.quad	0
	.quad	SYSTEM$_$TOBJECT_$__$$_DESTROY
	.quad	SYSTEM$_$TOBJECT_$__$$_NEWINSTANCE$$TOBJECT
	.quad	SYSTEM$_$TOBJECT_$__$$_FREEINSTANCE
	.quad	SYSTEM$_$TOBJECT_$__$$_SAFECALLEXCEPTION$TOBJECT$POINTER$$HRESULT
	.quad	FPC_EMPTYMETHOD
	.quad	FPC_EMPTYMETHOD
	.quad	FPC_EMPTYMETHOD
	.quad	FPC_EMPTYMETHOD
	.quad	SYSTEM$_$TOBJECT_$__$$_DISPATCH$formal
	.quad	SYSTEM$_$TOBJECT_$__$$_DISPATCHSTR$formal
	.quad	SYSTEM$_$TOBJECT_$__$$_EQUALS$TOBJECT$$BOOLEAN
	.quad	SYSTEM$_$TOBJECT_$__$$_GETHASHCODE$$INT64
	.quad	SYSTEM$_$TOBJECT_$__$$_TOSTRING$$ANSISTRING
	.quad	0
# [325] 
	.balign 8
.Ld17:
	.byte	11
	.ascii	"TFmOperator"

.section .data.n_VMT_$FMSYNTH_$$_TFMVOICE,"d"
	.balign 8
.globl	VMT_$FMSYNTH_$$_TFMVOICE
VMT_$FMSYNTH_$$_TFMVOICE:
	.quad	168,-168
	.quad	VMT_$SYSTEM_$$_TOBJECT
	.quad	.Ld18
	.quad	0,0,0
	.quad	RTTI_$FMSYNTH_$$_TFMVOICE
	.quad	0,0
	.quad	FPC_EMPTYINTF
	.quad	0
	.quad	SYSTEM$_$TOBJECT_$__$$_DESTROY
	.quad	SYSTEM$_$TOBJECT_$__$$_NEWINSTANCE$$TOBJECT
	.quad	SYSTEM$_$TOBJECT_$__$$_FREEINSTANCE
	.quad	SYSTEM$_$TOBJECT_$__$$_SAFECALLEXCEPTION$TOBJECT$POINTER$$HRESULT
	.quad	FPC_EMPTYMETHOD
	.quad	FPC_EMPTYMETHOD
	.quad	FPC_EMPTYMETHOD
	.quad	FPC_EMPTYMETHOD
	.quad	SYSTEM$_$TOBJECT_$__$$_DISPATCH$formal
	.quad	SYSTEM$_$TOBJECT_$__$$_DISPATCHSTR$formal
	.quad	SYSTEM$_$TOBJECT_$__$$_EQUALS$TOBJECT$$BOOLEAN
	.quad	SYSTEM$_$TOBJECT_$__$$_GETHASHCODE$$INT64
	.quad	SYSTEM$_$TOBJECT_$__$$_TOSTRING$$ANSISTRING
	.quad	0
	.balign 8
.Ld18:
	.byte	8
	.ascii	"TFmVoice"
# End asmlist al_globals
# Begin asmlist al_typedconsts

.section .rodata.n__$FMSYNTH$_Ld1,"d"
	.balign 4
.globl	_$FMSYNTH$_Ld1
_$FMSYNTH$_Ld1:
# value: 0d+1.000000000E+00
	.byte	0,0,128,63

.section .rodata.n__$FMSYNTH$_Ld2,"d"
	.balign 4
.globl	_$FMSYNTH$_Ld2
_$FMSYNTH$_Ld2:
# value: 0d+0.000000000E+00
	.byte	0,0,0,0

.section .rodata.n__$FMSYNTH$_Ld3,"d"
	.balign 8
.globl	_$FMSYNTH$_Ld3
_$FMSYNTH$_Ld3:
# value: 0d+0.0000000000000000E+000
	.byte	0,0,0,0,0,0,0,0

.section .rodata.n__$FMSYNTH$_Ld4,"d"
	.balign 8
.globl	_$FMSYNTH$_Ld4
_$FMSYNTH$_Ld4:
# value: 0d+1.0000000000000000E+000
	.byte	0,0,0,0,0,0,240,63

.section .rodata.n__$FMSYNTH$_Ld5,"d"
	.balign 8
.globl	_$FMSYNTH$_Ld5
_$FMSYNTH$_Ld5:
# value: 0d+9.9989460157410703E-001
	.byte	206,165,166,246,34,255,239,63

.section .rodata.n__$FMSYNTH$_Ld6,"d"
	.balign 8
.globl	_$FMSYNTH$_Ld6
_$FMSYNTH$_Ld6:
# value: 0d+6.2831853071795862E+000
	.byte	24,45,68,84,251,33,25,64

.section .rodata.n__$FMSYNTH$_Ld7,"d"
	.balign 8
.globl	_$FMSYNTH$_Ld7
_$FMSYNTH$_Ld7:
# value: 0d+1.5258789062500000E-005
	.byte	0,0,0,0,0,0,240,62

.section .rodata.n__$FMSYNTH$_Ld8,"d"
	.balign 8
.globl	_$FMSYNTH$_Ld8
_$FMSYNTH$_Ld8:
# value: 0d+6.5536000000000000E+004
	.byte	0,0,0,0,0,0,240,64

.section .rodata.n__$FMSYNTH$_Ld9,"d"
	.balign 8
.globl	_$FMSYNTH$_Ld9
_$FMSYNTH$_Ld9:
# value: 0d+1.5018666666666667E+002
	.byte	198,146,95,44,249,197,98,64

.section .rodata.n__$FMSYNTH$_Ld10,"d"
	.balign 8
.globl	_$FMSYNTH$_Ld10
_$FMSYNTH$_Ld10:
# value: 0d+5.2083333333333333E-004
	.byte	17,17,17,17,17,17,65,63

.section .rodata.n__$FMSYNTH$_Ld11,"d"
	.balign 8
.globl	_$FMSYNTH$_Ld11
_$FMSYNTH$_Ld11:
# value: 0d-5.2083333333333332E-006
	.byte	165,226,236,195,103,216,213,190

.section .rodata.n__$FMSYNTH$_Ld12,"d"
	.balign 8
.globl	_$FMSYNTH$_Ld12
_$FMSYNTH$_Ld12:
# value: 0d-5.2083333333333336E-007
	.byte	30,130,189,156,236,121,161,190

.section .rodata.n__$FMSYNTH$_Ld13,"d"
	.balign 8
.globl	_$FMSYNTH$_Ld13
_$FMSYNTH$_Ld13:
# value: 0d+9.4999999999999996E-001
	.byte	102,102,102,102,102,102,238,63

.section .rodata.n__$FMSYNTH$_Ld14,"d"
	.balign 8
.globl	_$FMSYNTH$_Ld14
_$FMSYNTH$_Ld14:
# value: 0d+9.0000000000000002E-001
	.byte	205,204,204,204,204,204,236,63

.section .rodata.n__$FMSYNTH$_Ld15,"d"
	.balign 8
.globl	_$FMSYNTH$_Ld15
_$FMSYNTH$_Ld15:
# value: 0d+6.5535000000000000E+004
	.byte	0,0,0,0,224,255,239,64

.section .rodata.n__$FMSYNTH$_Ld16,"d"
	.balign 8
.globl	_$FMSYNTH$_Ld16
_$FMSYNTH$_Ld16:
# value: 0d-1.0000000000000000E+000
	.byte	0,0,0,0,0,0,240,191
# End asmlist al_typedconsts
# Begin asmlist al_rtti

.section .data.n_RTTI_$FMSYNTH_$$_PSINGLESAMPLE,"d"
	.balign 8
.globl	RTTI_$FMSYNTH_$$_PSINGLESAMPLE
RTTI_$FMSYNTH_$$_PSINGLESAMPLE:
	.byte	29,13
	.ascii	"PSinglesample"
	.quad	RTTI_$SYSTEM_$$_DOUBLE

.section .data.n_RTTI_$FMSYNTH_$$_PSINGLESTEREOSAMPLE,"d"
	.balign 8
.globl	RTTI_$FMSYNTH_$$_PSINGLESTEREOSAMPLE
RTTI_$FMSYNTH_$$_PSINGLESTEREOSAMPLE:
	.byte	29,19
	.ascii	"PSingleStereosample"
	.quad	RTTI_$SYSTEM_$$_DOUBLE

.section .data.n_RTTI_$FMSYNTH_$$_TSINGLESTEREOSAMPLE,"d"
	.balign 8
.globl	RTTI_$FMSYNTH_$$_TSINGLESTEREOSAMPLE
RTTI_$FMSYNTH_$$_TSINGLESTEREOSAMPLE:
	.byte	12
	.ascii	"\023TSingleStereoSample"
	.quad	16,2
	.quad	RTTI_$SYSTEM_$$_DOUBLE
	.byte	1
	.quad	RTTI_$SYSTEM_$$_SHORTINT

.section .data.n_INIT_$FMSYNTH_$$_TFMOPERATOR,"d"
	.balign 8
.globl	INIT_$FMSYNTH_$$_TFMOPERATOR
INIT_$FMSYNTH_$$_TFMOPERATOR:
	.byte	15,11
	.ascii	"TFmOperator"
	.long	8,0

.section .data.n_RTTI_$FMSYNTH_$$_TFMOPERATOR,"d"
	.balign 8
.globl	RTTI_$FMSYNTH_$$_TFMOPERATOR
RTTI_$FMSYNTH_$$_TFMOPERATOR:
	.byte	15,11
	.ascii	"TFmOperator"
	.quad	VMT_$FMSYNTH_$$_TFMOPERATOR
	.quad	RTTI_$SYSTEM_$$_TOBJECT
	.short	0
	.byte	7
	.ascii	"fmsynth"
	.short	0

.section .data.n_INIT_$FMSYNTH_$$_TFMVOICE,"d"
	.balign 8
.globl	INIT_$FMSYNTH_$$_TFMVOICE
INIT_$FMSYNTH_$$_TFMVOICE:
	.byte	15,8
	.ascii	"TFmVoice"
	.long	8,0

.section .data.n_RTTI_$FMSYNTH_$$_TFMVOICE,"d"
	.balign 8
.globl	RTTI_$FMSYNTH_$$_TFMVOICE
RTTI_$FMSYNTH_$$_TFMVOICE:
	.byte	15,8
	.ascii	"TFmVoice"
	.quad	VMT_$FMSYNTH_$$_TFMVOICE
	.quad	RTTI_$SYSTEM_$$_TOBJECT
	.short	0
	.byte	7
	.ascii	"fmsynth"
	.short	0
# End asmlist al_rtti
# Begin asmlist al_dwarf_frame

.section .debug_frame
.Lc34:
	.long	.Lc36-.Lc35
.Lc35:
	.long	-1
	.byte	1
	.byte	0
	.uleb128	1
	.sleb128	-4
	.byte	16
	.byte	12
	.uleb128	7
	.uleb128	8
	.byte	5
	.uleb128	16
	.uleb128	2
	.balign 4,0
.Lc36:
	.long	.Lc38-.Lc37
.Lc37:
	.secrel32	.Lc34
	.quad	.Lc1
	.quad	.Lc2-.Lc1
	.byte	4
	.long	.Lc3-.Lc1
	.byte	14
	.uleb128	16
	.byte	4
	.long	.Lc4-.Lc3
	.byte	5
	.uleb128	6
	.uleb128	4
	.byte	4
	.long	.Lc5-.Lc4
	.byte	13
	.uleb128	6
	.balign 4,0
.Lc38:
	.long	.Lc40-.Lc39
.Lc39:
	.secrel32	.Lc34
	.quad	.Lc6
	.quad	.Lc7-.Lc6
	.byte	4
	.long	.Lc8-.Lc6
	.byte	14
	.uleb128	48
	.balign 4,0
.Lc40:
	.long	.Lc42-.Lc41
.Lc41:
	.secrel32	.Lc34
	.quad	.Lc9
	.quad	.Lc10-.Lc9
	.balign 4,0
.Lc42:
	.long	.Lc44-.Lc43
.Lc43:
	.secrel32	.Lc34
	.quad	.Lc11
	.quad	.Lc12-.Lc11
	.byte	4
	.long	.Lc13-.Lc11
	.byte	14
	.uleb128	40
	.balign 4,0
.Lc44:
	.long	.Lc46-.Lc45
.Lc45:
	.secrel32	.Lc34
	.quad	.Lc14
	.quad	.Lc15-.Lc14
	.balign 4,0
.Lc46:
	.long	.Lc48-.Lc47
.Lc47:
	.secrel32	.Lc34
	.quad	.Lc16
	.quad	.Lc17-.Lc16
	.byte	4
	.long	.Lc18-.Lc16
	.byte	14
	.uleb128	32
	.balign 4,0
.Lc48:
	.long	.Lc50-.Lc49
.Lc49:
	.secrel32	.Lc34
	.quad	.Lc19
	.quad	.Lc20-.Lc19
	.byte	4
	.long	.Lc21-.Lc19
	.byte	14
	.uleb128	16
	.byte	4
	.long	.Lc22-.Lc21
	.byte	5
	.uleb128	6
	.uleb128	4
	.byte	4
	.long	.Lc23-.Lc22
	.byte	13
	.uleb128	6
	.balign 4,0
.Lc50:
	.long	.Lc52-.Lc51
.Lc51:
	.secrel32	.Lc34
	.quad	.Lc24
	.quad	.Lc25-.Lc24
	.byte	4
	.long	.Lc26-.Lc24
	.byte	14
	.uleb128	48
	.balign 4,0
.Lc52:
	.long	.Lc54-.Lc53
.Lc53:
	.secrel32	.Lc34
	.quad	.Lc27
	.quad	.Lc28-.Lc27
	.balign 4,0
.Lc54:
	.long	.Lc56-.Lc55
.Lc55:
	.secrel32	.Lc34
	.quad	.Lc29
	.quad	.Lc30-.Lc29
	.balign 4,0
.Lc56:
	.long	.Lc58-.Lc57
.Lc57:
	.secrel32	.Lc34
	.quad	.Lc31
	.quad	.Lc32-.Lc31
	.byte	4
	.long	.Lc33-.Lc31
	.byte	14
	.uleb128	48
	.balign 4,0
.Lc58:
# End asmlist al_dwarf_frame
# Begin asmlist al_dwarf_info

.section .text.z_DEBUGEND_$FMSYNTH,"x"
.globl	DEBUGEND_$FMSYNTH
DEBUGEND_$FMSYNTH:
# End asmlist al_end

