	.file "midi.pas"
# Begin asmlist al_begin

.section .text.b_DEBUGSTART_$MIDI,"x"
.globl	DEBUGSTART_$MIDI
DEBUGSTART_$MIDI:
# End asmlist al_begin
# Begin asmlist al_procedures

.section .text.n_midi_$$_readbuffer$$longword,"x"
	.balign 16,0x90
.globl	MIDI_$$_READBUFFER$$LONGWORD
MIDI_$$_READBUFFER$$LONGWORD:
.Lc1:
# Var $result located in register eax
# [midi.pas]
# [39] begin
.Ll1:
# [40] if be<>bs then
	movb	TC_$MIDI_$$_BE(%rip),%al
	cmpb	TC_$MIDI_$$_BS(%rip),%al
	je	.Lj6
.Ll2:
# [42] result:=buffer[bs];
	movzbl	TC_$MIDI_$$_BS(%rip),%eax
	leaq	U_$MIDI_$$_BUFFER(%rip),%rdx
	movl	(%rdx,%rax,4),%eax
.Ll3:
# [43] bs+=1
	movzbl	TC_$MIDI_$$_BS(%rip),%edx
.Ll4:
# [44] end
	leal	1(%edx),%edx
.Ll5:
	movb	%dl,TC_$MIDI_$$_BS(%rip)
	jmp	.Lj11
.Lj6:
.Ll6:
# [45] else result:=$FFFFFFFF;
	movl	$4294967295,%eax
.Lj11:
.Ll7:
# [46] end;
	ret
.Lc2:
.Lt1:
.Ll8:

.section .text.n_midi_$$_writebuffer$longint,"x"
	.balign 16,0x90
.globl	MIDI_$$_WRITEBUFFER$LONGINT
MIDI_$$_WRITEBUFFER$LONGINT:
.Lc3:
# Var a located in register eax
.Ll9:
# [50] begin
	movl	%ecx,%eax
.Ll10:
# [51] if be<>bs-1 then
	movzbl	TC_$MIDI_$$_BS(%rip),%edx
	leaq	-1(%rdx),%rcx
	movzbl	TC_$MIDI_$$_BE(%rip),%edx
	cmpq	%rdx,%rcx
	je	.Lj17
.Ll11:
# [53] buffer[be]:=a;
	movzbl	TC_$MIDI_$$_BE(%rip),%ecx
	leaq	U_$MIDI_$$_BUFFER(%rip),%rdx
	movl	%eax,(%rdx,%rcx,4)
.Ll12:
# [54] be+=1;
	movzbl	TC_$MIDI_$$_BE(%rip),%eax
	leal	1(%eax),%eax
	movb	%al,TC_$MIDI_$$_BE(%rip)
.Lj17:
.Ll13:
# [56] end;
	ret
.Lc4:
.Lt2:
.Ll14:

.section .text.n_midi_$$_midiincallback$lphmidiin$longint$longint$longint$longint,"x"
	.balign 16,0x90
.globl	MIDI_$$_MIDIINCALLBACK$LPHMIDIIN$LONGINT$LONGINT$LONGINT$LONGINT
MIDI_$$_MIDIINCALLBACK$LPHMIDIIN$LONGINT$LONGINT$LONGINT$LONGINT:
.Lc5:
.seh_proc MIDI_$$_MIDIINCALLBACK$LPHMIDIIN$LONGINT$LONGINT$LONGINT$LONGINT
.Ll15:
# [66] begin
	pushq	%rbp
.seh_pushreg %rbp
.Lc7:
.Lc8:
	movq	%rsp,%rbp
.Lc9:
	leaq	-32(%rsp),%rsp
.seh_stackalloc 32
# Var aMidiInHandle located in register rax
# Var aMsg located in register edx
# Var aInstance located in register r8d
# Var aMidiData located in register ecx
# Var aTimeStamp located in register eax
.seh_endprologue
	movq	%rcx,%rax
	movl	%r9d,%ecx
	movl	48(%rbp),%eax
# Var aMsg located in register edx
.Ll16:
# [68] callback:=integer(amsg);
	movl	%edx,U_$MIDI_$$_CALLBACK(%rip)
.Ll17:
# [69] case aMsg of
	cmpl	$963,%edx
	jl	.Lj27
	subl	$963,%edx
	je	.Lj28
	subl	$1,%edx
	je	.Lj26
	subl	$1,%edx
	je	.Lj26
	subl	$1,%edx
	je	.Lj26
	jmp	.Lj27
.Lj28:
.Ll18:
# [73] writebuffer(amididata);
	call	MIDI_$$_WRITEBUFFER$LONGINT
.Lj27:
.Lj26:
.Ll19:
# [92] end;
	nop
	leaq	(%rbp),%rsp
	popq	%rbp
	ret
.seh_endproc
.Lc6:
.Lt5:
.Ll20:

.section .text.n_midi$_$openmidi_$$_fin$11,"x"
	.balign 16,0x90
MIDI$_$OPENMIDI_$$_fin$11:
.Lc10:
.seh_proc MIDI$_$OPENMIDI_$$_fin$11
.Ll21:
# [102] begin
	pushq	%rbp
.seh_pushreg %rbp
.Lc12:
.Lc13:
	movq	%rcx,%rbp
.Lc14:
	leaq	-32(%rsp),%rsp
.seh_stackalloc 32
# Var $parentfp located in register rbp
.seh_endprologue
.Ll22:
	leaq	-88(%rbp),%rcx
	call	fpc_ansistr_decr_ref
	nop
	leaq	32(%rsp),%rsp
	popq	%rbp
	ret
.seh_endproc
.Lc11:
.Lt4:
.Ll23:

.section .text.n_midi_$$_openmidi,"x"
	.balign 16,0x90
.globl	MIDI_$$_OPENMIDI
MIDI_$$_OPENMIDI:
.Lc15:
# Temps allocated between rbp-96 and rbp-80
.seh_proc MIDI_$$_OPENMIDI
.Ll24:
	pushq	%rbp
.seh_pushreg %rbp
.Lc17:
.Lc18:
	movq	%rsp,%rbp
.Lc19:
	leaq	-144(%rsp),%rsp
.seh_stackalloc 144
	movq	%rbx,-96(%rbp)
.seh_savereg %rbx, 48
.seh_endprologue
# Var i located at rbp-8, size=OS_S32
# Var inputs located at rbp-16, size=OS_S32
# Var result located at rbp-24, size=OS_32
# Var caps located at rbp-72, size=OS_NO
# Var handle located at rbp-80, size=OS_64
.Ll25:
	movq	$0,-88(%rbp)
.Lj42:
	nop
.Lj38:
.Lj48:
.Ll26:
# [103] try
	nop
.Lj47:
.Ll27:
# [104] inputs:= MidiInGetNumDevs;
	call	_$dll$winmm$midiInGetNumDevs
	movl	%eax,-16(%rbp)
.Ll28:
	jmp	.Lj45
.Lj44:
.Ll29:
# [106] inputs:= 0;
	movl	$0,-16(%rbp)
.Ll30:
	call	FPC_DONEEXCEPTION
.Lj53:
	nop
.Lj45:
.Ll31:
# [109] if inputs>maxmidi then inputs:=maxmidi;
	cmpl	$16,-16(%rbp)
	jng	.Lj55
	movl	$16,-16(%rbp)
.Lj55:
.Ll32:
# [110] for i:=0 to maxmidi-1 do devicenames[i]:='';
	movl	$0,-8(%rbp)
	subl	$1,-8(%rbp)
	.balign 8,0x90
.Lj60:
	addl	$1,-8(%rbp)
	movl	-8(%rbp),%edx
	leaq	U_$MIDI_$$_DEVICENAMES(%rip),%rax
	leaq	(%rax,%rdx,8),%rcx
	movq	$0,%rdx
	call	fpc_ansistr_assign
	cmpl	$15,-8(%rbp)
	jl	.Lj60
.Ll33:
# [111] if inputs>0 then
	cmpl	$0,-16(%rbp)
	jng	.Lj66
.Ll34:
# [113] for i:=0 to inputs-1 do
	movl	-16(%rbp),%eax
	leal	-1(%eax),%ebx
	movl	$0,-8(%rbp)
	cmpl	-8(%rbp),%ebx
	jl	.Lj70
	subl	$1,-8(%rbp)
	.balign 8,0x90
.Lj71:
	addl	$1,-8(%rbp)
.Ll35:
# [115] result := midiInGetDevCaps(i, @caps, SizeOf(TMidiInCaps));
	leaq	-72(%rbp),%rdx
	movl	-8(%rbp),%ecx
	movl	$44,%r8d
	call	_$dll$winmm$midiInGetDevCapsA
	movl	%eax,-24(%rbp)
.Ll36:
# [116] if result = MMSYSERR_NOERROR then devicenames[i]:=(StrPas(caps.szPname));
	cmpl	$0,-24(%rbp)
	jne	.Lj81
	leaq	-64(%rbp),%rdx
	leaq	-88(%rbp),%rcx
	call	SYSUTILS_$$_STRPAS$PCHAR$$ANSISTRING
	movq	-88(%rbp),%rdx
	movl	-8(%rbp),%eax
	leaq	U_$MIDI_$$_DEVICENAMES(%rip),%rcx
	leaq	(%rcx,%rax,8),%rcx
	call	fpc_ansistr_assign
.Lj81:
.Ll37:
	cmpl	-8(%rbp),%ebx
	jg	.Lj71
.Lj70:
.Lj66:
.Ll38:
# [120] result := midiInOpen( @handle, 0 {devindex}, cardinal(@midiInCallback),
	movl	$196608,32(%rsp)
	leaq	MIDI_$$_MIDIINCALLBACK$LPHMIDIIN$LONGINT$LONGINT$LONGINT$LONGINT(%rip),%r8
	leaq	-80(%rbp),%rcx
	movl	$0,%r9d
	movl	$0,%edx
	call	_$dll$winmm$midiInOpen
	movl	%eax,-24(%rbp)
.Ll39:
# [127] Result := midiInPrepareHeader(Handle, @SysExHeader, SizeOf(TMidiHdr));
	leaq	U_$MIDI_$$_SYSEXHEADER(%rip),%rdx
	movq	-80(%rbp),%rcx
	movl	$108,%r8d
	call	_$dll$winmm$midiInPrepareHeader
	movl	%eax,-24(%rbp)
.Ll40:
# [128] Result := midiInAddBuffer( Handle, @SysExHeader, SizeOf(TMidiHdr));
	leaq	U_$MIDI_$$_SYSEXHEADER(%rip),%rdx
	movq	-80(%rbp),%rcx
	movl	$108,%r8d
	call	_$dll$winmm$midiInAddBuffer
	movl	%eax,-24(%rbp)
.Ll41:
# [129] Result := midiInStart( Handle);
	movq	-80(%rbp),%rcx
	call	_$dll$winmm$midiInStart
	movl	%eax,-24(%rbp)
.Lj122:
.Ll42:
	nop
.Lj39:
	movq	%rbp,%rcx
	call	MIDI$_$OPENMIDI_$$_fin$11
.Ll43:
# [131] end;
	movq	-96(%rbp),%rbx
	leaq	(%rbp),%rsp
	popq	%rbp
	ret
.seh_handler __FPC_specific_handler,@except,@unwind
.seh_handlerdata
	.long	2
	.long	1
	.rva	.Lj47
	.rva	.Lj44
	.rva	.Lj45
	.long	0
	.rva	.Lj38
	.rva	.Lj39
	.rva	MIDI$_$OPENMIDI_$$_fin$11

.section .text.n_midi_$$_openmidi,"x"
.seh_endproc
.Lc16:
.Lt3:
.Ll44:

.section .text.n_midi_$$_init_implicit$,"x"
	.balign 16,0x90
.globl	INIT$_$MIDI
INIT$_$MIDI:
.globl	MIDI_$$_init_implicit$
MIDI_$$_init_implicit$:
.Lc20:
.seh_proc MIDI_$$_init_implicit$
	leaq	-40(%rsp),%rsp
.Lc22:
.seh_stackalloc 40
.seh_endprologue
	nop
	leaq	40(%rsp),%rsp
	ret
.seh_endproc
.Lc21:
.Lt6:
.Ll45:

.section .text.n_midi_$$_finalize_implicit$,"x"
	.balign 16,0x90
.globl	FINALIZE$_$MIDI
FINALIZE$_$MIDI:
.globl	MIDI_$$_finalize_implicit$
MIDI_$$_finalize_implicit$:
.Lc23:
.seh_proc MIDI_$$_finalize_implicit$
	leaq	-40(%rsp),%rsp
.Lc25:
.seh_stackalloc 40
.seh_endprologue
	leaq	RTTI_$MIDI_$$_DEF0(%rip),%rax
	movq	%rax,%rdx
	leaq	U_$MIDI_$$_DEVICENAMES(%rip),%rcx
	call	fpc_finalize
	nop
	leaq	40(%rsp),%rsp
	ret
.seh_endproc
.Lc24:
.Lt7:
.Ll46:
# End asmlist al_procedures
# Begin asmlist al_globals

.section .bss
	.balign 8
# [midi.pas]
# [16] var devicenames:array[0..maxmidi-1] of string;
	.globl U_$MIDI_$$_DEVICENAMES
U_$MIDI_$$_DEVICENAMES:
	.zero 128

.section .bss
	.balign 4
# [17] mididata:cardinal;
	.globl U_$MIDI_$$_MIDIDATA
U_$MIDI_$$_MIDIDATA:
	.zero 4

.section .bss
	.balign 4
# [18] midireceived:integer;
	.globl U_$MIDI_$$_MIDIRECEIVED
U_$MIDI_$$_MIDIRECEIVED:
	.zero 4

.section .bss
	.balign 4
# [19] callback:integer;
	.globl U_$MIDI_$$_CALLBACK
U_$MIDI_$$_CALLBACK:
	.zero 4

.section .bss
	.balign 4
# [20] buffer: array[0..255] of cardinal;
	.globl U_$MIDI_$$_BUFFER
U_$MIDI_$$_BUFFER:
	.zero 1024

.section .bss
# [30] SysExBuffer: array[0..2047] of AnsiChar;
	.globl U_$MIDI_$$_SYSEXBUFFER
U_$MIDI_$$_SYSEXBUFFER:
	.zero 2048

.section .bss
	.balign 8
# [31] SysExHeader: _midihdr ;
	.globl U_$MIDI_$$_SYSEXHEADER
U_$MIDI_$$_SYSEXHEADER:
	.zero 108
# End asmlist al_globals
# Begin asmlist al_typedconsts

.section .data.n_tc_$midi_$$_bs,"d"
.globl	TC_$MIDI_$$_BS
TC_$MIDI_$$_BS:
	.byte	0
# [22] be:byte=0;

.section .data.n_tc_$midi_$$_be,"d"
.globl	TC_$MIDI_$$_BE
TC_$MIDI_$$_BE:
	.byte	0
# [24] function readbuffer:cardinal;
# End asmlist al_typedconsts
# Begin asmlist al_rtti

.section .data.n_RTTI_$MIDI_$$_DEF0,"d"
	.balign 8
.globl	RTTI_$MIDI_$$_DEF0
RTTI_$MIDI_$$_DEF0:
	.byte	12
# [135] 
	.ascii	"\000"
	.quad	128,16
	.quad	RTTI_$SYSTEM_$$_ANSISTRING
	.byte	1
	.quad	RTTI_$SYSTEM_$$_SHORTINT
# End asmlist al_rtti
# Begin asmlist al_dwarf_frame

.section .debug_frame
.Lc26:
	.long	.Lc28-.Lc27
.Lc27:
	.long	-1
	.byte	1
	.byte	0
	.uleb128	1
	.sleb128	-4
	.byte	16
	.byte	12
	.uleb128	7
	.uleb128	8
	.byte	5
	.uleb128	16
	.uleb128	2
	.balign 4,0
.Lc28:
	.long	.Lc30-.Lc29
.Lc29:
	.secrel32	.Lc26
	.quad	.Lc1
	.quad	.Lc2-.Lc1
	.balign 4,0
.Lc30:
	.long	.Lc32-.Lc31
.Lc31:
	.secrel32	.Lc26
	.quad	.Lc3
	.quad	.Lc4-.Lc3
	.balign 4,0
.Lc32:
	.long	.Lc34-.Lc33
.Lc33:
	.secrel32	.Lc26
	.quad	.Lc5
	.quad	.Lc6-.Lc5
	.byte	4
	.long	.Lc7-.Lc5
	.byte	14
	.uleb128	16
	.byte	4
	.long	.Lc8-.Lc7
	.byte	5
	.uleb128	6
	.uleb128	4
	.byte	4
	.long	.Lc9-.Lc8
	.byte	13
	.uleb128	6
	.balign 4,0
.Lc34:
	.long	.Lc36-.Lc35
.Lc35:
	.secrel32	.Lc26
	.quad	.Lc10
	.quad	.Lc11-.Lc10
	.byte	4
	.long	.Lc12-.Lc10
	.byte	14
	.uleb128	16
	.byte	4
	.long	.Lc13-.Lc12
	.byte	5
	.uleb128	6
	.uleb128	4
	.byte	4
	.long	.Lc14-.Lc13
	.byte	13
	.uleb128	6
	.balign 4,0
.Lc36:
	.long	.Lc38-.Lc37
.Lc37:
	.secrel32	.Lc26
	.quad	.Lc15
	.quad	.Lc16-.Lc15
	.byte	4
	.long	.Lc17-.Lc15
	.byte	14
	.uleb128	16
	.byte	4
	.long	.Lc18-.Lc17
	.byte	5
	.uleb128	6
	.uleb128	4
	.byte	4
	.long	.Lc19-.Lc18
	.byte	13
	.uleb128	6
	.balign 4,0
.Lc38:
	.long	.Lc40-.Lc39
.Lc39:
	.secrel32	.Lc26
	.quad	.Lc20
	.quad	.Lc21-.Lc20
	.byte	4
	.long	.Lc22-.Lc20
	.byte	14
	.uleb128	48
	.balign 4,0
.Lc40:
	.long	.Lc42-.Lc41
.Lc41:
	.secrel32	.Lc26
	.quad	.Lc23
	.quad	.Lc24-.Lc23
	.byte	4
	.long	.Lc25-.Lc23
	.byte	14
	.uleb128	48
	.balign 4,0
.Lc42:
# End asmlist al_dwarf_frame
# Begin asmlist al_dwarf_info

.section .text.z_DEBUGEND_$MIDI,"x"
.globl	DEBUGEND_$MIDI
DEBUGEND_$MIDI:
# End asmlist al_end

