	.file "retro.pas"
# Begin asmlist al_begin

.section .text.b_DEBUGSTART_$RETRO,"x"
.globl	DEBUGSTART_$RETRO
DEBUGSTART_$RETRO:
# End asmlist al_begin
# Begin asmlist al_procedures

.section .text.n_retro$_$tretro_$__$$_create$boolean$$tretro,"x"
	.balign 16,0x90
.globl	RETRO$_$TRETRO_$__$$_CREATE$BOOLEAN$$TRETRO
RETRO$_$TRETRO_$__$$_CREATE$BOOLEAN$$TRETRO:
.Lc1:
.seh_proc RETRO$_$TRETRO_$__$$_CREATE$BOOLEAN$$TRETRO
.Ll1:
# [retro.pas]
# [226] begin
	pushq	%rbp
.seh_pushreg %rbp
.Lc3:
.Lc4:
	movq	%rsp,%rbp
.Lc5:
	leaq	-64(%rsp),%rsp
.seh_stackalloc 64
.seh_endprologue
# Var CreateSuspended located at rbp-8, size=OS_8
# Var $vmt located at rbp-16, size=OS_64
# Var $self located at rbp-24, size=OS_64
	movq	%rcx,-24(%rbp)
	movq	%rdx,-16(%rbp)
	movb	%r8b,-8(%rbp)
.Ll2:
	cmpq	$1,-16(%rbp)
	jne	.Lj6
	movq	-24(%rbp),%rax
	movq	-24(%rbp),%rdx
	movq	%rax,%rcx
	call	*104(%rdx)
	movq	%rax,-24(%rbp)
.Lj6:
	cmpq	$0,-24(%rbp)
	je	.Lj3
.Lj18:
.Ll3:
# [229] end;
	nop
.Lj17:
.Ll4:
# [227] FreeOnTerminate := True;
	movq	-24(%rbp),%rax
	movb	$1,17(%rax)
.Ll5:
# [228] inherited Create(CreateSuspended);
	movzbl	-8(%rbp),%r8d
	movq	-24(%rbp),%rcx
	movq	$4194304,%r9
	movq	$0,%rdx
	call	CLASSES$_$TTHREAD_$__$$_CREATE$BOOLEAN$QWORD$$TTHREAD
.Ll6:
	cmpq	$0,-24(%rbp)
	je	.Lj15
	cmpq	$0,-16(%rbp)
	je	.Lj15
	movq	-24(%rbp),%rcx
	movq	-24(%rbp),%rax
	movq	(%rax),%rax
	call	*136(%rax)
	jmp	.Lj15
.Lj14:
	cmpq	$0,-16(%rbp)
	je	.Lj36
	movq	-24(%rbp),%rcx
	movq	$-1,%rdx
	movq	-24(%rbp),%rax
	movq	(%rax),%rax
	call	*96(%rax)
.Lj36:
	call	fpc_reraise
	call	FPC_DONEEXCEPTION
.Lj41:
	nop
.Lj15:
.Lj3:
	movq	-24(%rbp),%rax
	nop
	leaq	(%rbp),%rsp
	popq	%rbp
	ret
.seh_handler __FPC_specific_handler,@except,@unwind
.seh_handlerdata
	.long	1
	.long	1
	.rva	.Lj17
	.rva	.Lj14
	.rva	.Lj15

.section .text.n_retro$_$tretro_$__$$_create$boolean$$tretro,"x"
.seh_endproc
.Lc2:
.Lt48:
.Ll7:

.section .text.n_retro$_$tretro_$__$$_execute,"x"
	.balign 16,0x90
.globl	RETRO$_$TRETRO_$__$$_EXECUTE
RETRO$_$TRETRO_$__$$_EXECUTE:
.Lc6:
.seh_proc RETRO$_$TRETRO_$__$$_EXECUTE
.Ll8:
# [243] begin
	pushq	%rbx
.seh_pushreg %rbx
	pushq	%rdi
.seh_pushreg %rdi
	pushq	%rsi
.seh_pushreg %rsi
	leaq	-48(%rsp),%rsp
.Lc8:
.seh_stackalloc 48
# Var $self located in register rbx
# Var p3 located in register rsi
# Var t located in register rdi
.seh_endprologue
	movq	%rcx,%rbx
.Ll9:
# [244] running:=1;                               // tell them the machine is running
	movl	$1,TC_$RETRO_$$_RUNNING(%rip)
.Ll10:
# [245] SDL_SetThreadPriority(SDL_THREAD_PRIORITY_HIGH);
	movl	$2,%ecx
	call	_$dll$sdl2$SDL_SetThreadPriority
	.balign 8,0x90
.Lj48:
.Ll11:
# [247] if p2<>nil then                           // the screen is prepared
	cmpq	$0,U_$RETRO_$$_P2(%rip)
	je	.Lj52
.Ll12:
# [250] p3:=p2+2304000;                         // second frame buffer
	movq	U_$RETRO_$$_P2(%rip),%rax
	leaq	9216000(%rax),%rax
	movq	%rax,%rsi
.Ll13:
# [251] sdlevents;                              // get events from SDL and update system variables
	call	RETRO_$$_SDLEVENTS
.Ll14:
# [252] vblank1:=0;                             // tell them there is no vblank
	movb	$0,U_$RETRO_$$_VBLANK1(%rip)
.Ll15:
# [253] t:=gettime;                             // prepare for screen time measurement
	call	RETRO_$$_GETTIME$$INT64
	movq	%rax,%rdi
.Ll16:
# [254] scrconvert(p2,raml^[$18001]);           // convert the screen
	movq	U_$RETRO_$$_R1(%rip),%rax
	movl	393220(%rax),%edx
	movq	U_$RETRO_$$_P2(%rip),%rcx
	call	RETRO_$$_SCRCONVERT$POINTER$LONGINT
.Ll17:
# [255] tim:=gettime-t;                         // get screen time for debug
	call	RETRO_$$_GETTIME$$INT64
	subq	%rdi,%rax
	movq	%rax,U_$RETRO_$$_TIM(%rip)
.Ll18:
# [256] raml^[$18000]+=1;                       // increment frame counter
	movq	U_$RETRO_$$_R1(%rip),%rax
	movl	393216(%rax),%eax
	leal	1(%eax),%eax
	movq	U_$RETRO_$$_R1(%rip),%rdx
	movl	%eax,393216(%rdx)
.Ll19:
# [257] vblank1:=1;                             // we are in vblank now
	movb	$1,U_$RETRO_$$_VBLANK1(%rip)
.Ll20:
# [258] sprite(p2);               // draw sprites
	movq	U_$RETRO_$$_P2(%rip),%rcx
	call	RETRO_$$_SPRITE$POINTER
	.balign 8,0x90
.Lj71:
.Ll21:
# [259] repeat until peek($70000)<2;            // if peek($70000)=2 then resizing is in progress, don't call SDL
	movl	$458752,%ecx
	call	RETRO_$$_PEEK$LONGINT$$BYTE
	cmpb	$2,%al
	jnb	.Lj71
.Ll22:
# [260] poke ($70000,0) ;                       // tell them they can not resize
	movl	$0,%edx
	movl	$458752,%ecx
	call	RETRO_$$_POKE$LONGINT$BYTE
.Ll23:
# [265] if (needrestart>0) then
	cmpb	$0,TC_$RETRO_$$_NEEDRESTART(%rip)
	jna	.Lj81
.Ll24:
# [268] SDL_DestroyTexture( sdlTexture );
	movq	U_$RETRO_$$_SDLTEXTURE(%rip),%rcx
	call	_$dll$sdl2$SDL_DestroyTexture
.Ll25:
# [269] SDL_DestroyRenderer( sdlRenderer );
	movq	U_$RETRO_$$_SDLRENDERER(%rip),%rcx
	call	_$dll$sdl2$SDL_DestroyRenderer
.Ll26:
# [270] sdlRenderer := SDL_CreateRenderer(scr, -1, 14);
	movq	U_$RETRO_$$_SCR(%rip),%rcx
	movl	$14,%r8d
	movl	$-1,%edx
	call	_$dll$sdl2$SDL_CreateRenderer
	movq	%rax,U_$RETRO_$$_SDLRENDERER(%rip)
.Ll27:
# [271] if peek($70002)=0 then begin
	movl	$458754,%ecx
	call	RETRO_$$_PEEK$LONGINT$$BYTE
	testb	%al,%al
	jne	.Lj95
.Ll28:
# [272] if needrestart=2 then sdl_setwindowfullscreen(scr,0);
	cmpb	$2,TC_$RETRO_$$_NEEDRESTART(%rip)
	jne	.Lj99
	movq	U_$RETRO_$$_SCR(%rip),%rcx
	movl	$0,%edx
	call	_$dll$sdl2$SDL_SetWindowFullscreen
.Lj99:
.Ll29:
# [273] sdlTexture := SDL_CreateTexture(sdlRenderer,SDL_PIXELFORMAT_ARGB8888,SDL_TEXTUREACCESS_STreaming,1920,1200);
	movl	$1200,32(%rsp)
	movq	U_$RETRO_$$_SDLRENDERER(%rip),%rcx
	movl	$1920,%r9d
	movl	$1,%r8d
	movl	$372645892,%edx
	call	_$dll$sdl2$SDL_CreateTexture
	movq	%rax,U_$RETRO_$$_SDLTEXTURE(%rip)
.Ll30:
# [274] SDL_RenderSetLogicalSize(sdlRenderer,1920,1200);
	movq	U_$RETRO_$$_SDLRENDERER(%rip),%rcx
	movl	$1200,%r8d
	movl	$1920,%edx
	call	_$dll$sdl2$SDL_RenderSetLogicalSize
	jmp	.Lj122
.Lj95:
.Ll31:
# [278] if needrestart=2 then sdl_setwindowfullscreen(scr,SDL_WINDOW_FULLSCREEN_DESKTOP);
	cmpb	$2,TC_$RETRO_$$_NEEDRESTART(%rip)
	jne	.Lj124
	movq	U_$RETRO_$$_SCR(%rip),%rcx
	movl	$4097,%edx
	call	_$dll$sdl2$SDL_SetWindowFullscreen
.Lj124:
.Ll32:
# [279] sdlTexture := SDL_CreateTexture(sdlRenderer,SDL_PIXELFORMAT_ARGB8888,SDL_TEXTUREACCESS_STreaming,1920,1200);
	movl	$1200,32(%rsp)
	movq	U_$RETRO_$$_SDLRENDERER(%rip),%rcx
	movl	$1920,%r9d
	movl	$1,%r8d
	movl	$372645892,%edx
	call	_$dll$sdl2$SDL_CreateTexture
	movq	%rax,U_$RETRO_$$_SDLTEXTURE(%rip)
.Ll33:
# [280] SDL_RenderSetLogicalSize(sdlRenderer,1920,1200);
	movq	U_$RETRO_$$_SDLRENDERER(%rip),%rcx
	movl	$1200,%r8d
	movl	$1920,%edx
	call	_$dll$sdl2$SDL_RenderSetLogicalSize
.Lj122:
.Ll34:
# [282] needrestart:=0;
	movb	$0,TC_$RETRO_$$_NEEDRESTART(%rip)
.Lj81:
.Ll35:
# [286] SDL_UpdateTexture(sdlTexture, nil, p2, 1920 * 4);   // render the screen
	movq	U_$RETRO_$$_P2(%rip),%r8
	movq	U_$RETRO_$$_SDLTEXTURE(%rip),%rcx
	movl	$7680,%r9d
	movq	$0,%rdx
	call	_$dll$sdl2$SDL_UpdateTexture
.Ll36:
# [287] SDL_RenderClear(sdlRenderer);
	movq	U_$RETRO_$$_SDLRENDERER(%rip),%rcx
	call	_$dll$sdl2$SDL_RenderClear
.Ll37:
# [288] SDL_RenderCopy(sdlRenderer, sdlTexture,nil,nil);
	movq	U_$RETRO_$$_SDLTEXTURE(%rip),%rdx
	movq	U_$RETRO_$$_SDLRENDERER(%rip),%rcx
	movq	$0,%r9
	movq	$0,%r8
	call	_$dll$sdl2$SDL_RenderCopy
.Ll38:
# [289] SDL_RenderPresent(sdlRenderer);
	movq	U_$RETRO_$$_SDLRENDERER(%rip),%rcx
	call	_$dll$sdl2$SDL_RenderPresent
.Ll39:
# [290] poke ($70000,1);                        // screen rendered, resizing possible
	movl	$1,%edx
	movl	$458752,%ecx
	call	RETRO_$$_POKE$LONGINT$BYTE
.Ll40:
# [294] sdlevents;                              // process the second buffer
	call	RETRO_$$_SDLEVENTS
.Ll41:
# [295] vblank1:=0;
	movb	$0,U_$RETRO_$$_VBLANK1(%rip)
.Ll42:
# [296] t:=gettime;
	call	RETRO_$$_GETTIME$$INT64
	movq	%rax,%rdi
.Ll43:
# [297] scrconvert(p3,raml^[$18001]);
	movq	U_$RETRO_$$_R1(%rip),%rax
	movl	393220(%rax),%edx
	movq	%rsi,%rcx
	call	RETRO_$$_SCRCONVERT$POINTER$LONGINT
.Ll44:
# [298] tim:=gettime-t;
	call	RETRO_$$_GETTIME$$INT64
	subq	%rdi,%rax
	movq	%rax,U_$RETRO_$$_TIM(%rip)
.Ll45:
# [299] raml^[$18000]+=1;
	movq	U_$RETRO_$$_R1(%rip),%rax
	movl	393216(%rax),%eax
	leal	1(%eax),%edx
	movq	U_$RETRO_$$_R1(%rip),%rax
	movl	%edx,393216(%rax)
.Ll46:
# [300] vblank1:=1;
	movb	$1,U_$RETRO_$$_VBLANK1(%rip)
.Ll47:
# [301] sprite(p3);
	movq	%rsi,%rcx
	call	RETRO_$$_SPRITE$POINTER
	.balign 8,0x90
.Lj189:
.Ll48:
# [302] repeat until peek($70000)<2;
	movl	$458752,%ecx
	call	RETRO_$$_PEEK$LONGINT$$BYTE
	cmpb	$2,%al
	jnb	.Lj189
.Ll49:
# [303] poke ($70000,0);
	movl	$0,%edx
	movl	$458752,%ecx
	call	RETRO_$$_POKE$LONGINT$BYTE
.Ll50:
# [305] if (needrestart>0) then
	cmpb	$0,TC_$RETRO_$$_NEEDRESTART(%rip)
	jna	.Lj199
.Ll51:
# [308] SDL_DestroyTexture( sdlTexture );
	movq	U_$RETRO_$$_SDLTEXTURE(%rip),%rcx
	call	_$dll$sdl2$SDL_DestroyTexture
.Ll52:
# [309] SDL_DestroyRenderer( sdlRenderer );
	movq	U_$RETRO_$$_SDLRENDERER(%rip),%rcx
	call	_$dll$sdl2$SDL_DestroyRenderer
.Ll53:
# [310] sdlRenderer := SDL_CreateRenderer(scr, -1, 14);
	movq	U_$RETRO_$$_SCR(%rip),%rcx
	movl	$14,%r8d
	movl	$-1,%edx
	call	_$dll$sdl2$SDL_CreateRenderer
	movq	%rax,U_$RETRO_$$_SDLRENDERER(%rip)
.Ll54:
# [311] if peek($70002)=0 then begin
	movl	$458754,%ecx
	call	RETRO_$$_PEEK$LONGINT$$BYTE
	testb	%al,%al
	jne	.Lj213
.Ll55:
# [312] if needrestart=2 then sdl_setwindowfullscreen(scr,0);
	cmpb	$2,TC_$RETRO_$$_NEEDRESTART(%rip)
	jne	.Lj217
	movq	U_$RETRO_$$_SCR(%rip),%rcx
	movl	$0,%edx
	call	_$dll$sdl2$SDL_SetWindowFullscreen
.Lj217:
.Ll56:
# [313] sdlTexture := SDL_CreateTexture(sdlRenderer,SDL_PIXELFORMAT_ARGB8888,SDL_TEXTUREACCESS_STreaming,1920,1200);
	movl	$1200,32(%rsp)
	movq	U_$RETRO_$$_SDLRENDERER(%rip),%rcx
	movl	$1920,%r9d
	movl	$1,%r8d
	movl	$372645892,%edx
	call	_$dll$sdl2$SDL_CreateTexture
	movq	%rax,U_$RETRO_$$_SDLTEXTURE(%rip)
.Ll57:
# [314] SDL_RenderSetLogicalSize(sdlRenderer,1920,1200);
	movq	U_$RETRO_$$_SDLRENDERER(%rip),%rcx
	movl	$1200,%r8d
	movl	$1920,%edx
	call	_$dll$sdl2$SDL_RenderSetLogicalSize
	jmp	.Lj240
.Lj213:
.Ll58:
# [318] if needrestart=2 then sdl_setwindowfullscreen(scr,SDL_WINDOW_FULLSCREEN_DESKTOP);
	cmpb	$2,TC_$RETRO_$$_NEEDRESTART(%rip)
	jne	.Lj242
	movq	U_$RETRO_$$_SCR(%rip),%rcx
	movl	$4097,%edx
	call	_$dll$sdl2$SDL_SetWindowFullscreen
.Lj242:
.Ll59:
# [319] sdlTexture := SDL_CreateTexture(sdlRenderer,SDL_PIXELFORMAT_ARGB8888,SDL_TEXTUREACCESS_STreaming,1920,1200);
	movl	$1200,32(%rsp)
	movq	U_$RETRO_$$_SDLRENDERER(%rip),%rcx
	movl	$1920,%r9d
	movl	$1,%r8d
	movl	$372645892,%edx
	call	_$dll$sdl2$SDL_CreateTexture
	movq	%rax,U_$RETRO_$$_SDLTEXTURE(%rip)
.Ll60:
# [320] SDL_RenderSetLogicalSize(sdlRenderer,1920,1200);
	movq	U_$RETRO_$$_SDLRENDERER(%rip),%rcx
	movl	$1200,%r8d
	movl	$1920,%edx
	call	_$dll$sdl2$SDL_RenderSetLogicalSize
.Lj240:
.Ll61:
# [322] needrestart:=0;
	movb	$0,TC_$RETRO_$$_NEEDRESTART(%rip)
.Lj199:
.Ll62:
# [326] SDL_UpdateTexture(sdlTexture, nil, p3, 1920 * 4);
	movq	%rsi,%r8
	movq	U_$RETRO_$$_SDLTEXTURE(%rip),%rcx
	movl	$7680,%r9d
	movq	$0,%rdx
	call	_$dll$sdl2$SDL_UpdateTexture
.Ll63:
# [327] SDL_RenderClear(sdlRenderer);
	movq	U_$RETRO_$$_SDLRENDERER(%rip),%rcx
	call	_$dll$sdl2$SDL_RenderClear
.Ll64:
# [328] SDL_RenderCopy(sdlRenderer, sdlTexture,nil,nil);
	movq	U_$RETRO_$$_SDLTEXTURE(%rip),%rdx
	movq	U_$RETRO_$$_SDLRENDERER(%rip),%rcx
	movq	$0,%r9
	movq	$0,%r8
	call	_$dll$sdl2$SDL_RenderCopy
.Ll65:
# [329] SDL_RenderPresent(sdlRenderer);
	movq	U_$RETRO_$$_SDLRENDERER(%rip),%rcx
	call	_$dll$sdl2$SDL_RenderPresent
.Ll66:
# [330] poke($70000,1) ;
	movl	$1,%edx
	movl	$458752,%ecx
	call	RETRO_$$_POKE$LONGINT$BYTE
.Lj52:
.Ll67:
# [333] until terminated;
	cmpb	$0,16(%rbx)
	je	.Lj48
.Ll68:
# [334] running:=0;
	movl	$0,TC_$RETRO_$$_RUNNING(%rip)
.Ll69:
# [335] end;
	nop
	leaq	48(%rsp),%rsp
	popq	%rsi
	popq	%rdi
	popq	%rbx
	ret
.seh_endproc
.Lc7:
.Lt47:
.Ll70:

.section .text.n_retro_$$_initmachine$longint,"x"
	.balign 16,0x90
.globl	RETRO_$$_INITMACHINE$LONGINT
RETRO_$$_INITMACHINE$LONGINT:
.Lc9:
.seh_proc RETRO_$$_INITMACHINE$LONGINT
.Ll71:
# [350] begin
	pushq	%rbx
.seh_pushreg %rbx
	pushq	%rdi
.seh_pushreg %rdi
	pushq	%rsi
.seh_pushreg %rsi
	leaq	-64(%rsp),%rsp
.Lc11:
.seh_stackalloc 64
# Var mode located in register ebx
# Var a located in register esi
# Var i located in register edi
.seh_endprologue
# Var bb located at rsp+48, size=OS_8
	movl	%ecx,%ebx
.Ll72:
# [352] testoperator:=TFmOperator.create(0,@outputtable );
	leaq	U_$RETRO_$$_OUTPUTTABLE(%rip),%r9
	leaq	VMT_$FMSYNTH_$$_TFMOPERATOR(%rip),%rcx
	movl	$0,%r8d
	movq	$1,%rdx
	call	FMSYNTH$_$TFMOPERATOR_$__$$_CREATE$LONGINT$POINTER$$TFMOPERATOR
# PeepHole Optimization,MovMov2MovMov1
	movq	%rax,U_$RETRO_$$_TESTOPERATOR(%rip)
.Ll73:
# [353] testoperator.init;
	movq	%rax,%rcx
	call	FMSYNTH$_$TFMOPERATOR_$__$$_INIT
.Ll74:
# [354] testvoice:=TFmVoice.create;
	leaq	VMT_$FMSYNTH_$$_TFMVOICE(%rip),%rcx
	movq	$1,%rdx
	call	FMSYNTH$_$TFMVOICE_$__$$_CREATE$$TFMVOICE
# PeepHole Optimization,MovMov2Mov1
	movq	%rax,U_$RETRO_$$_TESTVOICE(%rip)
.Ll75:
# [355] testvoice.operators[0].mul1:=10000;
	movq	8(%rax),%rax
	movq	_$RETRO$_Ld1(%rip),%rdx
	movq	%rdx,80(%rax)
.Ll76:
# [356] testvoice.operators[1].mul1:=10000;
	movq	U_$RETRO_$$_TESTVOICE(%rip),%rax
	movq	16(%rax),%rdx
	movq	_$RETRO$_Ld1(%rip),%rax
	movq	%rax,80(%rdx)
.Ll77:
# [357] testvoice.operators[1].freq:=440*(65536/192000);  ;
	movq	U_$RETRO_$$_TESTVOICE(%rip),%rax
	movq	16(%rax),%rax
	movq	_$RETRO$_Ld2(%rip),%rdx
	movq	%rdx,8(%rax)
# Var i located in register edx
.Ll78:
# [358] for i:=0 to 15 do srtablei[i]:=round(1073741824*(1-attacktable[i]));
	movl	$0,%edx
	subl	$1,%edx
	.balign 8,0x90
.Lj321:
	addl	$1,%edx
# PeepHole Optimization,var2a
	movl	%edx,%eax
	movsd	_$RETRO$_Ld4(%rip),%xmm0
	leaq	TC_$RETRO_$$_ATTACKTABLE(%rip),%rcx
	subsd	(%rcx,%rax,8),%xmm0
	mulsd	_$RETRO$_Ld3(%rip),%xmm0
	cvtsd2siq	%xmm0,%r8
# PeepHole Optimization,var2a
	movl	%edx,%eax
	leaq	U_$RETRO_$$_SRTABLEI(%rip),%rcx
	movq	%r8,(%rcx,%rax,8)
	cmpl	$15,%edx
	jl	.Lj321
# Var i located in register edx
.Ll79:
# [359] for i:=0 to 15 do attacktablei[i]:=round(1073741824*attacktable[i]);
	movl	$0,%edx
	subl	$1,%edx
	.balign 8,0x90
.Lj326:
	addl	$1,%edx
# PeepHole Optimization,var2a
	movl	%edx,%eax
	movsd	_$RETRO$_Ld3(%rip),%xmm0
	leaq	TC_$RETRO_$$_ATTACKTABLE(%rip),%rcx
	mulsd	(%rcx,%rax,8),%xmm0
	cvtsd2siq	%xmm0,%r8
# PeepHole Optimization,var2a
	movl	%edx,%eax
	leaq	U_$RETRO_$$_ATTACKTABLEI(%rip),%rcx
	movq	%r8,(%rcx,%rax,8)
	cmpl	$15,%edx
	jl	.Lj326
.Ll80:
# [360] initnotes;
	call	RETRO_$$_INITNOTES
.Ll81:
# [361] initsinetable;
	call	RETRO_$$_INITSINETABLE
.Ll82:
# [362] initlogtable;
	call	RETRO_$$_INITLOGTABLE
.Ll83:
# [363] r1:=virtualalloc(nil,268435456, MEM_COMMIT or MEM_RESERVE,PAGE_EXECUTE_READWRITE);  // get 256 MB ram
	movl	$64,%r9d
	movl	$12288,%r8d
	movq	$268435456,%rdx
	movq	$0,%rcx
	call	_$dll$kernel32$VirtualAlloc
	movq	%rax,U_$RETRO_$$_R1(%rip)
.Ll84:
# [364] p2:=virtualalloc(nil,20971520, MEM_COMMIT or MEM_RESERVE,PAGE_READWRITE);  // get the RAM for the framebuffer
	movl	$4,%r9d
	movl	$12288,%r8d
	movq	$20971520,%rdx
	movq	$0,%rcx
	call	_$dll$kernel32$VirtualAlloc
	movq	%rax,U_$RETRO_$$_P2(%rip)
.Ll85:
# [366] fh2:=fileopen('./st4font.def',$40);              // load 8x16 font
	leaq	_$RETRO$_Ld5(%rip),%rcx
	movl	$64,%edx
	call	SYSUTILS_$$_FILEOPEN$RAWBYTESTRING$LONGINT$$QWORD
	movl	%eax,U_$RETRO_$$_FH2(%rip)
.Ll86:
# [367] fileread(fh2,ramb^[$50000],2048);
	movq	U_$RETRO_$$_R1(%rip),%rax
	leaq	327680(%rax),%rdx
	movslq	U_$RETRO_$$_FH2(%rip),%rcx
	movl	$2048,%r8d
	call	SYSUTILS_$$_FILEREAD$QWORD$formal$LONGINT$$LONGINT
.Ll87:
# [368] fileclose(fh2);
	movslq	U_$RETRO_$$_FH2(%rip),%rcx
	call	SYSUTILS_$$_FILECLOSE$QWORD
.Ll88:
# [370] fh2:=fileopen('./combinedwaveforms.bin',$40);   // load combined waveforms for SID
	leaq	_$RETRO$_Ld6(%rip),%rcx
	movl	$64,%edx
	call	SYSUTILS_$$_FILEOPEN$RAWBYTESTRING$LONGINT$$QWORD
	movl	%eax,U_$RETRO_$$_FH2(%rip)
.Ll89:
# [371] fileread(fh2,combined,1024);
	movslq	U_$RETRO_$$_FH2(%rip),%rcx
	leaq	U_$RETRO_$$_COMBINED(%rip),%rdx
	movl	$1024,%r8d
	call	SYSUTILS_$$_FILEREAD$QWORD$formal$LONGINT$$LONGINT
.Ll90:
# [372] fileclose(fh2);
	movslq	U_$RETRO_$$_FH2(%rip),%rcx
	call	SYSUTILS_$$_FILECLOSE$QWORD
.Ll91:
# [374] fh2:=fileopen('./mysz.def',$40);                // load mouse cursor definition at sprite 8
	leaq	_$RETRO$_Ld7(%rip),%rcx
	movl	$64,%edx
	call	SYSUTILS_$$_FILEOPEN$RAWBYTESTRING$LONGINT$$QWORD
	movl	%eax,U_$RETRO_$$_FH2(%rip)
# Var i located in register edi
.Ll92:
# [375] for i:=0 to 1023 do
	movl	$0,%edi
	subl	$1,%edi
	.balign 8,0x90
.Lj385:
	addl	$1,%edi
.Ll93:
# [377] fileread(fh2,bb,1);
	movslq	U_$RETRO_$$_FH2(%rip),%rcx
	leaq	48(%rsp),%rdx
	movl	$1,%r8d
	call	SYSUTILS_$$_FILEREAD$QWORD$formal$LONGINT$$LONGINT
.Ll94:
# [378] a:=bb;
	movzbl	48(%rsp),%eax
# PeepHole Optimization,MovMov2Mov1
	movl	%eax,%esi
.Ll95:
# [379] a:=a+(a shl 8) + (a shl 16);
	shll	$8,%eax
	leal	(%eax,%esi),%edx
	movl	%esi,%eax
	shll	$16,%eax
	leal	(%edx,%eax),%eax
	movl	%eax,%esi
.Ll96:
# [380] raml^[$16400+i]:=a;
	movq	U_$RETRO_$$_R1(%rip),%rdx
	movslq	%edi,%rax
	movl	%esi,364544(%rdx,%rax,4)
.Ll97:
	cmpl	$1023,%edi
	jl	.Lj385
.Ll98:
# [382] fileclose(fh2);
	movslq	U_$RETRO_$$_FH2(%rip),%rcx
	call	SYSUTILS_$$_FILECLOSE$QWORD
.Ll99:
# [386] SDL_Init(SDL_INIT_everything);
	movl	$12849,%ecx
	call	_$dll$sdl2$SDL_Init
.Ll100:
# [388] SDL_SetHint(SDL_HINT_RENDER_SCALE_QUALITY, 'best'); // make the scaled rendering look smoother.
	leaq	_$RETRO$_Ld8(%rip),%rdx
	leaq	_$RETRO$_Ld9(%rip),%rcx
	call	_$dll$sdl2$SDL_SetHint
.Ll101:
# [389] SDL_SetHint(SDL_HINT_RENDER_DIRECT3D_THREADSAFE, '1');
	leaq	_$RETRO$_Ld10(%rip),%rdx
	leaq	_$RETRO$_Ld11(%rip),%rcx
	call	_$dll$sdl2$SDL_SetHint
.Ll102:
# [390] if mode=0 then scr := SDL_CreateWindow( 'The Retromachine', SDL_WINDOWPOS_UNDEFINED, SDL_WINDOWPOS_UNDEFINED, 960,600, SDL_WINDOW_shown);
	testl	%ebx,%ebx
	jne	.Lj411
	movl	$4,40(%rsp)
	movl	$600,32(%rsp)
	leaq	_$RETRO$_Ld12(%rip),%rcx
	movl	$960,%r9d
	movl	$536805376,%r8d
	movl	$536805376,%edx
	call	_$dll$sdl2$SDL_CreateWindow
	movq	%rax,U_$RETRO_$$_SCR(%rip)
.Lj411:
.Ll103:
# [391] if mode=1 then scr := SDL_CreateWindow( 'The Retromachine', SDL_WINDOWPOS_UNDEFINED, SDL_WINDOWPOS_UNDEFINED, 960,600 , SDL_WINDOW_fullscreen_desktop);
	cmpl	$1,%ebx
	jne	.Lj427
	movl	$4097,40(%rsp)
	movl	$600,32(%rsp)
	leaq	_$RETRO$_Ld12(%rip),%rcx
	movl	$960,%r9d
	movl	$536805376,%r8d
	movl	$536805376,%edx
	call	_$dll$sdl2$SDL_CreateWindow
	movq	%rax,U_$RETRO_$$_SCR(%rip)
.Lj427:
.Ll104:
# [392] sdlRenderer := SDL_CreateRenderer(scr, -1, 14);   // hardware+vsync+texture
	movq	U_$RETRO_$$_SCR(%rip),%rcx
	movl	$14,%r8d
	movl	$-1,%edx
	call	_$dll$sdl2$SDL_CreateRenderer
	movq	%rax,U_$RETRO_$$_SDLRENDERER(%rip)
.Ll105:
# [393] sdlTexture := SDL_CreateTexture(sdlRenderer,SDL_PIXELFORMAT_ARGB8888,SDL_TEXTUREACCESS_STreaming,1920,1200);
	movl	$1200,32(%rsp)
	movq	U_$RETRO_$$_SDLRENDERER(%rip),%rcx
	movl	$1920,%r9d
	movl	$1,%r8d
	movl	$372645892,%edx
	call	_$dll$sdl2$SDL_CreateTexture
	movq	%rax,U_$RETRO_$$_SDLTEXTURE(%rip)
.Ll106:
# [394] SDL_RenderSetLogicalSize(sdlRenderer,1920,1200);
	movq	U_$RETRO_$$_SDLRENDERER(%rip),%rcx
	movl	$1200,%r8d
	movl	$1920,%edx
	call	_$dll$sdl2$SDL_RenderSetLogicalSize
.Ll107:
# [396] sdl_showcursor(0);             // hide sdl cursor
	movl	$0,%ecx
	call	_$dll$sdl2$SDL_ShowCursor
.Ll108:
# [398] sdl_sound_init;
	call	RETRO_$$_SDL_SOUND_INIT$$LONGINT
.Ll109:
# [399] sdl_pauseaudio(0);
	movl	$0,%ecx
	call	_$dll$sdl2$SDL_PauseAudio
.Ll110:
# [401] thread:=tretro.create(true);   // start frame refreshing thread
	leaq	VMT_$RETRO_$$_TRETRO(%rip),%rcx
	movl	$1,%r8d
	movq	$1,%rdx
	call	RETRO$_$TRETRO_$__$$_CREATE$BOOLEAN$$TRETRO
# PeepHole Optimization,MovMov2MovMov1
	movq	%rax,U_$RETRO_$$_THREAD(%rip)
.Ll111:
# [402] thread.start;
	movq	%rax,%rcx
	call	CLASSES$_$TTHREAD_$__$$_START
.Ll112:
# [404] end;
	nop
	leaq	64(%rsp),%rsp
	popq	%rsi
	popq	%rdi
	popq	%rbx
	ret
.seh_endproc
.Lc10:
.Lt1:
.Ll113:

.section .text.n_retro_$$_stopmachine,"x"
	.balign 16,0x90
.globl	RETRO_$$_STOPMACHINE
RETRO_$$_STOPMACHINE:
.Lc12:
.seh_proc RETRO_$$_STOPMACHINE
.Ll114:
# [416] begin
	leaq	-40(%rsp),%rsp
.Lc14:
.seh_stackalloc 40
.seh_endprologue
.Ll115:
# [420] sdl_pauseaudio(1);
	movl	$1,%eax
	movl	%eax,%ecx
	call	_$dll$sdl2$SDL_PauseAudio
.Ll116:
# [421] sdl_closeaudio;
	call	_$dll$sdl2$SDL_CloseAudio
.Ll117:
# [422] thread.terminate;
	movq	U_$RETRO_$$_THREAD(%rip),%rcx
	call	CLASSES$_$TTHREAD_$__$$_TERMINATE
	.balign 8,0x90
.Lj488:
.Ll118:
# [423] repeat until running=0;
	cmpl	$0,TC_$RETRO_$$_RUNNING(%rip)
	jne	.Lj488
.Ll119:
# [424] SDL_DestroyTexture( sdlTexture );
	movq	U_$RETRO_$$_SDLTEXTURE(%rip),%rcx
	call	_$dll$sdl2$SDL_DestroyTexture
.Ll120:
# [425] SDL_DestroyRenderer( sdlRenderer );
	movq	U_$RETRO_$$_SDLRENDERER(%rip),%rcx
	call	_$dll$sdl2$SDL_DestroyRenderer
.Ll121:
# [426] SDL_DestroyWindow ( scr);
	movq	U_$RETRO_$$_SCR(%rip),%rcx
	call	_$dll$sdl2$SDL_DestroyWindow
.Ll122:
# [427] sdl_quit;
	call	_$dll$sdl2$SDL_Quit
.Ll123:
# [431] virtualfree(p2,0,mem_release);
	movq	U_$RETRO_$$_P2(%rip),%rcx
	movl	$32768,%r8d
	movq	$0,%rdx
	call	_$dll$kernel32$VirtualFree
.Ll124:
# [432] virtualfree(r1,0,mem_release);
	movq	U_$RETRO_$$_R1(%rip),%rcx
	movl	$32768,%r8d
	movq	$0,%rdx
	call	_$dll$kernel32$VirtualFree
.Ll125:
# [434] end;
	nop
	leaq	40(%rsp),%rsp
	ret
.seh_endproc
.Lc13:
.Lt2:
.Ll126:

.section .text.n_retro_$$_poke$longint$byte,"x"
	.balign 16,0x90
.globl	RETRO_$$_POKE$LONGINT$BYTE
RETRO_$$_POKE$LONGINT$BYTE:
.Lc15:
# Var addr located in register eax
# Var b located in register dl
.Ll127:
# [444] begin
	movl	%ecx,%eax
.Ll128:
# [445] ramb^[addr]:=b;
	movq	U_$RETRO_$$_R1(%rip),%rcx
	andl	$4294967295,%eax
# Var b located in register dl
	movb	%dl,(%rcx,%rax,1)
.Ll129:
# [446] end;
	ret
.Lc16:
.Lt15:
.Ll130:

.section .text.n_retro_$$_dpoke$longint$word,"x"
	.balign 16,0x90
.globl	RETRO_$$_DPOKE$LONGINT$WORD
RETRO_$$_DPOKE$LONGINT$WORD:
.Lc17:
# Var addr located in register eax
# Var w located in register dx
.Ll131:
# [450] begin
	movl	%ecx,%eax
.Ll132:
# [451] ramw^[addr shr 1]:=w;
	movq	U_$RETRO_$$_R1(%rip),%rcx
	shrl	$1,%eax
	andl	$4294967295,%eax
# Var w located in register dx
	movw	%dx,(%rcx,%rax,2)
.Ll133:
# [452] end;
	ret
.Lc18:
.Lt16:
.Ll134:

.section .text.n_retro_$$_lpoke$longint$longword,"x"
	.balign 16,0x90
.globl	RETRO_$$_LPOKE$LONGINT$LONGWORD
RETRO_$$_LPOKE$LONGINT$LONGWORD:
.Lc19:
# Var addr located in register eax
# Var c located in register edx
.Ll135:
# [457] begin
	movl	%ecx,%eax
.Ll136:
# [458] raml^[addr shr 2]:=c;
	movq	U_$RETRO_$$_R1(%rip),%rcx
	shrl	$2,%eax
	andl	$4294967295,%eax
	movl	%edx,(%rcx,%rax,4)
.Ll137:
# [459] end;
	ret
.Lc20:
.Lt17:
.Ll138:

.section .text.n_retro_$$_slpoke$longint$longint,"x"
	.balign 16,0x90
.globl	RETRO_$$_SLPOKE$LONGINT$LONGINT
RETRO_$$_SLPOKE$LONGINT$LONGINT:
.Lc21:
# Var addr located in register eax
# Var i located in register edx
.Ll139:
# [463] begin
	movl	%ecx,%eax
.Ll140:
# [464] raml^[addr shr 2]:=i;
	movq	U_$RETRO_$$_R1(%rip),%rcx
	shrl	$2,%eax
	andl	$4294967295,%eax
# Var i located in register edx
	movl	%edx,(%rcx,%rax,4)
.Ll141:
# [465] end;
	ret
.Lc22:
.Lt18:
.Ll142:

.section .text.n_retro_$$_peek$longint$$byte,"x"
	.balign 16,0x90
.globl	RETRO_$$_PEEK$LONGINT$$BYTE
RETRO_$$_PEEK$LONGINT$$BYTE:
.Lc23:
# Var addr located in register ecx
# Var $result located in register al
# [469] begin
.Ll143:
# [470] peek:=ramb^[addr];
	movq	U_$RETRO_$$_R1(%rip),%rax
	andl	$4294967295,%ecx
# Var $result located in register al
	movb	(%rax,%rcx,1),%al
# PeepHole Optimization,var9
.Ll144:
# [471] end;
	andl	$255,%eax
	ret
.Lc24:
.Lt19:
.Ll145:

.section .text.n_retro_$$_dpeek$longint$$word,"x"
	.balign 16,0x90
.globl	RETRO_$$_DPEEK$LONGINT$$WORD
RETRO_$$_DPEEK$LONGINT$$WORD:
.Lc25:
# Var addr located in register ecx
# Var $result located in register ax
# [475] begin
.Ll146:
# [476] dpeek:=ramb^[addr]+256*ramb^[addr+1];
	movq	U_$RETRO_$$_R1(%rip),%rdx
	movslq	%ecx,%rax
	movzbl	1(%rdx,%rax,1),%eax
	shll	$8,%eax
	movq	U_$RETRO_$$_R1(%rip),%rdx
	andl	$4294967295,%ecx
	movzbl	(%rdx,%rcx,1),%edx
	leal	(%eax,%edx),%eax
# Var $result located in register ax
# PeepHole Optimization,var11
.Ll147:
# [477] end;
	andl	$65535,%eax
	ret
.Lc26:
.Lt20:
.Ll148:

.section .text.n_retro_$$_lpeek$longint$$longword,"x"
	.balign 16,0x90
.globl	RETRO_$$_LPEEK$LONGINT$$LONGWORD
RETRO_$$_LPEEK$LONGINT$$LONGWORD:
.Lc27:
# Var addr located in register ecx
# Var $result located in register eax
# [481] begin
.Ll149:
# [482] lpeek:=raml^[addr shr 2];
	movq	U_$RETRO_$$_R1(%rip),%rax
	shrl	$2,%ecx
	andl	$4294967295,%ecx
# Var $result located in register eax
	movl	(%rax,%rcx,4),%eax
.Ll150:
# [483] end;
	ret
.Lc28:
.Lt21:
.Ll151:

.section .text.n_retro_$$_slpeek$longint$$longint,"x"
	.balign 16,0x90
.globl	RETRO_$$_SLPEEK$LONGINT$$LONGINT
RETRO_$$_SLPEEK$LONGINT$$LONGINT:
.Lc29:
# Var addr located in register ecx
# Var $result located in register eax
# [487] begin
.Ll152:
# [488] slpeek:=raml^[addr shr 2];
	movq	U_$RETRO_$$_R1(%rip),%rax
	shrl	$2,%ecx
	andl	$4294967295,%ecx
# Var $result located in register eax
	movl	(%rax,%rcx,4),%eax
.Ll153:
# [489] end;
	ret
.Lc30:
.Lt22:
.Ll154:

.section .text.n_retro_$$_gettime$$int64,"x"
	.balign 16,0x90
.globl	RETRO_$$_GETTIME$$INT64
RETRO_$$_GETTIME$$INT64:
.Lc31:
.seh_proc RETRO_$$_GETTIME$$INT64
.Ll155:
# [502] begin
	leaq	-56(%rsp),%rsp
.Lc33:
.seh_stackalloc 56
# Var $result located in register rax
.seh_endprologue
# Var pf located at rsp+32, size=OS_S64
# Var tm located at rsp+40, size=OS_S64
.Ll156:
# [503] QueryPerformanceFrequency(pf);
	leaq	32(%rsp),%rcx
	call	_$dll$kernel32$QueryPerformanceFrequency
.Ll157:
# [504] QueryPerformanceCounter(tm);
	leaq	40(%rsp),%rcx
	call	_$dll$kernel32$QueryPerformanceCounter
.Ll158:
# [505] gettime:=round(1000000*tm/pf);
	movq	40(%rsp),%rax
	imulq	$1000000,%rax,%rax
	cvtsi2sd	%rax,%xmm0
	cvtsi2sdq	32(%rsp),%xmm1
	divsd	%xmm1,%xmm0
	cvtsd2siq	%xmm0,%rax
# Var $result located in register rax
.Ll159:
# [506] end;
	nop
	leaq	56(%rsp),%rsp
	ret
.seh_endproc
.Lc32:
.Lt14:
.Ll160:

.section .text.n_retro_$$_readkeybuffer$$longword,"x"
	.balign 16,0x90
.globl	RETRO_$$_READKEYBUFFER$$LONGWORD
RETRO_$$_READKEYBUFFER$$LONGWORD:
.Lc34:
# Var $result located in register eax
# [510] begin
.Ll161:
# [511] if be<>bs then
	movb	U_$RETRO_$$_BE(%rip),%al
	cmpb	U_$RETRO_$$_BS(%rip),%al
	je	.Lj552
.Ll162:
# [513] result:=keybuffer[bs];
	movzbl	U_$RETRO_$$_BS(%rip),%eax
	leaq	U_$RETRO_$$_KEYBUFFER(%rip),%rdx
	movl	(%rdx,%rax,4),%eax
.Ll163:
# [514] bs+=1
	movzbl	U_$RETRO_$$_BS(%rip),%edx
.Ll164:
# [515] end
	leal	1(%edx),%edx
.Ll165:
	movb	%dl,U_$RETRO_$$_BS(%rip)
	jmp	.Lj557
.Lj552:
.Ll166:
# [516] else result:=$FFFFFFFF;
	movl	$4294967295,%eax
.Lj557:
.Ll167:
# [517] end;
	ret
.Lc35:
.Lt33:
.Ll168:

.section .text.n_retro_$$_writekeybuffer$longint,"x"
	.balign 16,0x90
.globl	RETRO_$$_WRITEKEYBUFFER$LONGINT
RETRO_$$_WRITEKEYBUFFER$LONGINT:
.Lc36:
# Var a located in register eax
.Ll169:
# [521] begin
	movl	%ecx,%eax
.Ll170:
# [522] if be<>bs-1 then
	movzbl	U_$RETRO_$$_BS(%rip),%edx
	leaq	-1(%rdx),%rcx
	movzbl	U_$RETRO_$$_BE(%rip),%edx
	cmpq	%rdx,%rcx
	je	.Lj563
.Ll171:
# [524] keybuffer[be]:=a;
	movzbl	U_$RETRO_$$_BE(%rip),%ecx
	leaq	U_$RETRO_$$_KEYBUFFER(%rip),%rdx
	movl	%eax,(%rdx,%rcx,4)
.Ll172:
# [525] be+=1;
	movzbl	U_$RETRO_$$_BE(%rip),%eax
	leal	1(%eax),%eax
	movb	%al,U_$RETRO_$$_BE(%rip)
.Lj563:
.Ll173:
# [527] end;
	ret
.Lc37:
.Lt34:
.Ll174:

.section .text.n_retro_$$_sdlevents,"x"
	.balign 16,0x90
.globl	RETRO_$$_SDLEVENTS
RETRO_$$_SDLEVENTS:
.Lc38:
.seh_proc RETRO_$$_SDLEVENTS
.Ll175:
# [548] begin
	pushq	%rbx
.seh_pushreg %rbx
	pushq	%rsi
.seh_pushreg %rsi
	leaq	-88(%rsp),%rsp
.Lc40:
.seh_stackalloc 88
# Var qq located in register ebx
# Var key located in register esi
.seh_endprologue
# Var event located at rsp+32, size=OS_NO
	.balign 8,0x90
.Lj570:
.Ll176:
# [550] qq:=sdl_pollevent(@event)  ;
	leaq	32(%rsp),%rcx
	call	_$dll$sdl2$SDL_PollEvent
	movl	%eax,%ebx
.Ll177:
# [551] if (qq>0) and (event.type_=sdl_windowevent) then if event.window.event=SDL_WINDOWEVENT_ENTER then needrestart:=1;
	cmpl	$0,%ebx
	jng	.Lj578
	cmpl	$512,32(%rsp)
	jne	.Lj578
	cmpb	$10,44(%rsp)
	jne	.Lj581
	movb	$1,TC_$RETRO_$$_NEEDRESTART(%rip)
.Lj581:
.Lj578:
.Ll178:
# [553] if (qq<>0) and (event.type_=sdl_mousemotion)  then
	testl	%ebx,%ebx
	je	.Lj585
	cmpl	$1024,32(%rsp)
	jne	.Lj585
.Ll179:
# [555] x:=event.motion.x;
	movl	52(%rsp),%eax
	movl	%eax,TC_$RETRO$_$SDLEVENTS_$$_X(%rip)
.Ll180:
# [556] y:=event.motion.y;
	movl	56(%rsp),%eax
	movl	%eax,TC_$RETRO$_$SDLEVENTS_$$_Y(%rip)
.Ll181:
# [557] if x<64 then x:=64;
	cmpl	$64,TC_$RETRO$_$SDLEVENTS_$$_X(%rip)
	jnl	.Lj592
	movl	$64,TC_$RETRO$_$SDLEVENTS_$$_X(%rip)
.Lj592:
.Ll182:
# [558] if x>1855 then x:=1855;
	cmpl	$1855,TC_$RETRO$_$SDLEVENTS_$$_X(%rip)
	jng	.Lj596
	movl	$1855,TC_$RETRO$_$SDLEVENTS_$$_X(%rip)
.Lj596:
.Ll183:
# [559] if y<40 then y:=40;
	cmpl	$40,TC_$RETRO$_$SDLEVENTS_$$_Y(%rip)
	jnl	.Lj600
	movl	$40,TC_$RETRO$_$SDLEVENTS_$$_Y(%rip)
.Lj600:
.Ll184:
# [560] if y>1159 then y:=1159;
	cmpl	$1159,TC_$RETRO$_$SDLEVENTS_$$_Y(%rip)
	jng	.Lj604
	movl	$1159,TC_$RETRO$_$SDLEVENTS_$$_Y(%rip)
.Lj604:
.Ll185:
# [561] ramw^[$30016]:=x;
	movq	U_$RETRO_$$_R1(%rip),%rdx
	movw	TC_$RETRO$_$SDLEVENTS_$$_X(%rip),%ax
	movw	%ax,393260(%rdx)
.Ll186:
# [562] ramw^[$30017]:=y;
	movq	U_$RETRO_$$_R1(%rip),%rax
	movw	TC_$RETRO$_$SDLEVENTS_$$_Y(%rip),%dx
	movw	%dx,393262(%rax)
	jmp	.Lj611
.Lj585:
.Ll187:
# [565] else if (qq<>0) and (event.type_=sdl_mousebuttondown)  then
	testl	%ebx,%ebx
	je	.Lj613
	cmpl	$1025,32(%rsp)
	jne	.Lj613
.Ll188:
# [567] if event.button.state=sdl_pressed then
	cmpb	$1,49(%rsp)
	jne	.Lj621
.Ll189:
# [569] ramb^[$60033]:=2;
	movq	U_$RETRO_$$_R1(%rip),%rax
	movb	$2,393267(%rax)
.Ll190:
# [570] ramb^[$60030]:=event.button.button;
	movq	U_$RETRO_$$_R1(%rip),%rax
	movb	48(%rsp),%dl
	movb	%dl,393264(%rax)
	jmp	.Lj621
.Lj613:
.Ll191:
# [573] else if (qq<>0) and (event.type_=sdl_keydown) then
	testl	%ebx,%ebx
	je	.Lj623
	cmpl	$768,32(%rsp)
	jne	.Lj623
.Ll192:
# [575] ramb^[$6002B]:=1;
	movq	U_$RETRO_$$_R1(%rip),%rax
	movb	$1,393259(%rax)
.Ll193:
# [576] key:=event.key.keysym.sym;
	movl	52(%rsp),%esi
.Ll194:
# [577] key:=(key shr 24) shl 8 + (key and $FF);
	movl	%esi,%eax
	shrl	$24,%eax
	shll	$8,%eax
	movl	%esi,%edx
	andl	$255,%edx
	leal	(%eax,%edx),%eax
	movl	%eax,%esi
.Ll195:
# [578] if event.key.repeat_ = 0 then writekeybuffer(key);
	cmpb	$0,45(%rsp)
	jne	.Lj632
	movl	%esi,%ecx
	call	RETRO_$$_WRITEKEYBUFFER$LONGINT
.Lj632:
.Ll196:
# [579] dpoke($60028,key);
	movw	%si,%dx
# PeepHole Optimization,var11
	andl	$65535,%edx
	movl	$393256,%ecx
	call	RETRO_$$_DPOKE$LONGINT$WORD
	jmp	.Lj639
.Lj623:
.Ll197:
# [581] else if (qq<>0) and (event.type_=sdl_keyUP) then
	testl	%ebx,%ebx
	je	.Lj641
	cmpl	$769,32(%rsp)
	jne	.Lj641
.Ll198:
# [583] ramb^[$6002B]:=0;
	movq	U_$RETRO_$$_R1(%rip),%rax
	movb	$0,393259(%rax)
.Ll199:
# [584] key:=event.key.keysym.sym;
	movl	52(%rsp),%esi
.Ll200:
# [585] key:=(key shr 24) shl 8 + (key and $FF);
	movl	%esi,%eax
	shrl	$24,%eax
	shll	$8,%eax
	movl	%esi,%edx
	andl	$255,%edx
	leal	(%eax,%edx),%eax
	movl	%eax,%esi
.Ll201:
# [586] writekeybuffer(key+$10000);
	leal	65536(%esi),%ecx
	call	RETRO_$$_WRITEKEYBUFFER$LONGINT
.Ll202:
# [588] dpoke($6002A,key);
	movw	%si,%dx
# PeepHole Optimization,var11
	andl	$65535,%edx
	movl	$393258,%ecx
	call	RETRO_$$_DPOKE$LONGINT$WORD
.Lj641:
.Lj639:
.Lj621:
.Lj611:
.Ll203:
# [590] until qq=0;
	testl	%ebx,%ebx
	jne	.Lj570
.Ll204:
# [591] end;
	nop
	leaq	88(%rsp),%rsp
	popq	%rsi
	popq	%rbx
	ret
.seh_endproc
.Lc39:
.Lt36:
.Ll205:

.section .text.n_retro_$$_blit$crc5a667533,"x"
	.balign 16,0x90
.globl	RETRO_$$_BLIT$crc5A667533
RETRO_$$_BLIT$crc5A667533:
.Lc41:
# Temps allocated between rbp-112 and rbp+0
.seh_proc RETRO_$$_BLIT$crc5A667533
.Ll206:
# [608] begin
	pushq	%rbp
.seh_pushreg %rbp
.Lc43:
.Lc44:
	movq	%rsp,%rbp
.Lc45:
	leaq	-112(%rsp),%rsp
.seh_stackalloc 112
# Var from located in register eax
# Var x located in register edx
# Var y located in register eax
# Var too located in register eax
# Var x2 located in register ebx
# Var y2 located in register eax
# Var length located in register eax
# Var lines located in register esi
# Var bpl1 located in register eax
# Var bpl2 located in register eax
# Var i located in register r15d
# Var j located in register edi
# Var b1 located in register r14d
# Var b2 located in register r12d
	movq	%rbx,-112(%rbp)
	movq	%rdi,-104(%rbp)
	movq	%rsi,-96(%rbp)
	movq	%r12,-88(%rbp)
	movq	%r13,-80(%rbp)
	movq	%r14,-72(%rbp)
	movq	%r15,-64(%rbp)
.seh_savereg %rbx, 0
.seh_savereg %rdi, 8
.seh_savereg %rsi, 16
.seh_savereg %r12, 24
.seh_savereg %r13, 32
.seh_savereg %r14, 40
.seh_savereg %r15, 48
.seh_endprologue
	movl	%ecx,%eax
	movq	%rax,-56(%rbp)
	movl	%r8d,%eax
	movq	%rax,-48(%rbp)
	movl	%r9d,%eax
	movq	%rax,-8(%rbp)
	movl	48(%rbp),%ebx
	movl	56(%rbp),%eax
	movq	%rax,-40(%rbp)
	movl	64(%rbp),%eax
	movq	%rax,-32(%rbp)
	movl	72(%rbp),%esi
	movl	80(%rbp),%eax
	movq	%rax,-24(%rbp)
	movl	88(%rbp),%eax
	movq	%rax,-16(%rbp)
.Ll207:
# [609] if raml^[$18002]<16 then
	movq	U_$RETRO_$$_R1(%rip),%rax
	cmpl	$16,393224(%rax)
	jnl	.Lj658
.Ll208:
# [611] from:=from+x;
	movl	-56(%rbp),%eax
	leal	(%eax,%edx),%ecx
	movl	%ecx,%eax
	movq	%rax,-56(%rbp)
.Ll209:
# [612] too:=too+x2;
	movl	-8(%rbp),%eax
	leal	(%eax,%ebx),%ecx
	movl	%ecx,%eax
	movq	%rax,-8(%rbp)
.Ll210:
# [613] for i:=0 to lines-1 do
	leal	-1(%esi),%eax
	movl	%eax,%r13d
	movl	$0,%r15d
	cmpl	%r15d,%r13d
	jl	.Lj681
	subl	$1,%r15d
	.balign 8,0x90
.Lj667:
	addl	$1,%r15d
.Ll211:
# [615] b2:=too+bpl2*(i+y2);
	movl	-40(%rbp),%eax
	leal	(%r15d,%eax),%ecx
	movl	-16(%rbp),%eax
	movl	%eax,%r8d
	imull	%ecx,%r8d
	movl	-8(%rbp),%eax
	leal	(%r8d,%eax),%ecx
	movl	%ecx,%r12d
.Ll212:
# [616] b1:=from+bpl1*(i+y);
	movl	-48(%rbp),%eax
	leal	(%r15d,%eax),%ecx
	movl	-24(%rbp),%eax
	movl	%eax,%r8d
	imull	%ecx,%r8d
	movl	-56(%rbp),%ecx
	leal	(%r8d,%ecx),%eax
	movl	%eax,%r14d
.Ll213:
# [617] for j:=0 to length-1 do
	movl	-32(%rbp),%eax
	leal	-1(%eax),%ecx
	movl	%ecx,%eax
	movl	$0,%edi
	cmpl	%edi,%eax
	jl	.Lj675
	subl	$1,%edi
	.balign 8,0x90
.Lj676:
	addl	$1,%edi
.Ll214:
# [618] ramb^[b2+j]:=ramb^[b1+j];
	movq	U_$RETRO_$$_R1(%rip),%rcx
	movslq	%r12d,%r9
	movslq	%edi,%r8
	leaq	(%r9,%r8),%r9
	movq	U_$RETRO_$$_R1(%rip),%r10
	movslq	%r14d,%r11
	leaq	(%r11,%r8),%r8
	movb	(%r10,%r8,1),%r8b
	movb	%r8b,(%rcx,%r9,1)
.Ll215:
	cmpl	%edi,%eax
	jg	.Lj676
.Lj675:
.Ll216:
	cmpl	%r15d,%r13d
	jg	.Lj667
	jmp	.Lj681
.Lj658:
.Ll217:
# [621] else if (raml^[$18002]>=16) and (raml^[$18002]<32) then
	movq	U_$RETRO_$$_R1(%rip),%rax
.Ll218:
	movl	393224(%rax),%eax
.Ll219:
	cmpl	$16,%eax
	jnge	.Lj683
	cmpl	$32,%eax
	jnl	.Lj683
.Ll220:
# [623] from:=(from shr 1)+x;
	movl	-56(%rbp),%eax
	movl	%eax,%ecx
	shrl	$1,%ecx
	leal	(%ecx,%edx),%ecx
	movl	%ecx,%eax
	movq	%rax,-56(%rbp)
.Ll221:
# [624] too:=(too shr 1)+x2;
	movl	-8(%rbp),%eax
	movl	%eax,%ecx
	shrl	$1,%ecx
	leal	(%ecx,%ebx),%ecx
	movl	%ecx,%eax
	movq	%rax,-8(%rbp)
.Ll222:
# [625] for i:=0 to lines-1 do
	leal	-1(%esi),%eax
	movl	$0,%r15d
	cmpl	%r15d,%eax
	jl	.Lj709
	subl	$1,%r15d
	.balign 8,0x90
.Lj695:
	addl	$1,%r15d
.Ll223:
# [627] b2:=too+bpl2*(i+y2);
	movl	-40(%rbp),%ecx
	leal	(%r15d,%ecx),%r9d
	movl	-16(%rbp),%ecx
	movl	%ecx,%r8d
	imull	%r9d,%r8d
	movl	-8(%rbp),%ecx
	leal	(%r8d,%ecx),%r8d
	movl	%r8d,%r12d
.Ll224:
# [628] b1:=from+bpl1*(i+y);
	movl	-48(%rbp),%ecx
	leal	(%r15d,%ecx),%r8d
	movl	-24(%rbp),%ecx
	movl	%ecx,%r9d
	imull	%r8d,%r9d
	movl	-56(%rbp),%ecx
	leal	(%r9d,%ecx),%r8d
	movl	%r8d,%r14d
.Ll225:
# [629] for j:=0 to length-1 do
	movl	-32(%rbp),%ecx
	leal	-1(%ecx),%r8d
	movl	%r8d,%ecx
	movl	$0,%edi
	cmpl	%edi,%ecx
	jl	.Lj703
	subl	$1,%edi
	.balign 8,0x90
.Lj704:
	addl	$1,%edi
.Ll226:
# [630] ramw^[b2+j]:=ramw^[b1+j];
	movq	U_$RETRO_$$_R1(%rip),%r8
	movslq	%r12d,%r10
	movslq	%edi,%r9
	leaq	(%r10,%r9),%r10
	movq	U_$RETRO_$$_R1(%rip),%r11
	movslq	%r14d,%r13
	leaq	(%r13,%r9),%r9
	movw	(%r11,%r9,2),%r9w
	movw	%r9w,(%r8,%r10,2)
.Ll227:
	cmpl	%edi,%ecx
	jg	.Lj704
.Lj703:
.Ll228:
	cmpl	%r15d,%eax
	jg	.Lj695
	jmp	.Lj709
.Lj683:
.Ll229:
# [635] from:=(from shr 2)+x;
	movl	-56(%rbp),%eax
	movl	%eax,%ecx
	shrl	$2,%ecx
	leal	(%ecx,%edx),%eax
	movl	%eax,%edx
	movq	%rdx,-56(%rbp)
.Ll230:
# [636] too:=(too shr 2)+x2;
	movl	-8(%rbp),%edx
	movl	%edx,%eax
	shrl	$2,%eax
	leal	(%eax,%ebx),%eax
	movl	%eax,%edx
	movq	%rdx,-8(%rbp)
.Ll231:
# [637] for i:=0 to lines-1 do
	leal	-1(%esi),%eax
	movl	%eax,%ecx
	movl	$0,%r15d
	cmpl	%r15d,%ecx
	jl	.Lj717
	subl	$1,%r15d
	.balign 8,0x90
.Lj718:
	addl	$1,%r15d
.Ll232:
# [639] b2:=too+bpl2*(i+y2);
	movl	-40(%rbp),%eax
	leal	(%r15d,%eax),%edx
	movl	-16(%rbp),%eax
	movl	%eax,%r8d
	imull	%edx,%r8d
	movl	-8(%rbp),%edx
	leal	(%r8d,%edx),%eax
	movl	%eax,%r12d
.Ll233:
# [640] b1:=from+bpl1*(i+y);
	movl	-48(%rbp),%eax
	leal	(%r15d,%eax),%edx
	movl	-24(%rbp),%eax
	movl	%eax,%r8d
	imull	%edx,%r8d
	movl	-56(%rbp),%edx
	leal	(%r8d,%edx),%eax
	movl	%eax,%r14d
.Ll234:
# [641] for j:=0 to length-1 do
	movl	-32(%rbp),%edx
	leal	-1(%edx),%eax
	movl	%eax,%r9d
	movl	$0,%edi
	cmpl	%edi,%r9d
	jl	.Lj726
	subl	$1,%edi
	.balign 8,0x90
.Lj727:
	addl	$1,%edi
.Ll235:
# [642] raml^[b2+j]:=raml^[b1+j];
	movq	U_$RETRO_$$_R1(%rip),%r8
	movslq	%r12d,%rdx
	movslq	%edi,%rax
.Ll236:
	movq	%rax,%r10
.Ll237:
	leaq	(%rdx,%r10),%r11
	movq	U_$RETRO_$$_R1(%rip),%rdx
	movslq	%r14d,%rax
	leaq	(%rax,%r10),%rax
	movl	(%rdx,%rax,4),%eax
	movl	%eax,(%r8,%r11,4)
.Ll238:
	cmpl	%edi,%r9d
	jg	.Lj727
.Lj726:
.Ll239:
	cmpl	%r15d,%ecx
	jg	.Lj718
.Lj717:
.Lj709:
.Lj681:
.Ll240:
# [645] end;
	movq	-112(%rbp),%rbx
	movq	-104(%rbp),%rdi
	movq	-96(%rbp),%rsi
	movq	-88(%rbp),%r12
	movq	-80(%rbp),%r13
	movq	-72(%rbp),%r14
	movq	-64(%rbp),%r15
	leaq	(%rbp),%rsp
	popq	%rbp
	ret
.seh_endproc
.Lc42:
.Lt11:
.Ll241:

.section .text.n_retro_$$_graphics$longint,"x"
	.balign 16,0x90
.globl	RETRO_$$_GRAPHICS$LONGINT
RETRO_$$_GRAPHICS$LONGINT:
.Lc46:
.seh_proc RETRO_$$_GRAPHICS$LONGINT
.Ll242:
# [649] begin
	leaq	-40(%rsp),%rsp
.Lc48:
.seh_stackalloc 40
# Var mode located in register eax
.seh_endprologue
	movl	%ecx,%eax
.Ll243:
# [650] raml^[$18001]:=$F000000;
	movq	U_$RETRO_$$_R1(%rip),%rdx
	movl	$251658240,393220(%rdx)
.Ll244:
# [651] case mode of
	cmpl	$16,%eax
	jl	.Lj737
	subl	$16,%eax
	jne	.Lj737
.Ll245:
# [655] raml^[$18002]:=16;
	movq	U_$RETRO_$$_R1(%rip),%rax
	movl	$16,393224(%rax)
.Ll246:
# [656] raml^[$18008]:=1792;
	movq	U_$RETRO_$$_R1(%rip),%rax
	movl	$1792,393248(%rax)
.Ll247:
# [657] raml^[$18009]:=1120;
	movq	U_$RETRO_$$_R1(%rip),%rax
	movl	$1120,393252(%rax)
	jmp	.Lj736
.Lj737:
.Ll248:
# [663] raml^[$18002]:=16;
	movq	U_$RETRO_$$_R1(%rip),%rax
	movl	$16,393224(%rax)
.Ll249:
# [664] raml^[$18008]:=1792;
	movq	U_$RETRO_$$_R1(%rip),%rax
	movl	$1792,393248(%rax)
.Ll250:
# [665] raml^[$18009]:=1120;
	movq	U_$RETRO_$$_R1(%rip),%rax
	movl	$1120,393252(%rax)
.Lj736:
.Ll251:
# [668] raml^[$18001]:=$F000000;
	movq	U_$RETRO_$$_R1(%rip),%rax
	movl	$251658240,393220(%rax)
.Ll252:
# [669] setataripallette(0);
	movl	$0,%ecx
	call	RETRO_$$_SETATARIPALLETTE$LONGINT
.Ll253:
# [671] cls(0);
	movl	$0,%ecx
	call	RETRO_$$_CLS$LONGINT
.Ll254:
# [672] end;
	nop
	leaq	40(%rsp),%rsp
	ret
.seh_endproc
.Lc47:
.Lt3:
.Ll255:

.section .text.n_retro_$$_scrconvert$pointer$longint,"x"
	.balign 16,0x90
.globl	RETRO_$$_SCRCONVERT$POINTER$LONGINT
RETRO_$$_SCRCONVERT$POINTER$LONGINT:
.Lc49:
.seh_proc RETRO_$$_SCRCONVERT$POINTER$LONGINT
.Ll256:
# [684] begin
	pushq	%rbx
.seh_pushreg %rbx
	pushq	%rdi
.seh_pushreg %rdi
	pushq	%rsi
.seh_pushreg %rsi
	pushq	%r12
.seh_pushreg %r12
	pushq	%r13
.seh_pushreg %r13
	pushq	%r14
.seh_pushreg %r14
	pushq	%r15
.seh_pushreg %r15
	pushq	%rbp
.seh_pushreg %rbp
	leaq	-40(%rsp),%rsp
.Lc51:
.seh_stackalloc 40
# Var screen located in register rcx
# Var buf located in register r15d
# Var b located in register ebx
# Var pi located in register rbp
# Var i located in register r12d
# Var j located in register edi
# Var k located in register r12d
# Var l located in register esi
.seh_endprologue
.Ll257:
# [685] buf:=buf shr 1;
	shrl	$1,%edx
# Var buf located in register r15d
	movl	%edx,%r15d
# Var pi located in register rbp
# Var screen located in register rcx
.Ll258:
# [686] pi:=screen;
	movq	%rcx,%rbp
.Ll259:
# [687] b:=raml^[$18003];
	movq	U_$RETRO_$$_R1(%rip),%rax
# Var b located in register ebx
	movl	393228(%rax),%ebx
# Var l located in register esi
.Ll260:
# [688] l:=0;
	movl	$0,%esi
# Var i located in register r12d
.Ll261:
# [689] for i:=0 to 39 do begin if peek($70001)=0 then b:=lpeek($10000+4*((i div 4)+lpeek($60000)  ) mod 1024); for j:=0 to 1919  do (pi+i*1920+j)^:=b; end;
	movl	$0,%r12d
	subl	$1,%r12d
	.balign 8,0x90
.Lj769:
	addl	$1,%r12d
	movl	$458753,%ecx
	call	RETRO_$$_PEEK$LONGINT$$BYTE
	testb	%al,%al
	jne	.Lj771
	movslq	%r12d,%r13
	movq	%r13,%rax
	sarq	$63,%rax
	andq	$3,%rax
	addq	%rax,%r13
	sarq	$2,%r13
	movl	$393216,%ecx
	call	RETRO_$$_LPEEK$LONGINT$$LONGWORD
	andl	$4294967295,%eax
	leaq	(%r13,%rax),%rax
	shlq	$2,%rax
	cqto
	movq	$1024,%rcx
	idivq	%rcx
	leaq	65536(%rdx),%rcx
	call	RETRO_$$_LPEEK$LONGINT$$LONGWORD
	movl	%eax,%ebx
.Lj771:
	movl	$0,%edi
	subl	$1,%edi
	.balign 8,0x90
.Lj782:
	addl	$1,%edi
	movslq	%r12d,%rax
	imulq	$1920,%rax,%rax
	shlq	$2,%rax
	leaq	(%rax,%rbp),%rdx
	movslq	%edi,%rax
	shlq	$2,%rax
	leaq	(%rdx,%rax),%rax
	movl	%ebx,(%rax)
	cmpl	$1919,%edi
	jl	.Lj782
	cmpl	$39,%r12d
	jl	.Lj769
# Var k located in register r12d
.Ll262:
# [690] k:=76800;
	movl	$76800,%r12d
# Var i located in register r13d
.Ll263:
# [691] for i:=40 to 1159 do
	movl	$40,%r13d
	subl	$1,%r13d
	.balign 8,0x90
.Lj789:
	addl	$1,%r13d
.Ll264:
# [693] for j:=0 to 63 do begin if peek($70001)=0 then b:=lpeek($10000+4*((i div 4)+lpeek($60000) ) mod 1024); (pi+k)^:=b; k+=1; end;
	movl	$0,%edi
	subl	$1,%edi
	.balign 8,0x90
.Lj792:
	addl	$1,%edi
	movl	$458753,%ecx
	call	RETRO_$$_PEEK$LONGINT$$BYTE
	testb	%al,%al
	jne	.Lj794
	movslq	%r13d,%rax
# PeepHole Optimization,MovMov2Mov1
	movq	%rax,%r14
	sarq	$63,%rax
	andq	$3,%rax
	addq	%rax,%r14
	sarq	$2,%r14
	movl	$393216,%ecx
	call	RETRO_$$_LPEEK$LONGINT$$LONGWORD
	andl	$4294967295,%eax
	leaq	(%r14,%rax),%rax
	shlq	$2,%rax
	cqto
	movq	$1024,%rcx
	idivq	%rcx
	leaq	65536(%rdx),%rcx
	call	RETRO_$$_LPEEK$LONGINT$$LONGWORD
	movl	%eax,%ebx
.Lj794:
	movslq	%r12d,%rax
	shlq	$2,%rax
	leaq	(%rax,%rbp),%rax
	movl	%ebx,(%rax)
	leal	1(%r12d),%eax
	movl	%eax,%r12d
	cmpl	$63,%edi
	jl	.Lj792
.Ll265:
# [694] for j:=0 to 1791 do begin
	movl	$0,%edi
	subl	$1,%edi
	.balign 8,0x90
.Lj809:
	addl	$1,%edi
.Ll266:
# [695] (pi+k)^:=raml^[$4000+ramw^[buf+l]]; k+=1; l+=1; end;
	movq	U_$RETRO_$$_R1(%rip),%rcx
	movq	U_$RETRO_$$_R1(%rip),%r8
	movslq	%r15d,%rax
	movslq	%esi,%rdx
	leaq	(%rax,%rdx),%rax
	movzwl	(%r8,%rax,2),%r8d
	movslq	%r12d,%rax
	shlq	$2,%rax
	leaq	(%rax,%rbp),%rdx
	movl	65536(%rcx,%r8,4),%eax
	movl	%eax,(%rdx)
	leal	1(%r12d),%eax
	movl	%eax,%r12d
	leal	1(%esi),%eax
	movl	%eax,%esi
.Ll267:
	cmpl	$1791,%edi
	jl	.Lj809
.Ll268:
# [696] for j:=0 to 63 do begin (pi+k)^:=b; k+=1; end;
	movl	$0,%edi
	subl	$1,%edi
	.balign 8,0x90
.Lj818:
	addl	$1,%edi
	movslq	%r12d,%rax
	shlq	$2,%rax
	leaq	(%rax,%rbp),%rax
	movl	%ebx,(%rax)
	leal	1(%r12d),%eax
	movl	%eax,%r12d
	cmpl	$63,%edi
	jl	.Lj818
.Ll269:
	cmpl	$1159,%r13d
	jl	.Lj789
# Var i located in register r12d
.Ll270:
# [698] for i:=1160 to 1199 do begin if peek($70001)=0 then b:=lpeek($10000+4*((i div 4)+lpeek($60000) ) mod 1024); for j:=0 to 1919  do (pi+i*1920+j)^:=b; end;
	movl	$1160,%r12d
	subl	$1,%r12d
	.balign 8,0x90
.Lj825:
	addl	$1,%r12d
	movl	$458753,%ecx
	call	RETRO_$$_PEEK$LONGINT$$BYTE
	testb	%al,%al
	jne	.Lj827
	movslq	%r12d,%rsi
	movq	%rsi,%rax
	sarq	$63,%rax
	andq	$3,%rax
	addq	%rax,%rsi
	sarq	$2,%rsi
	movl	$393216,%ecx
	call	RETRO_$$_LPEEK$LONGINT$$LONGWORD
	andl	$4294967295,%eax
	leaq	(%rsi,%rax),%rax
	shlq	$2,%rax
	cqto
	movq	$1024,%rcx
	idivq	%rcx
	leaq	65536(%rdx),%rcx
	call	RETRO_$$_LPEEK$LONGINT$$LONGWORD
	movl	%eax,%ebx
.Lj827:
	movl	$0,%edi
	subl	$1,%edi
	.balign 8,0x90
.Lj838:
	addl	$1,%edi
	movslq	%r12d,%rax
	imulq	$1920,%rax,%rax
	shlq	$2,%rax
	leaq	(%rax,%rbp),%rdx
	movslq	%edi,%rax
	shlq	$2,%rax
	leaq	(%rdx,%rax),%rax
	movl	%ebx,(%rax)
	cmpl	$1919,%edi
	jl	.Lj838
	cmpl	$1199,%r12d
	jl	.Lj825
.Ll271:
# [700] end;
	nop
	leaq	40(%rsp),%rsp
	popq	%rbp
	popq	%r15
	popq	%r14
	popq	%r13
	popq	%r12
	popq	%rsi
	popq	%rdi
	popq	%rbx
	ret
.seh_endproc
.Lc50:
.Lt4:
.Ll272:

.section .text.n_retro_$$_sprite$pointer,"x"
	.balign 16,0x90
.globl	RETRO_$$_SPRITE$POINTER
RETRO_$$_SPRITE$POINTER:
.Lc52:
# Temps allocated between rsp+32 and rsp+128
.seh_proc RETRO_$$_SPRITE$POINTER
.Ll273:
# [720] begin
	pushq	%rbx
.seh_pushreg %rbx
	pushq	%rdi
.seh_pushreg %rdi
	pushq	%rsi
.seh_pushreg %rsi
	pushq	%r12
.seh_pushreg %r12
	pushq	%r13
.seh_pushreg %r13
	pushq	%r14
.seh_pushreg %r14
	pushq	%r15
.seh_pushreg %r15
	pushq	%rbp
.seh_pushreg %rbp
	leaq	-136(%rsp),%rsp
.Lc54:
.seh_stackalloc 136
# Var screen located in register r15
# Var offset located in register eax
# Var pixel located in register eax
# Var spritebase located in register r14d
# Var spritedefs located in register esi
# Var ctrl1 located in register eax
# Var screenbase located in register rax
# Var pi located in register r13
# Var xpos located in register eax
# Var ypos located in register eax
# Var xzoom located in register eax
# Var yzoom located in register eax
# Var i located in register ebx
# Var j located in register eax
# Var k located in register eax
# Var l located in register eax
# Var m located in register eax
# Var mask located in register ebp
.seh_endprologue
# Var pi located in register r13
.Ll274:
# [721] pi:=screen;
	movq	%rcx,%r15
# Var screen located in register r15
	movq	%r15,%r13
# Var spritebase located in register r14d
.Ll275:
# [722] spritebase:=$60040;
	movl	$393280,%r14d
# Var spritedefs located in register esi
.Ll276:
# [723] spritedefs:=$52000;
	movl	$335872,%esi
.Ll277:
# [724] t:=gettime;
	call	RETRO_$$_GETTIME$$INT64
	movq	%rax,U_$RETRO_$$_T(%rip)
# Var i located in register ebx
.Ll278:
# [725] for i:=0 to 7 do
	movl	$0,%ebx
	subl	$1,%ebx
	.balign 8,0x90
.Lj853:
	addl	$1,%ebx
.Ll279:
# [727] mask:=1 shl (i+24);
	movslq	%ebx,%rax
	leaq	24(%rax),%rax
	movl	$1,%edx
	movl	%eax,%ecx
	movl	%edx,%eax
	movslq	%ecx,%rcx
	shll	%cl,%eax
	movl	%eax,%ebp
.Ll280:
# [728] ctrl1:=lpeek(spritebase);
	movl	%r14d,%ecx
	call	RETRO_$$_LPEEK$LONGINT$$LONGWORD
	movl	%eax,%edx
	movq	%rdx,104(%rsp)
.Ll281:
# [729] spritebase+=4;
	leal	4(%r14d),%eax
	movl	%eax,%r14d
.Ll282:
# [730] ypos:=ctrl1 shr 16;
	movl	104(%rsp),%eax
# PeepHole Optimization,var2
# P=movl
# HP1=shrl
# HP2=movl
# PeepHole Optimization,var2
	shrl	$16,%eax
	movq	%rax,80(%rsp)
.Ll283:
# [731] xpos:=ctrl1 and $FFFF;
	movl	104(%rsp),%eax
	movl	%eax,%edx
	andl	$65535,%edx
	movl	%edx,%eax
	movq	%rax,88(%rsp)
.Ll284:
# [732] ctrl1:=lpeek(spritebase);
	movl	%r14d,%ecx
	call	RETRO_$$_LPEEK$LONGINT$$LONGWORD
	movl	%eax,%edx
	movq	%rdx,104(%rsp)
.Ll285:
# [733] spritebase+=4;
	leal	4(%r14d),%eax
	movl	%eax,%r14d
.Ll286:
# [734] yzoom:=(ctrl1 shr 16) and $7FFF ;
	movl	104(%rsp),%eax
	movl	%eax,%edx
	shrl	$16,%edx
	andl	$32767,%edx
	movl	%edx,%eax
	movq	%rax,72(%rsp)
.Ll287:
# [735] if yzoom>8 then yzoom:=8;
	movl	72(%rsp),%eax
	cmpl	$8,%eax
	jng	.Lj875
	movl	$8,%eax
	movq	%rax,72(%rsp)
.Lj875:
.Ll288:
# [736] if yzoom<1 then yzoom:=1;
	movl	72(%rsp),%eax
	cmpl	$1,%eax
	jnl	.Lj879
	movl	$1,%eax
	movq	%rax,72(%rsp)
.Lj879:
.Ll289:
# [737] xzoom:=ctrl1 and $7FFF ;
	movl	104(%rsp),%eax
	movl	%eax,%edx
	andl	$32767,%edx
	movl	%edx,%eax
	movq	%rax,64(%rsp)
.Ll290:
# [738] if xzoom>8 then xzoom:=8;
	movl	64(%rsp),%eax
	cmpl	$8,%eax
	jng	.Lj885
	movl	$8,%eax
	movq	%rax,64(%rsp)
.Lj885:
.Ll291:
# [739] if xzoom<1 then xzoom:=1;
	movl	64(%rsp),%eax
	cmpl	$1,%eax
	jnl	.Lj889
	movl	$1,%eax
	movq	%rax,64(%rsp)
.Lj889:
.Ll292:
# [740] if (xpos>2048) or (ypos>2048) then
	movl	88(%rsp),%eax
	cmpl	$2048,%eax
	jg	.Lj892
	movl	80(%rsp),%eax
	cmpl	$2048,%eax
	jng	.Lj893
.Lj892:
.Ll293:
# [742] spritedefs+=4096;
	leal	4096(%esi),%eax
	movl	%eax,%esi
.Ll294:
# [743] goto p100;
	jmp	.Lj897
.Lj893:
.Ll295:
# [745] for l:=0 to 31 do
	movl	$0,%eax
	movq	%rax,56(%rsp)
# PeepHole Optimization,var2
# P=movl
# HP1=subl
# HP2=movq
# PeepHole Optimization,var2
	subl	$1,56(%rsp)
	.balign 8,0x90
.Lj900:
# PeepHole Optimization,var2
# P=movl
# HP1=addl
# HP2=movq
# PeepHole Optimization,var2
	addl	$1,56(%rsp)
.Ll296:
# [747] for m:=1 to yzoom do
	movl	72(%rsp),%eax
	movl	%eax,%r12d
	movl	$1,%eax
	movq	%rax,48(%rsp)
	movl	48(%rsp),%eax
	cmpl	%eax,%r12d
	jl	.Lj904
# PeepHole Optimization,var2
# P=movl
# HP1=subl
# HP2=movq
# PeepHole Optimization,var2
	subl	$1,48(%rsp)
	.balign 8,0x90
.Lj905:
# PeepHole Optimization,var2
# P=movl
# HP1=addl
# HP2=movq
# PeepHole Optimization,var2
	addl	$1,48(%rsp)
.Ll297:
# [749] offset:=xpos+1920*(ypos+yzoom*l+m-1);
	movl	56(%rsp),%eax
	movl	%eax,%ecx
	movl	72(%rsp),%eax
	imull	%eax,%ecx
	movl	80(%rsp),%edx
	leal	(%ecx,%edx),%eax
	movl	48(%rsp),%edx
	leal	(%eax,%edx),%eax
	leal	-1(%eax),%eax
	imull	$1920,%eax,%eax
	movl	88(%rsp),%edx
	leal	(%eax,%edx),%ecx
	movl	%ecx,%eax
	movq	%rax,120(%rsp)
.Ll298:
# [750] screenbase:=pi+offset;
	movslq	120(%rsp),%rax
	shlq	$2,%rax
	leaq	(%rax,%r13),%rax
	movq	%rax,96(%rsp)
.Ll299:
# [751] for j:=0 to 31 do
	movl	$0,%eax
	movq	%rax,40(%rsp)
# PeepHole Optimization,var2
# P=movl
# HP1=subl
# HP2=movq
# PeepHole Optimization,var2
	subl	$1,40(%rsp)
	.balign 8,0x90
.Lj912:
# PeepHole Optimization,var2
# P=movl
# HP1=addl
# HP2=movq
# PeepHole Optimization,var2
	addl	$1,40(%rsp)
.Ll300:
# [753] for k:=1 to xzoom do
	movl	64(%rsp),%eax
	movl	%eax,%edi
	movl	$1,%eax
	movq	%rax,32(%rsp)
	movl	32(%rsp),%eax
	cmpl	%eax,%edi
	jl	.Lj916
# PeepHole Optimization,var2
# P=movl
# HP1=subl
# HP2=movq
# PeepHole Optimization,var2
	subl	$1,32(%rsp)
	.balign 8,0x90
.Lj917:
# PeepHole Optimization,var2
# P=movl
# HP1=addl
# HP2=movq
# PeepHole Optimization,var2
	addl	$1,32(%rsp)
.Ll301:
# [755] pixel:=lpeek(spritedefs);
	movl	%esi,%ecx
	call	RETRO_$$_LPEEK$LONGINT$$LONGWORD
	movl	%eax,%edx
	movq	%rdx,112(%rsp)
.Ll302:
# [756] if ((screenbase^ and mask)=0) and (offset<2304000) and (pixel<>0) then screenbase^:=pixel;
	movq	96(%rsp),%rax
	movl	(%rax),%edx
	movl	%ebp,%eax
	andl	%edx,%eax
	testl	%eax,%eax
	jne	.Lj923
	movl	120(%rsp),%eax
	cmpl	$2304000,%eax
	jnl	.Lj923
	movl	112(%rsp),%eax
	testl	%eax,%eax
	je	.Lj923
	movl	112(%rsp),%eax
	movq	96(%rsp),%rdx
	movl	%eax,(%rdx)
.Lj923:
.Ll303:
# [757] screenbase+=1;
	movq	96(%rsp),%rdx
	leaq	4(%rdx),%rax
	movq	%rax,96(%rsp)
.Ll304:
	movl	32(%rsp),%eax
	cmpl	%eax,%edi
	jg	.Lj917
.Lj916:
.Ll305:
# [759] spritedefs+=4;
	leal	4(%esi),%eax
	movl	%eax,%esi
.Ll306:
	movl	40(%rsp),%eax
	cmpl	$31,%eax
	jl	.Lj912
.Ll307:
# [762] end;
	leal	-128(%esi),%eax
.Ll308:
# [761] spritedefs-=128
	movl	%eax,%esi
.Ll309:
	movl	48(%rsp),%eax
	cmpl	%eax,%r12d
	jg	.Lj905
.Lj904:
.Ll310:
# [763] spritedefs+=128;
	leal	128(%esi),%eax
	movl	%eax,%esi
.Ll311:
	movl	56(%rsp),%eax
	cmpl	$31,%eax
	jl	.Lj900
.Lj897:
.Ll312:
	cmpl	$7,%ebx
	jl	.Lj853
.Ll313:
# [767] ts:=gettime-t;
	call	RETRO_$$_GETTIME$$INT64
	movq	U_$RETRO_$$_T(%rip),%rdx
	subq	%rdx,%rax
	movq	%rax,U_$RETRO_$$_TS(%rip)
.Ll314:
# [769] end;
	nop
	leaq	136(%rsp),%rsp
	popq	%rbp
	popq	%r15
	popq	%r14
	popq	%r13
	popq	%r12
	popq	%rsi
	popq	%rdi
	popq	%rbx
	ret
.seh_endproc
.Lc53:
.Lt35:
.Ll315:

.section .text.n_retro_$$_setataripallette$longint,"x"
	.balign 16,0x90
.globl	RETRO_$$_SETATARIPALLETTE$LONGINT
RETRO_$$_SETATARIPALLETTE$LONGINT:
.Lc55:
.seh_proc RETRO_$$_SETATARIPALLETTE$LONGINT
.Ll316:
# [777] begin
	pushq	%rbx
.seh_pushreg %rbx
	pushq	%rsi
.seh_pushreg %rsi
	leaq	-40(%rsp),%rsp
.Lc57:
.seh_stackalloc 40
# Var bank located in register ebx
# Var fh located in register esi
.seh_endprologue
	movl	%ecx,%ebx
.Ll317:
# [778] fh:=fileopen('./ataripalette.def',$40);
	leaq	_$RETRO$_Ld13(%rip),%rcx
	movl	$64,%edx
	call	SYSUTILS_$$_FILEOPEN$RAWBYTESTRING$LONGINT$$QWORD
	movq	%rax,%rsi
# Var fh located in register esi
.Ll318:
# [779] fileread(fh,raml^[$4000+256*bank],1024);
	movq	U_$RETRO_$$_R1(%rip),%rax
	movslq	%ebx,%rbx
	shlq	$8,%rbx
	leaq	65536(%rax,%rbx,4),%rdx
	movslq	%esi,%rcx
	movl	$1024,%r8d
	call	SYSUTILS_$$_FILEREAD$QWORD$formal$LONGINT$$LONGINT
.Ll319:
# [780] fileclose(fh);
	movslq	%esi,%rcx
	call	SYSUTILS_$$_FILECLOSE$QWORD
.Ll320:
# [781] end;
	nop
	leaq	40(%rsp),%rsp
	popq	%rsi
	popq	%rbx
	ret
.seh_endproc
.Lc56:
.Lt5:
.Ll321:

.section .text.n_retro_$$_sethidecolor$longint$longint$longint,"x"
	.balign 16,0x90
.globl	RETRO_$$_SETHIDECOLOR$LONGINT$LONGINT$LONGINT
RETRO_$$_SETHIDECOLOR$LONGINT$LONGINT$LONGINT:
.Lc58:
# Var c located in register eax
# Var bank located in register edx
# Var mask located in register r8d
.Ll322:
# [785] begin
	movl	%ecx,%eax
.Ll323:
# [786] raml^[$4000+256*bank+c]+=(mask shl 24);
	shll	$24,%r8d
	movq	U_$RETRO_$$_R1(%rip),%rcx
	movslq	%edx,%rdx
	shlq	$8,%rdx
	leaq	16384(%rdx),%rdx
	movslq	%eax,%rax
	leaq	(%rdx,%rax),%rax
	movl	(%rcx,%rax,4),%edx
	leal	(%r8d,%edx),%ecx
	movq	U_$RETRO_$$_R1(%rip),%rdx
	movl	%ecx,(%rdx,%rax,4)
.Ll324:
# [787] end;
	ret
.Lc59:
.Lt23:
.Ll325:

.section .text.n_retro_$$_cls$longint,"x"
	.balign 16,0x90
.globl	RETRO_$$_CLS$LONGINT
RETRO_$$_CLS$LONGINT:
.Lc60:
# Var c located in register edx
# Var c2 located in register eax
# Var i located in register r8d
# Var l located in register eax
.Ll326:
# [793] begin
	movl	%ecx,%eax
.Ll327:
# [794] c:=c mod 65535;
	movslq	%eax,%rax
	cqto
	movq	$65535,%rcx
	idivq	%rcx
# Var c located in register edx
.Ll328:
# [796] l:=(raml^[$18008]*raml^[$18009]) div 2 ;
	movq	U_$RETRO_$$_R1(%rip),%rax
	movslq	393248(%rax),%rcx
	movq	U_$RETRO_$$_R1(%rip),%rax
	movslq	393252(%rax),%rax
	imulq	%rcx,%rax
	movq	%rax,%rcx
	sarq	$63,%rcx
	andq	$1,%rcx
	addq	%rcx,%rax
	sarq	$1,%rax
# Var l located in register eax
.Ll329:
# [797] c:=c+(c shl 16);
	movl	%edx,%ecx
	shll	$16,%ecx
	leal	(%ecx,%edx),%edx
# Var c located in register edx
# Var l located in register eax
# Var i located in register r8d
.Ll330:
# [798] for i:=0 to l do raml^[$3C00000+i]:=c;
	movl	$0,%r8d
	cmpl	%r8d,%eax
	jl	.Lj971
	subl	$1,%r8d
	.balign 8,0x90
.Lj972:
	addl	$1,%r8d
	movq	U_$RETRO_$$_R1(%rip),%r9
	movslq	%r8d,%rcx
	movl	%edx,251658240(%r9,%rcx,4)
	cmpl	%r8d,%eax
	jg	.Lj972
.Lj971:
.Ll331:
# [800] end;
	ret
.Lc61:
.Lt6:
.Ll332:

.section .text.n_retro_$$_putpixel$longint$longint$longint,"x"
	.balign 16,0x90
.globl	RETRO_$$_PUTPIXEL$LONGINT$LONGINT$LONGINT
RETRO_$$_PUTPIXEL$LONGINT$LONGINT$LONGINT:
.Lc62:
# Var x located in register ecx
# Var y located in register edx
# Var color located in register r8d
# Var adr located in register eax
# [814] begin
.Ll333:
# [816] if raml^[$18002]<16 then
	movq	U_$RETRO_$$_R1(%rip),%rax
	cmpl	$16,393224(%rax)
	jnl	.Lj978
.Ll334:
# [817] begin adr:=$F000000+x+1792*y; if adr<$FFFFFFF then ramb^[adr]:=color; end
	imull	$1792,%edx,%eax
	leal	251658240(%ecx),%r9d
	leal	(%eax,%r9d),%eax
	cmpl	$268435455,%eax
	jnl	.Lj985
	movq	U_$RETRO_$$_R1(%rip),%r11
# PeepHole Optimization,var2a
	movl	%eax,%r9d
	movb	%r8b,%r10b
	movb	%r10b,(%r11,%r9,1)
	jmp	.Lj985
.Lj978:
.Ll335:
# [818] else if (raml^[$18002]>=16) and (raml^[$18002]<32) then
	movq	U_$RETRO_$$_R1(%rip),%r9
.Ll336:
	movl	393224(%r9),%r9d
.Ll337:
	cmpl	$16,%r9d
	jnge	.Lj987
	cmpl	$32,%r9d
	jnl	.Lj987
.Ll338:
# [819] begin adr:=$7800000+x+1792*y; if adr<$7FFFFFF then ramw^[adr]:=color; end
	imull	$1792,%edx,%r9d
	leal	125829120(%ecx),%r10d
	leal	(%r9d,%r10d),%r9d
	movl	%r9d,%eax
	cmpl	$134217727,%eax
	jnl	.Lj997
	movq	U_$RETRO_$$_R1(%rip),%r11
# PeepHole Optimization,var2a
	movl	%eax,%r9d
	movw	%r8w,%r10w
	movw	%r10w,(%r11,%r9,2)
	jmp	.Lj997
.Lj987:
.Ll339:
# [821] begin adr:=$3c00000+x+1792*y; if adr<$3FFFFFF then raml^[adr]:=color; end;
	imull	$1792,%edx,%r9d
	leal	62914560(%ecx),%edx
	leal	(%r9d,%edx),%edx
	movl	%edx,%eax
	cmpl	$67108863,%eax
	jnl	.Lj1001
	movq	U_$RETRO_$$_R1(%rip),%rdx
	andl	$4294967295,%eax
	movl	%r8d,(%rdx,%rax,4)
.Lj1001:
.Lj997:
.Lj985:
.Ll340:
# [822] end;
	ret
.Lc63:
.Lt7:
.Ll341:

.section .text.n_retro_$$_box$longint$longint$longint$longint$longint,"x"
	.balign 16,0x90
.globl	RETRO_$$_BOX$LONGINT$LONGINT$LONGINT$LONGINT$LONGINT
RETRO_$$_BOX$LONGINT$LONGINT$LONGINT$LONGINT$LONGINT:
.Lc64:
# Temps allocated between rbp-48 and rbp+0
.seh_proc RETRO_$$_BOX$LONGINT$LONGINT$LONGINT$LONGINT$LONGINT
.Ll342:
# [840] begin
	pushq	%rbp
.seh_pushreg %rbp
.Lc66:
.Lc67:
	movq	%rsp,%rbp
.Lc68:
	leaq	-48(%rsp),%rsp
.seh_stackalloc 48
# Var x located in register ecx
# Var y located in register edx
# Var l located in register r8d
# Var h located in register r9d
# Var c located in register r11d
# Var adr located in register ebx
# Var a located in register eax
# Var i located in register edi
# Var j located in register r10d
	movq	%rbx,-48(%rbp)
	movq	%rdi,-40(%rbp)
	movq	%rsi,-32(%rbp)
	movq	%r12,-24(%rbp)
	movq	%r13,-16(%rbp)
	movq	%r14,-8(%rbp)
.seh_savereg %rbx, 0
.seh_savereg %rdi, 8
.seh_savereg %rsi, 16
.seh_savereg %r12, 24
.seh_savereg %r13, 32
.seh_savereg %r14, 40
.seh_endprologue
	movl	48(%rbp),%r11d
.Ll343:
# [842] if x<0 then x:=0;
	cmpl	$0,%ecx
	jnl	.Lj1007
	movl	$0,%ecx
.Lj1007:
.Ll344:
# [843] if x>1792 then x:=1792;
	cmpl	$1792,%ecx
	jng	.Lj1011
	movl	$1792,%ecx
.Lj1011:
.Ll345:
# [844] if y<0 then y:=0;
	cmpl	$0,%edx
	jnl	.Lj1015
	movl	$0,%edx
.Lj1015:
.Ll346:
# [845] if y>1120 then y:=1120;
	cmpl	$1120,%edx
	jng	.Lj1019
	movl	$1120,%edx
.Lj1019:
.Ll347:
# [846] if x+l>1792 then l:=1792-x-1;
	movslq	%ecx,%rax
	movslq	%r8d,%r10
	leaq	(%rax,%r10),%rax
	cmpq	$1792,%rax
	jng	.Lj1023
	movl	$1792,%eax
	subl	%ecx,%eax
	leal	-1(%eax),%eax
	movl	%eax,%r8d
.Lj1023:
.Ll348:
# [847] if y+h>1120 then h:=1120-y-1 ;
	movslq	%edx,%rax
	movslq	%r9d,%r10
	leaq	(%rax,%r10),%rax
	cmpq	$1120,%rax
	jng	.Lj1027
	movl	$1120,%eax
	subl	%edx,%eax
	leal	-1(%eax),%eax
	movl	%eax,%r9d
.Lj1027:
.Ll349:
# [848] if raml^[$18002]<16 then
	movq	U_$RETRO_$$_R1(%rip),%rax
	cmpl	$16,393224(%rax)
	jnl	.Lj1031
.Ll350:
# [850] for j:=y to y+h-1 do
	leal	(%edx,%r9d),%eax
	leal	-1(%eax),%eax
	movl	%edx,%r10d
	cmpl	%r10d,%eax
	jl	.Lj1046
	subl	$1,%r10d
	.balign 8,0x90
.Lj1036:
	addl	$1,%r10d
.Ll351:
# [852] adr:=$F000000+1792*j;
	imull	$1792,%r10d,%esi
	leal	251658240(%esi),%esi
	movl	%esi,%ebx
.Ll352:
# [853] for i:=x to x+l-1 do ramb^[adr+i]:=c;
	leal	(%ecx,%r8d),%esi
	leal	-1(%esi),%esi
	movl	%ecx,%edi
	cmpl	%edi,%esi
	jl	.Lj1042
	subl	$1,%edi
	.balign 8,0x90
.Lj1043:
	addl	$1,%edi
	movq	U_$RETRO_$$_R1(%rip),%r14
	movslq	%ebx,%r12
	movslq	%edi,%r13
	leaq	(%r12,%r13),%r13
	movb	%r11b,%r12b
	movb	%r12b,(%r14,%r13,1)
	cmpl	%edi,%esi
	jg	.Lj1043
.Lj1042:
.Ll353:
	cmpl	%r10d,%eax
	jg	.Lj1036
	jmp	.Lj1046
.Lj1031:
.Ll354:
# [856] else if (raml^[$18002]>=16) and (raml^[$18002]<32) then
	movq	U_$RETRO_$$_R1(%rip),%rax
.Ll355:
	movl	393224(%rax),%eax
.Ll356:
	cmpl	$16,%eax
	jnge	.Lj1048
	cmpl	$32,%eax
	jnl	.Lj1048
.Ll357:
# [858] for j:=y to y+h-1 do
	leal	(%edx,%r9d),%eax
	leal	-1(%eax),%eax
	movl	%edx,%r10d
	cmpl	%r10d,%eax
	jl	.Lj1066
	subl	$1,%r10d
	.balign 8,0x90
.Lj1056:
	addl	$1,%r10d
.Ll358:
# [860] adr:=$7800000+1792*j;
	imull	$1792,%r10d,%esi
	leal	125829120(%esi),%esi
	movl	%esi,%ebx
.Ll359:
# [861] for i:=x to x+l-1 do ramw^[adr+i]:=c;
	leal	(%ecx,%r8d),%esi
	leal	-1(%esi),%esi
	movl	%ecx,%edi
	cmpl	%edi,%esi
	jl	.Lj1062
	subl	$1,%edi
	.balign 8,0x90
.Lj1063:
	addl	$1,%edi
	movq	U_$RETRO_$$_R1(%rip),%r14
	movslq	%ebx,%r12
	movslq	%edi,%r13
	leaq	(%r12,%r13),%r13
	movw	%r11w,%r12w
	movw	%r12w,(%r14,%r13,2)
	cmpl	%edi,%esi
	jg	.Lj1063
.Lj1062:
.Ll360:
	cmpl	%r10d,%eax
	jg	.Lj1056
	jmp	.Lj1066
.Lj1048:
.Ll361:
# [866] for j:=y to y+h-1 do
	leal	(%edx,%r9d),%eax
	leal	-1(%eax),%eax
	movl	%edx,%r10d
	cmpl	%r10d,%eax
	jl	.Lj1070
	subl	$1,%r10d
	.balign 8,0x90
.Lj1071:
	addl	$1,%r10d
.Ll362:
# [868] adr:=$3c00000+1792*j;
	imull	$1792,%r10d,%edx
	leal	62914560(%edx),%edx
	movl	%edx,%ebx
.Ll363:
# [869] for i:=x to x+l-1 do raml^[adr+i]:=c;
	leal	(%ecx,%r8d),%edx
	leal	-1(%edx),%edx
	movl	%ecx,%edi
	cmpl	%edi,%edx
	jl	.Lj1077
	subl	$1,%edi
	.balign 8,0x90
.Lj1078:
	addl	$1,%edi
	movq	U_$RETRO_$$_R1(%rip),%r12
	movslq	%ebx,%r9
	movslq	%edi,%rsi
	leaq	(%r9,%rsi),%r9
	movl	%r11d,(%r12,%r9,4)
	cmpl	%edi,%edx
	jg	.Lj1078
.Lj1077:
.Ll364:
	cmpl	%r10d,%eax
	jg	.Lj1071
.Lj1070:
.Lj1066:
.Lj1046:
.Ll365:
# [872] end;
	movq	-48(%rbp),%rbx
	movq	-40(%rbp),%rdi
	movq	-32(%rbp),%rsi
	movq	-24(%rbp),%r12
	movq	-16(%rbp),%r13
	movq	-8(%rbp),%r14
	leaq	(%rbp),%rsp
	popq	%rbp
	ret
.seh_endproc
.Lc65:
.Lt12:
.Ll366:

.section .text.n_retro_$$_box2$longint$longint$longint$longint$longint,"x"
	.balign 16,0x90
.globl	RETRO_$$_BOX2$LONGINT$LONGINT$LONGINT$LONGINT$LONGINT
RETRO_$$_BOX2$LONGINT$LONGINT$LONGINT$LONGINT$LONGINT:
.Lc69:
.seh_proc RETRO_$$_BOX2$LONGINT$LONGINT$LONGINT$LONGINT$LONGINT
.Ll367:
# [884] begin
	pushq	%rbp
.seh_pushreg %rbp
.Lc71:
.Lc72:
	movq	%rsp,%rbp
.Lc73:
	leaq	-48(%rsp),%rsp
.seh_stackalloc 48
# Var x1 located in register eax
# Var y1 located in register edx
# Var x2 located in register r8d
# Var y2 located in register r9d
# Var color located in register ecx
.seh_endprologue
	movl	%ecx,%eax
	movl	48(%rbp),%ecx
.Ll368:
# [887] if (x1<x2) and (y1<y2) then
	cmpl	%r8d,%eax
	jnl	.Lj1084
	cmpl	%r9d,%edx
	jnl	.Lj1084
.Ll369:
# [888] box(x1,y1,x2-x1+1, y2-y1+1,color);
	movl	%ecx,32(%rsp)
	subl	%edx,%r9d
	leal	1(%r9d),%r9d
	subl	%eax,%r8d
	leal	1(%r8d),%r8d
	movl	%eax,%ecx
	call	RETRO_$$_BOX$LONGINT$LONGINT$LONGINT$LONGINT$LONGINT
.Lj1084:
.Ll370:
# [890] end;
	nop
	leaq	(%rbp),%rsp
	popq	%rbp
	ret
.seh_endproc
.Lc70:
.Lt13:
.Ll371:

.section .text.n_retro_$$_putchar$longint$longint$char$longint,"x"
	.balign 16,0x90
.globl	RETRO_$$_PUTCHAR$LONGINT$LONGINT$CHAR$LONGINT
RETRO_$$_PUTCHAR$LONGINT$LONGINT$CHAR$LONGINT:
.Lc74:
.seh_proc RETRO_$$_PUTCHAR$LONGINT$LONGINT$CHAR$LONGINT
.Ll372:
# [908] begin
	pushq	%rbx
.seh_pushreg %rbx
	pushq	%rdi
.seh_pushreg %rdi
	pushq	%rsi
.seh_pushreg %rsi
	pushq	%r12
.seh_pushreg %r12
	pushq	%r13
.seh_pushreg %r13
	pushq	%r14
.seh_pushreg %r14
	pushq	%r15
.seh_pushreg %r15
	leaq	-32(%rsp),%rsp
.Lc76:
.seh_stackalloc 32
# Var x located in register ebx
# Var y located in register esi
# Var ch located in register r8b
# Var col located in register edi
# Var i located in register r15d
# Var j located in register r14d
# Var start located in register r12d
# Var b located in register r13b
.seh_endprologue
	movl	%ecx,%ebx
	movl	%edx,%esi
	movl	%r9d,%edi
# PeepHole Optimization,var9
.Ll373:
# [909] start:=$50000+16*ord(ch);
	andl	$255,%r8d
	shll	$4,%r8d
	leal	327680(%r8d),%r12d
# Var start located in register r12d
# Var i located in register r15d
.Ll374:
# [910] for i:=0 to 15 do
	movl	$0,%r15d
	subl	$1,%r15d
	.balign 8,0x90
.Lj1102:
	addl	$1,%r15d
.Ll375:
# [912] b:=ramb^[start+i];
	movq	U_$RETRO_$$_R1(%rip),%rcx
	movslq	%r12d,%rax
	movslq	%r15d,%rdx
	leaq	(%rax,%rdx),%rax
	movb	(%rcx,%rax,1),%r13b
.Ll376:
# [913] for j:=0 to 7 do
	movl	$0,%r14d
	subl	$1,%r14d
	.balign 8,0x90
.Lj1107:
	addl	$1,%r14d
.Ll377:
# [915] if (b and (1 shl j))<>0 then
	movslq	%r14d,%rcx
	movl	$1,%eax
	movslq	%ecx,%rcx
	shll	%cl,%eax
	movzbl	%r13b,%edx
	andl	%eax,%edx
	testl	%edx,%edx
	je	.Lj1109
.Ll378:
# [916] putpixel(x+j,y+i,col);
	leal	(%esi,%r15d),%edx
	leal	(%ebx,%r14d),%ecx
	movl	%edi,%r8d
	call	RETRO_$$_PUTPIXEL$LONGINT$LONGINT$LONGINT
.Lj1109:
.Ll379:
	cmpl	$7,%r14d
	jl	.Lj1107
.Ll380:
	cmpl	$15,%r15d
	jl	.Lj1102
.Ll381:
# [919] end;
	nop
	leaq	32(%rsp),%rsp
	popq	%r15
	popq	%r14
	popq	%r13
	popq	%r12
	popq	%rsi
	popq	%rdi
	popq	%rbx
	ret
.seh_endproc
.Lc75:
.Lt8:
.Ll382:

.section .text.n_retro_$$_putcharz$longint$longint$char$longint$longint$longint,"x"
	.balign 16,0x90
.globl	RETRO_$$_PUTCHARZ$LONGINT$LONGINT$CHAR$LONGINT$LONGINT$LONGINT
RETRO_$$_PUTCHARZ$LONGINT$LONGINT$CHAR$LONGINT$LONGINT$LONGINT:
.Lc77:
# Temps allocated between rbp-104 and rbp+0
.seh_proc RETRO_$$_PUTCHARZ$LONGINT$LONGINT$CHAR$LONGINT$LONGINT$LONGINT
.Ll383:
# [928] begin
	pushq	%rbp
.seh_pushreg %rbp
.Lc79:
.Lc80:
	movq	%rsp,%rbp
.Lc81:
	leaq	-144(%rsp),%rsp
.seh_stackalloc 144
# Var x located in register eax
# Var y located in register eax
# Var ch located in register r8b
# Var col located in register eax
# Var xz located in register eax
# Var yz located in register eax
# Var i located in register r14d
# Var j located in register edi
# Var k located in register ebx
# Var l located in register esi
# Var start located in register eax
# Var b located in register r15b
	movq	%rbx,-104(%rbp)
	movq	%rdi,-96(%rbp)
	movq	%rsi,-88(%rbp)
	movq	%r12,-80(%rbp)
	movq	%r13,-72(%rbp)
	movq	%r14,-64(%rbp)
	movq	%r15,-56(%rbp)
.seh_savereg %rbx, 40
.seh_savereg %rdi, 48
.seh_savereg %rsi, 56
.seh_savereg %r12, 64
.seh_savereg %r13, 72
.seh_savereg %r14, 80
.seh_savereg %r15, 88
.seh_endprologue
	movl	%ecx,%eax
	movq	%rax,-48(%rbp)
	movl	%edx,%eax
	movq	%rax,-40(%rbp)
	movl	%r9d,%eax
	movq	%rax,-32(%rbp)
	movl	48(%rbp),%eax
	movq	%rax,-16(%rbp)
	movl	56(%rbp),%eax
	movq	%rax,-24(%rbp)
# PeepHole Optimization,var9
.Ll384:
# [929] start:=$50000+16*ord(ch);
	andl	$255,%r8d
	shll	$4,%r8d
	leal	327680(%r8d),%eax
# Var start located in register eax
	movl	%eax,%edx
	movq	%rdx,-8(%rbp)
# Var i located in register r14d
.Ll385:
# [930] for i:=0 to 15 do
	movl	$0,%r14d
	subl	$1,%r14d
	.balign 8,0x90
.Lj1122:
	addl	$1,%r14d
.Ll386:
# [932] b:=ramb^[start+i];
	movq	U_$RETRO_$$_R1(%rip),%rcx
	movslq	-8(%rbp),%rdx
	movslq	%r14d,%rax
	leaq	(%rdx,%rax),%rax
	movb	(%rcx,%rax,1),%r15b
.Ll387:
# [933] for j:=0 to 7 do
	movl	$0,%edi
	subl	$1,%edi
	.balign 8,0x90
.Lj1127:
	addl	$1,%edi
.Ll388:
# [935] if (b and (1 shl j))<>0 then
	movslq	%edi,%rax
	movl	$1,%edx
	movl	%eax,%ecx
	movslq	%ecx,%rcx
	shll	%cl,%edx
	movzbl	%r15b,%eax
	andl	%edx,%eax
	testl	%eax,%eax
	je	.Lj1129
.Ll389:
# [936] for k:=0 to yz-1 do
	movl	-24(%rbp),%edx
	leal	-1(%edx),%eax
	movl	%eax,%r13d
	movl	$0,%ebx
	cmpl	%ebx,%r13d
	jl	.Lj1133
	subl	$1,%ebx
	.balign 8,0x90
.Lj1134:
	addl	$1,%ebx
.Ll390:
# [937] for l:=0 to xz-1 do
	movl	-16(%rbp),%eax
	leal	-1(%eax),%edx
	movl	%edx,%r12d
	movl	$0,%esi
	cmpl	%esi,%r12d
	jl	.Lj1138
	subl	$1,%esi
	.balign 8,0x90
.Lj1139:
	addl	$1,%esi
.Ll391:
# [938] putpixel(x+j*xz+l,y+i*yz+k,col);
	movl	-24(%rbp),%eax
	movl	%eax,%edx
	imull	%r14d,%edx
	movl	-40(%rbp),%ecx
	leal	(%edx,%ecx),%eax
	leal	(%eax,%ebx),%eax
	movl	%eax,%edx
	movl	-16(%rbp),%eax
	movl	%eax,%r8d
	imull	%edi,%r8d
	movl	-48(%rbp),%ecx
	leal	(%r8d,%ecx),%eax
	leal	(%eax,%esi),%eax
	movl	%eax,%ecx
	movl	-32(%rbp),%eax
	movl	%eax,%r8d
	call	RETRO_$$_PUTPIXEL$LONGINT$LONGINT$LONGINT
.Ll392:
	cmpl	%esi,%r12d
	jg	.Lj1139
.Lj1138:
.Ll393:
	cmpl	%ebx,%r13d
	jg	.Lj1134
.Lj1133:
.Lj1129:
.Ll394:
	cmpl	$7,%edi
	jl	.Lj1127
.Ll395:
	cmpl	$15,%r14d
	jl	.Lj1122
.Ll396:
# [941] end;
	movq	-104(%rbp),%rbx
	movq	-96(%rbp),%rdi
	movq	-88(%rbp),%rsi
	movq	-80(%rbp),%r12
	movq	-72(%rbp),%r13
	movq	-64(%rbp),%r14
	movq	-56(%rbp),%r15
	leaq	(%rbp),%rsp
	popq	%rbp
	ret
.seh_endproc
.Lc78:
.Lt24:
.Ll397:

.section .text.n_retro$_$outtextxy$crc6744c382_$$_fin$0,"x"
	.balign 16,0x90
RETRO$_$OUTTEXTXY$crc6744C382_$$_fin$0:
.Lc82:
.seh_proc RETRO$_$OUTTEXTXY$crc6744C382_$$_fin$0
.Ll398:
# [947] begin
	pushq	%rbp
.seh_pushreg %rbp
.Lc84:
.Lc85:
	movq	%rcx,%rbp
.Lc86:
	leaq	-32(%rsp),%rsp
.seh_stackalloc 32
# Var $parentfp located in register rbp
.seh_endprologue
.Ll399:
	leaq	-8(%rbp),%rcx
	call	fpc_ansistr_decr_ref
	nop
	leaq	32(%rsp),%rsp
	popq	%rbp
	ret
.seh_endproc
.Lc83:
.Lt10:
.Ll400:

.section .text.n_retro_$$_outtextxy$longint$longint$ansistring$longint,"x"
	.balign 16,0x90
.globl	RETRO_$$_OUTTEXTXY$LONGINT$LONGINT$ANSISTRING$LONGINT
RETRO_$$_OUTTEXTXY$LONGINT$LONGINT$ANSISTRING$LONGINT:
.Lc87:
# Temps allocated between rbp-48 and rbp-8
.seh_proc RETRO_$$_OUTTEXTXY$LONGINT$LONGINT$ANSISTRING$LONGINT
.Ll401:
	pushq	%rbp
.seh_pushreg %rbp
.Lc89:
.Lc90:
	movq	%rsp,%rbp
.Lc91:
	leaq	-80(%rsp),%rsp
.seh_stackalloc 80
# Var x located in register ebx
# Var y located in register esi
# Var c located in register edi
# Var i located in register r13d
	movq	%rbx,-48(%rbp)
	movq	%rdi,-40(%rbp)
	movq	%rsi,-32(%rbp)
	movq	%r12,-24(%rbp)
	movq	%r13,-16(%rbp)
.seh_savereg %rbx, 32
.seh_savereg %rdi, 40
.seh_savereg %rsi, 48
.seh_savereg %r12, 56
.seh_savereg %r13, 64
.seh_endprologue
# Var t located at rbp-8, size=OS_64
	movl	%ecx,%ebx
	movl	%edx,%esi
	movq	%r8,-8(%rbp)
	movl	%r9d,%edi
	movq	-8(%rbp),%rcx
	call	fpc_ansistr_incr_ref
.Lj1154:
.Ll402:
# [948] for i:=1 to length(t) do putchar(x+8*i-8,y,t[i],c);
	nop
.Lj1150:
	movq	-8(%rbp),%r12
	testq	%r12,%r12
	je	.Lj1157
	movq	-8(%r12),%r12
.Lj1157:
	movl	$1,%r13d
	cmpl	%r13d,%r12d
	jl	.Lj1159
	subl	$1,%r13d
	.balign 8,0x90
.Lj1160:
	addl	$1,%r13d
	movl	%r13d,%eax
	shll	$3,%eax
	leal	(%eax,%ebx),%eax
	leal	-8(%eax),%ecx
	movq	-8(%rbp),%rdx
	movslq	%r13d,%rax
	movzbl	-1(%rdx,%rax,1),%r8d
	movl	%edi,%r9d
	movl	%esi,%edx
	call	RETRO_$$_PUTCHAR$LONGINT$LONGINT$CHAR$LONGINT
	cmpl	%r13d,%r12d
	jg	.Lj1160
.Lj1159:
.Lj1169:
	nop
.Lj1151:
	movq	%rbp,%rcx
	call	RETRO$_$OUTTEXTXY$crc6744C382_$$_fin$0
.Ll403:
# [949] end;
	movq	-48(%rbp),%rbx
	movq	-40(%rbp),%rdi
	movq	-32(%rbp),%rsi
	movq	-24(%rbp),%r12
	movq	-16(%rbp),%r13
	leaq	(%rbp),%rsp
	popq	%rbp
	ret
.seh_handler __FPC_specific_handler,@unwind
.seh_handlerdata
	.long	1
	.long	0
	.rva	.Lj1150
	.rva	.Lj1151
	.rva	RETRO$_$OUTTEXTXY$crc6744C382_$$_fin$0

.section .text.n_retro_$$_outtextxy$longint$longint$ansistring$longint,"x"
.seh_endproc
.Lc88:
.Lt9:
.Ll404:

.section .text.n_retro$_$outtextxyz$crcca10a6fc_$$_fin$1,"x"
	.balign 16,0x90
RETRO$_$OUTTEXTXYZ$crcCA10A6FC_$$_fin$1:
.Lc92:
.seh_proc RETRO$_$OUTTEXTXYZ$crcCA10A6FC_$$_fin$1
.Ll405:
# [955] begin
	pushq	%rbp
.seh_pushreg %rbp
.Lc94:
.Lc95:
	movq	%rcx,%rbp
.Lc96:
	leaq	-32(%rsp),%rsp
.seh_stackalloc 32
# Var $parentfp located in register rbp
.seh_endprologue
.Ll406:
	leaq	-8(%rbp),%rcx
	call	fpc_ansistr_decr_ref
	nop
	leaq	32(%rsp),%rsp
	popq	%rbp
	ret
.seh_endproc
.Lc93:
.Lt26:
.Ll407:

.section .text.n_retro_$$_outtextxyz$longint$longint$ansistring$longint$longint$longint,"x"
	.balign 16,0x90
.globl	RETRO_$$_OUTTEXTXYZ$LONGINT$LONGINT$ANSISTRING$LONGINT$LONGINT$LONGINT
RETRO_$$_OUTTEXTXYZ$LONGINT$LONGINT$ANSISTRING$LONGINT$LONGINT$LONGINT:
.Lc97:
# Temps allocated between rbp-64 and rbp-8
.seh_proc RETRO_$$_OUTTEXTXYZ$LONGINT$LONGINT$ANSISTRING$LONGINT$LONGINT$LONGINT
.Ll408:
	pushq	%rbp
.seh_pushreg %rbp
.Lc99:
.Lc100:
	movq	%rsp,%rbp
.Lc101:
	leaq	-112(%rsp),%rsp
.seh_stackalloc 112
# Var x located in register r15d
# Var y located in register r14d
# Var c located in register ebx
# Var xz located in register esi
# Var yz located in register edi
# Var i located in register r13d
	movq	%rbx,-64(%rbp)
	movq	%rdi,-56(%rbp)
	movq	%rsi,-48(%rbp)
	movq	%r12,-40(%rbp)
	movq	%r13,-32(%rbp)
	movq	%r14,-24(%rbp)
	movq	%r15,-16(%rbp)
.seh_savereg %rbx, 48
.seh_savereg %rdi, 56
.seh_savereg %rsi, 64
.seh_savereg %r12, 72
.seh_savereg %r13, 80
.seh_savereg %r14, 88
.seh_savereg %r15, 96
.seh_endprologue
# Var t located at rbp-8, size=OS_64
	movl	%ecx,%r15d
	movl	%edx,%r14d
	movq	%r8,-8(%rbp)
	movl	%r9d,%ebx
	movl	48(%rbp),%esi
	movl	56(%rbp),%edi
	movq	-8(%rbp),%rcx
	call	fpc_ansistr_incr_ref
.Lj1180:
.Ll409:
# [956] for i:=0 to length(t)-1 do putcharz(x+8*xz*i,y,t[i+1],c,xz,yz);
	nop
.Lj1176:
	movq	-8(%rbp),%rax
	testq	%rax,%rax
	je	.Lj1183
	movq	-8(%rax),%rax
.Lj1183:
	leaq	-1(%rax),%rax
	movl	%eax,%r12d
	movl	$0,%r13d
	cmpl	%r13d,%r12d
	jl	.Lj1185
	subl	$1,%r13d
	.balign 8,0x90
.Lj1186:
	addl	$1,%r13d
	movl	%edi,40(%rsp)
	movl	%esi,32(%rsp)
	movl	%esi,%eax
	shll	$3,%eax
	movl	%r13d,%edx
	imull	%eax,%edx
	leal	(%edx,%r15d),%ecx
	movq	-8(%rbp),%rdx
	movslq	%r13d,%rax
	leaq	1(%rax),%rax
	movzbl	-1(%rdx,%rax,1),%r8d
	movl	%ebx,%r9d
	movl	%r14d,%edx
	call	RETRO_$$_PUTCHARZ$LONGINT$LONGINT$CHAR$LONGINT$LONGINT$LONGINT
	cmpl	%r13d,%r12d
	jg	.Lj1186
.Lj1185:
.Lj1199:
	nop
.Lj1177:
	movq	%rbp,%rcx
	call	RETRO$_$OUTTEXTXYZ$crcCA10A6FC_$$_fin$1
.Ll410:
# [957] end;
	movq	-64(%rbp),%rbx
	movq	-56(%rbp),%rdi
	movq	-48(%rbp),%rsi
	movq	-40(%rbp),%r12
	movq	-32(%rbp),%r13
	movq	-24(%rbp),%r14
	movq	-16(%rbp),%r15
	leaq	(%rbp),%rsp
	popq	%rbp
	ret
.seh_handler __FPC_specific_handler,@unwind
.seh_handlerdata
	.long	1
	.long	0
	.rva	.Lj1176
	.rva	.Lj1177
	.rva	RETRO$_$OUTTEXTXYZ$crcCA10A6FC_$$_fin$1

.section .text.n_retro_$$_outtextxyz$longint$longint$ansistring$longint$longint$longint,"x"
.seh_endproc
.Lc98:
.Lt25:
.Ll411:

.section .text.n_retro_$$_scrollup,"x"
	.balign 16,0x90
.globl	RETRO_$$_SCROLLUP
RETRO_$$_SCROLLUP:
.Lc102:
# Var i located in register edx
# [963] begin
# Var i located in register edx
.Ll412:
# [964] for i:=0 to 447 do raml^[$3c7a800+i]:=raml^[$3c00000+i];
	movl	$0,%edx
	subl	$1,%edx
	.balign 8,0x90
.Lj1206:
	addl	$1,%edx
	movq	U_$RETRO_$$_R1(%rip),%r8
	movslq	%edx,%rax
	movq	U_$RETRO_$$_R1(%rip),%rcx
	movl	251658240(%rcx,%rax,4),%ecx
	movl	%ecx,253665280(%r8,%rax,4)
	cmpl	$447,%edx
	jl	.Lj1206
# Var i located in register edx
.Ll413:
# [965] for i:=0 to 501760 do raml^[$3C00000+i]:=raml^[$3c001c0+i];
	movl	$0,%edx
	subl	$1,%edx
	.balign 8,0x90
.Lj1213:
	addl	$1,%edx
	movq	U_$RETRO_$$_R1(%rip),%r8
	movslq	%edx,%rax
	movq	U_$RETRO_$$_R1(%rip),%rcx
	movl	251660032(%rcx,%rax,4),%ecx
	movl	%ecx,251658240(%r8,%rax,4)
	cmpl	$501760,%edx
	jl	.Lj1213
.Ll414:
# [966] end;
	ret
.Lc103:
.Lt27:
.Ll415:

.section .text.n_retro_$$_noise1$$byte,"x"
	.balign 16,0x90
.globl	RETRO_$$_NOISE1$$BYTE
RETRO_$$_NOISE1$$BYTE:
.Lc104:
# Var $result located in register al
# Var output located in register eax
# Var b located in register dl
# [985] begin
.Ll416:
# [986] output:= (a and b22) shr 15;
	movl	TC_$RETRO$_$NOISE1$$BYTE_$$_A(%rip),%edx
	movl	TC_$RETRO$_$NOISE1$$BYTE_$$_B22(%rip),%eax
	andl	%edx,%eax
	shrl	$15,%eax
# Var output located in register eax
.Ll417:
# [987] output+= (a and b20) shr 14;
	movl	TC_$RETRO$_$NOISE1$$BYTE_$$_A(%rip),%ecx
	movl	TC_$RETRO$_$NOISE1$$BYTE_$$_B20(%rip),%edx
	andl	%ecx,%edx
	shrl	$14,%edx
	leal	(%edx,%eax),%eax
# Var output located in register eax
.Ll418:
# [988] output+= (a and b16) shr 11;
	movl	TC_$RETRO$_$NOISE1$$BYTE_$$_A(%rip),%ecx
	movl	TC_$RETRO$_$NOISE1$$BYTE_$$_B16(%rip),%edx
	andl	%ecx,%edx
	shrl	$11,%edx
	leal	(%edx,%eax),%eax
# Var output located in register eax
.Ll419:
# [989] output+= (a and b13) shr 9;
	movl	TC_$RETRO$_$NOISE1$$BYTE_$$_A(%rip),%ecx
	movl	TC_$RETRO$_$NOISE1$$BYTE_$$_B13(%rip),%edx
	andl	%ecx,%edx
	shrl	$9,%edx
	leal	(%edx,%eax),%eax
# Var output located in register eax
.Ll420:
# [990] output+= (a and b11) shr 8;
	movl	TC_$RETRO$_$NOISE1$$BYTE_$$_A(%rip),%ecx
	movl	TC_$RETRO$_$NOISE1$$BYTE_$$_B11(%rip),%edx
	andl	%ecx,%edx
	shrl	$8,%edx
	leal	(%edx,%eax),%eax
# Var output located in register eax
.Ll421:
# [991] output+= (a and b07) shr 5;
	movl	TC_$RETRO$_$NOISE1$$BYTE_$$_A(%rip),%ecx
	movl	TC_$RETRO$_$NOISE1$$BYTE_$$_B07(%rip),%edx
	andl	%ecx,%edx
	shrl	$5,%edx
	leal	(%edx,%eax),%eax
# Var output located in register eax
.Ll422:
# [992] output+= (a and b04) shr 3;
	movl	TC_$RETRO$_$NOISE1$$BYTE_$$_A(%rip),%ecx
	movl	TC_$RETRO$_$NOISE1$$BYTE_$$_B04(%rip),%edx
	andl	%ecx,%edx
	shrl	$3,%edx
	leal	(%edx,%eax),%eax
# Var output located in register eax
.Ll423:
# [993] output+= (a and b02) shr 2;
	movl	TC_$RETRO$_$NOISE1$$BYTE_$$_A(%rip),%ecx
	movl	TC_$RETRO$_$NOISE1$$BYTE_$$_B02(%rip),%edx
	andl	%ecx,%edx
	shrl	$2,%edx
	leal	(%edx,%eax),%eax
# Var output located in register eax
.Ll424:
	movl	TC_$RETRO$_$NOISE1$$BYTE_$$_A(%rip),%ecx
.Ll425:
# [995] b:=((a and b22)>0) xor ((a and b17)>0);
	movl	TC_$RETRO$_$NOISE1$$BYTE_$$_B22(%rip),%edx
	andl	%ecx,%edx
	cmpl	$0,%edx
	setab	%r8b
	movl	TC_$RETRO$_$NOISE1$$BYTE_$$_B17(%rip),%edx
	andl	%ecx,%edx
	cmpl	$0,%edx
	setab	%dl
	xorb	%r8b,%dl
# Var b located in register dl
# PeepHole Optimization,var2
# P=movl
# HP1=shll
# HP2=movl
# PeepHole Optimization,var2
.Ll426:
# [996] a:=a shl 1;
	shll	$1,TC_$RETRO$_$NOISE1$$BYTE_$$_A(%rip)
.Ll427:
# [997] if b then a:=a or 1;
	testb	%dl,%dl
	je	.Lj1243
# PeepHole Optimization,var2
# P=movl
# HP1=orl
# HP2=movl
# PeepHole Optimization,var2
	orl	$1,TC_$RETRO$_$NOISE1$$BYTE_$$_A(%rip)
.Lj1243:
# Var $result located in register al
# PeepHole Optimization,var9
.Ll428:
# [999] end;
	andl	$255,%eax
	ret
.Lc105:
.Lt43:
.Ll429:

.section .text.n_retro_$$_noise2$$longword,"x"
	.balign 16,0x90
.globl	RETRO_$$_NOISE2$$LONGWORD
RETRO_$$_NOISE2$$LONGWORD:
.Lc106:
# Var $result located in register eax
# Var output located in register rax
# Var b located in register dl
# [1009] begin
.Ll430:
# [1010] output:= (a and 4194304) shr 15;
	movq	TC_$RETRO$_$NOISE2$$LONGWORD_$$_A(%rip),%rax
	andq	$4194304,%rax
	shrq	$15,%rax
# Var output located in register rax
.Ll431:
# [1011] output+= (a and 1048576) shr 14;
	movq	TC_$RETRO$_$NOISE2$$LONGWORD_$$_A(%rip),%rdx
	andq	$1048576,%rdx
	shrq	$14,%rdx
	leaq	(%rdx,%rax),%rax
# Var output located in register rax
.Ll432:
# [1012] output+= (a and 65536) shr 11;
	movq	TC_$RETRO$_$NOISE2$$LONGWORD_$$_A(%rip),%rdx
	andq	$65536,%rdx
	shrq	$11,%rdx
	leaq	(%rdx,%rax),%rax
# Var output located in register rax
.Ll433:
# [1013] output+= (a and 8192) shr 9;
	movq	TC_$RETRO$_$NOISE2$$LONGWORD_$$_A(%rip),%rdx
	andq	$8192,%rdx
	shrq	$9,%rdx
	leaq	(%rdx,%rax),%rax
# Var output located in register rax
.Ll434:
# [1014] output+= (a and 2048) shr 8;
	movq	TC_$RETRO$_$NOISE2$$LONGWORD_$$_A(%rip),%rdx
	andq	$2048,%rdx
	shrq	$8,%rdx
	leaq	(%rdx,%rax),%rax
# Var output located in register rax
.Ll435:
# [1015] output+= (a and 128) shr 5;
	movq	TC_$RETRO$_$NOISE2$$LONGWORD_$$_A(%rip),%rdx
	andq	$128,%rdx
	shrq	$5,%rdx
	leaq	(%rdx,%rax),%rax
# Var output located in register rax
.Ll436:
# [1016] output+= (a and 16) shr 3;
	movq	TC_$RETRO$_$NOISE2$$LONGWORD_$$_A(%rip),%rdx
	andq	$16,%rdx
	shrq	$3,%rdx
	leaq	(%rdx,%rax),%rax
# Var output located in register rax
.Ll437:
# [1017] output+= (a and 4) shr 2;
	movq	TC_$RETRO$_$NOISE2$$LONGWORD_$$_A(%rip),%rdx
	andq	$4,%rdx
	shrq	$2,%rdx
	leaq	(%rdx,%rax),%rax
# Var output located in register rax
.Ll438:
	movq	TC_$RETRO$_$NOISE2$$LONGWORD_$$_A(%rip),%rcx
.Ll439:
# [1018] b:=((a and 4194304)>0) xor ((a and 131072)>0);
	movq	%rcx,%rdx
	andq	$4194304,%rdx
	cmpq	$0,%rdx
	setgb	%r8b
	andq	$131072,%rcx
	cmpq	$0,%rcx
	setgb	%dl
	xorb	%r8b,%dl
# Var b located in register dl
# PeepHole Optimization,var2
# P=movq
# HP1=shlq
# HP2=movq
# PeepHole Optimization,var2
.Ll440:
# [1019] a:=a shl 1;
	shlq	$1,TC_$RETRO$_$NOISE2$$LONGWORD_$$_A(%rip)
.Ll441:
# [1020] if b then a:=a or 1;
	testb	%dl,%dl
	je	.Lj1273
# PeepHole Optimization,var2
# P=movq
# HP1=orq
# HP2=movq
# PeepHole Optimization,var2
	orq	$1,TC_$RETRO$_$NOISE2$$LONGWORD_$$_A(%rip)
.Lj1273:
# Var $result located in register eax
.Ll442:
# [1022] end;
	ret
.Lc107:
.Lt29:
.Ll443:

.section .text.n_retro_$$_noise3$$longword,"x"
	.balign 16,0x90
.globl	RETRO_$$_NOISE3$$LONGWORD
RETRO_$$_NOISE3$$LONGWORD:
.Lc108:
# Var $result located in register eax
# Var output located in register rax
# Var b located in register dl
# [1040] begin
.Ll444:
# [1041] output:= (a and b22) shr 15;
	movq	TC_$RETRO$_$NOISE3$$LONGWORD_$$_A(%rip),%rdx
	movq	TC_$RETRO$_$NOISE3$$LONGWORD_$$_B22(%rip),%rax
	andq	%rdx,%rax
	shrq	$15,%rax
# Var output located in register rax
.Ll445:
# [1042] output+= (a and b20) shr 14;
	movq	TC_$RETRO$_$NOISE3$$LONGWORD_$$_A(%rip),%rcx
	movq	TC_$RETRO$_$NOISE3$$LONGWORD_$$_B20(%rip),%rdx
	andq	%rcx,%rdx
	shrq	$14,%rdx
	leaq	(%rdx,%rax),%rax
# Var output located in register rax
.Ll446:
# [1043] output+= (a and b16) shr 11;
	movq	TC_$RETRO$_$NOISE3$$LONGWORD_$$_A(%rip),%rcx
	movq	TC_$RETRO$_$NOISE3$$LONGWORD_$$_B16(%rip),%rdx
	andq	%rcx,%rdx
	shrq	$11,%rdx
	leaq	(%rdx,%rax),%rax
# Var output located in register rax
.Ll447:
# [1044] output+= (a and b13) shr 9;
	movq	TC_$RETRO$_$NOISE3$$LONGWORD_$$_A(%rip),%rcx
	movq	TC_$RETRO$_$NOISE3$$LONGWORD_$$_B13(%rip),%rdx
	andq	%rcx,%rdx
	shrq	$9,%rdx
	leaq	(%rdx,%rax),%rax
# Var output located in register rax
.Ll448:
# [1045] output+= (a and b11) shr 8;
	movq	TC_$RETRO$_$NOISE3$$LONGWORD_$$_A(%rip),%rcx
	movq	TC_$RETRO$_$NOISE3$$LONGWORD_$$_B11(%rip),%rdx
	andq	%rcx,%rdx
	shrq	$8,%rdx
	leaq	(%rdx,%rax),%rax
# Var output located in register rax
.Ll449:
# [1046] output+= (a and b07) shr 5;
	movq	TC_$RETRO$_$NOISE3$$LONGWORD_$$_A(%rip),%rcx
	movq	TC_$RETRO$_$NOISE3$$LONGWORD_$$_B07(%rip),%rdx
	andq	%rcx,%rdx
	shrq	$5,%rdx
	leaq	(%rdx,%rax),%rax
# Var output located in register rax
.Ll450:
# [1047] output+= (a and b04) shr 3;
	movq	TC_$RETRO$_$NOISE3$$LONGWORD_$$_A(%rip),%rcx
	movq	TC_$RETRO$_$NOISE3$$LONGWORD_$$_B04(%rip),%rdx
	andq	%rcx,%rdx
	shrq	$3,%rdx
	leaq	(%rdx,%rax),%rax
# Var output located in register rax
.Ll451:
# [1048] output+= (a and b02) shr 2;
	movq	TC_$RETRO$_$NOISE3$$LONGWORD_$$_A(%rip),%rcx
	movq	TC_$RETRO$_$NOISE3$$LONGWORD_$$_B02(%rip),%rdx
	andq	%rcx,%rdx
	shrq	$2,%rdx
	leaq	(%rdx,%rax),%rax
# Var output located in register rax
.Ll452:
	movq	TC_$RETRO$_$NOISE3$$LONGWORD_$$_A(%rip),%rcx
.Ll453:
# [1050] b:=((a and b22)>0) xor ((a and b17)>0);
	movq	TC_$RETRO$_$NOISE3$$LONGWORD_$$_B22(%rip),%rdx
	andq	%rcx,%rdx
	cmpq	$0,%rdx
	setgb	%r8b
	movq	TC_$RETRO$_$NOISE3$$LONGWORD_$$_B17(%rip),%rdx
	andq	%rcx,%rdx
	cmpq	$0,%rdx
	setgb	%dl
	xorb	%r8b,%dl
# Var b located in register dl
# PeepHole Optimization,var2
# P=movq
# HP1=shlq
# HP2=movq
# PeepHole Optimization,var2
.Ll454:
# [1051] a:=a shl 1;
	shlq	$1,TC_$RETRO$_$NOISE3$$LONGWORD_$$_A(%rip)
.Ll455:
# [1052] if b then a:=a or 1;
	testb	%dl,%dl
	je	.Lj1303
# PeepHole Optimization,var2
# P=movq
# HP1=orq
# HP2=movq
# PeepHole Optimization,var2
	orq	$1,TC_$RETRO$_$NOISE3$$LONGWORD_$$_A(%rip)
.Lj1303:
# Var $result located in register eax
.Ll456:
# [1054] end;
	ret
.Lc109:
.Lt30:
.Ll457:

.section .text.n_retro_$$_sid$longint$$tsample,"x"
	.balign 16,0x90
.globl	RETRO_$$_SID$LONGINT$$TSAMPLE
RETRO_$$_SID$LONGINT$$TSAMPLE:
.Lc110:
# Temps allocated between rsp+32 and rsp+88
.seh_proc RETRO_$$_SID$LONGINT$$TSAMPLE
.Ll458:
# [1214] begin
	pushq	%rbx
.seh_pushreg %rbx
	pushq	%rdi
.seh_pushreg %rdi
	pushq	%rsi
.seh_pushreg %rsi
	pushq	%r12
.seh_pushreg %r12
	pushq	%r13
.seh_pushreg %r13
	pushq	%r14
.seh_pushreg %r14
	pushq	%r15
.seh_pushreg %r15
	pushq	%rbp
.seh_pushreg %rbp
	leaq	-88(%rsp),%rsp
.Lc112:
.seh_stackalloc 88
# Var mode located in register edx
# Var $result located in register rax
# Var i located in register eax
# Var sid1 located in register esi
# Var sid1l located in register ebx
# Var ind located in register r15d
# Var st located in register rax
# Var pp1 located in register al
# Var pp2 located in register al
# Var pp3 located in register al
# Var fout located in register xmm0
# Var fout2 located in register xmm0
# Var fout3 located in register xmm0
# Var fi located in register xmm0
# Var fi2 located in register xmm0
# Var fi3 located in register xmm0
# Var wv1a located in register xmm0
# Var wv2a located in register xmm0
# Var wv3a located in register xmm0
# Var wv1ii located in register r14
# Var wv2ii located in register r13
# Var wv3ii located in register r12
# Var fii located in register eax
# Var fi2i located in register ebp
# Var fi3i located in register eax
# Var fouti located in register esi
# Var fout2i located in register ebx
# Var fout3i located in register edi
.seh_endprologue
	movq	%rcx,80(%rsp)
.Ll459:
# [1215] if mode=1 then  // get regs
	cmpl	$1,%edx
	jne	.Lj1311
.Ll460:
# [1218] freq1i:=(31928*(ramb^[$D400]+256*ramb^[$d401])) div 32768;
	movq	U_$RETRO_$$_R1(%rip),%rax
	movzbl	54273(%rax),%edx
	shll	$8,%edx
	movq	U_$RETRO_$$_R1(%rip),%rax
	movzbl	54272(%rax),%eax
	leal	(%edx,%eax),%eax
	imull	$31928,%eax,%eax
	shrl	$15,%eax
# PeepHole Optimization,MovMov2Mov1
	movl	%eax,TC_$RETRO$_$SID$LONGINT$$TSAMPLE_$$_FREQ1I(%rip)
.Ll461:
# [1219] freq1ni:=freq1i*16;
	shll	$4,%eax
	movl	%eax,TC_$RETRO$_$SID$LONGINT$$TSAMPLE_$$_FREQ1NI(%rip)
.Ll462:
# [1220] freq2i:=(31928*(ramb^[$d407]+256*ramb^[$d408])) div 32768;
	movq	U_$RETRO_$$_R1(%rip),%rax
	movzbl	54280(%rax),%edx
	shll	$8,%edx
	movq	U_$RETRO_$$_R1(%rip),%rax
	movzbl	54279(%rax),%eax
	leal	(%edx,%eax),%eax
	imull	$31928,%eax,%eax
	shrl	$15,%eax
# PeepHole Optimization,MovMov2Mov1
	movl	%eax,TC_$RETRO$_$SID$LONGINT$$TSAMPLE_$$_FREQ2I(%rip)
.Ll463:
# [1221] freq2ni:=freq2i*16;
	shll	$4,%eax
	movl	%eax,TC_$RETRO$_$SID$LONGINT$$TSAMPLE_$$_FREQ2NI(%rip)
.Ll464:
# [1222] freq3i:=(31928*(ramb^[$d40e]+256*ramb^[$d40f])) div 32768;
	movq	U_$RETRO_$$_R1(%rip),%rax
	movzbl	54287(%rax),%eax
	shll	$8,%eax
	movq	U_$RETRO_$$_R1(%rip),%rdx
	movzbl	54286(%rdx),%edx
	leal	(%eax,%edx),%eax
	imull	$31928,%eax,%eax
	shrl	$15,%eax
# PeepHole Optimization,MovMov2Mov1
	movl	%eax,TC_$RETRO$_$SID$LONGINT$$TSAMPLE_$$_FREQ3I(%rip)
.Ll465:
# [1223] freq3ni:=freq3i*16;
	shll	$4,%eax
	movl	%eax,TC_$RETRO$_$SID$LONGINT$$TSAMPLE_$$_FREQ3NI(%rip)
.Ll466:
# [1225] gate1:=ramb^[$d404] and 1;
	movq	U_$RETRO_$$_R1(%rip),%rax
# PeepHole Optimization,var15
	movw	54276(%rax),%ax
	andw	$1,%ax
	movb	%al,TC_$RETRO$_$SID$LONGINT$$TSAMPLE_$$_GATE1(%rip)
.Ll467:
# [1226] ring1:=ramb^[$d404] and 4;
	movq	U_$RETRO_$$_R1(%rip),%rax
# PeepHole Optimization,var15
	movw	54276(%rax),%ax
	andw	$4,%ax
	movb	%al,TC_$RETRO$_$SID$LONGINT$$TSAMPLE_$$_RING1(%rip)
.Ll468:
# [1227] test1:=ramb^[$d404] and 8;
	movq	U_$RETRO_$$_R1(%rip),%rax
# PeepHole Optimization,var15
	movw	54276(%rax),%ax
	andw	$8,%ax
	movb	%al,TC_$RETRO$_$SID$LONGINT$$TSAMPLE_$$_TEST1(%rip)
.Ll469:
# [1228] sync1:=((ramb^[$d404] and 2) shr 1)-1;
	movq	U_$RETRO_$$_R1(%rip),%rax
# PeepHole Optimization,var15
	movw	54276(%rax),%ax
	andw	$2,%ax
	movswl	%ax,%eax
	shrl	$1,%eax
	leal	-1(%eax),%eax
	movl	%eax,TC_$RETRO$_$SID$LONGINT$$TSAMPLE_$$_SYNC1(%rip)
.Ll470:
# [1229] sd1:=ramb^[$d405] and  $F;
	movq	U_$RETRO_$$_R1(%rip),%rax
# PeepHole Optimization,var15
	movw	54277(%rax),%ax
	andw	$15,%ax
	movb	%al,TC_$RETRO$_$SID$LONGINT$$TSAMPLE_$$_SD1(%rip)
.Ll471:
# [1230] sa1:=ramb^[$d405] shr 4;
	movq	U_$RETRO_$$_R1(%rip),%rax
	movzbl	54277(%rax),%eax
	shrl	$4,%eax
	movb	%al,TC_$RETRO$_$SID$LONGINT$$TSAMPLE_$$_SA1(%rip)
.Ll472:
# [1231] sr1:=ramb^[$d406]and $F;
	movq	U_$RETRO_$$_R1(%rip),%rax
# PeepHole Optimization,var15
	movw	54278(%rax),%ax
	andw	$15,%ax
	movb	%al,TC_$RETRO$_$SID$LONGINT$$TSAMPLE_$$_SR1(%rip)
.Ll473:
# [1232] ss1:=ramb^[$d406] shr 4;
	movq	U_$RETRO_$$_R1(%rip),%rax
	movzbl	54278(%rax),%eax
	shrl	$4,%eax
	movb	%al,TC_$RETRO$_$SID$LONGINT$$TSAMPLE_$$_SS1(%rip)
.Ll474:
# [1233] pw1i:=((ramb^[$d402]+256*ramb^[$d403]) and $FFF);
	movq	U_$RETRO_$$_R1(%rip),%rax
	movzbl	54275(%rax),%edx
	shll	$8,%edx
	movq	U_$RETRO_$$_R1(%rip),%rax
	movzbl	54274(%rax),%eax
	leal	(%edx,%eax),%eax
	andl	$4095,%eax
	movl	%eax,TC_$RETRO$_$SID$LONGINT$$TSAMPLE_$$_PW1I(%rip)
.Ll475:
# [1235] gate2:=ramb^[$d40b] and 1;
	movq	U_$RETRO_$$_R1(%rip),%rax
# PeepHole Optimization,var15
	movw	54283(%rax),%ax
	andw	$1,%ax
	movb	%al,TC_$RETRO$_$SID$LONGINT$$TSAMPLE_$$_GATE2(%rip)
.Ll476:
# [1236] ring2:=ramb^[$d40b] and 4;
	movq	U_$RETRO_$$_R1(%rip),%rax
# PeepHole Optimization,var15
	movw	54283(%rax),%ax
	andw	$4,%ax
	movb	%al,TC_$RETRO$_$SID$LONGINT$$TSAMPLE_$$_RING2(%rip)
.Ll477:
# [1237] test2:=ramb^[$d40b] and 8;
	movq	U_$RETRO_$$_R1(%rip),%rax
# PeepHole Optimization,var15
	movw	54283(%rax),%ax
	andw	$8,%ax
	movb	%al,TC_$RETRO$_$SID$LONGINT$$TSAMPLE_$$_TEST2(%rip)
.Ll478:
# [1238] sync2:=((ramb^[$d40b] and 2) shr 1)-1;
	movq	U_$RETRO_$$_R1(%rip),%rax
# PeepHole Optimization,var15
	movw	54283(%rax),%ax
	andw	$2,%ax
	movswl	%ax,%eax
	shrl	$1,%eax
	leal	-1(%eax),%eax
	movl	%eax,TC_$RETRO$_$SID$LONGINT$$TSAMPLE_$$_SYNC2(%rip)
.Ll479:
# [1239] sd2:=ramb^[$d40c] and  $F;
	movq	U_$RETRO_$$_R1(%rip),%rax
# PeepHole Optimization,var15
	movw	54284(%rax),%ax
	andw	$15,%ax
	movb	%al,TC_$RETRO$_$SID$LONGINT$$TSAMPLE_$$_SD2(%rip)
.Ll480:
# [1240] sa2:=ramb^[$d40c] shr 4;
	movq	U_$RETRO_$$_R1(%rip),%rax
	movzbl	54284(%rax),%eax
	shrl	$4,%eax
	movb	%al,TC_$RETRO$_$SID$LONGINT$$TSAMPLE_$$_SA2(%rip)
.Ll481:
# [1241] sr2:=ramb^[$d40d]and $F;
	movq	U_$RETRO_$$_R1(%rip),%rax
# PeepHole Optimization,var15
	movw	54285(%rax),%ax
	andw	$15,%ax
	movb	%al,TC_$RETRO$_$SID$LONGINT$$TSAMPLE_$$_SR2(%rip)
.Ll482:
# [1242] ss2:=ramb^[$d40d] shr 4;
	movq	U_$RETRO_$$_R1(%rip),%rax
	movzbl	54285(%rax),%eax
	shrl	$4,%eax
	movb	%al,TC_$RETRO$_$SID$LONGINT$$TSAMPLE_$$_SS2(%rip)
.Ll483:
# [1243] pw2i:=((ramb^[$d409]+256*ramb^[$d40a]) and $FFF);
	movq	U_$RETRO_$$_R1(%rip),%rax
	movzbl	54282(%rax),%edx
	shll	$8,%edx
	movq	U_$RETRO_$$_R1(%rip),%rax
	movzbl	54281(%rax),%eax
	leal	(%edx,%eax),%eax
	andl	$4095,%eax
	movl	%eax,TC_$RETRO$_$SID$LONGINT$$TSAMPLE_$$_PW2I(%rip)
.Ll484:
# [1245] gate3:=ramb^[$d412] and 1;
	movq	U_$RETRO_$$_R1(%rip),%rax
# PeepHole Optimization,var15
	movw	54290(%rax),%ax
	andw	$1,%ax
	movb	%al,TC_$RETRO$_$SID$LONGINT$$TSAMPLE_$$_GATE3(%rip)
.Ll485:
# [1246] ring3:=ramb^[$d412] and 4;
	movq	U_$RETRO_$$_R1(%rip),%rax
# PeepHole Optimization,var15
	movw	54290(%rax),%ax
	andw	$4,%ax
	movb	%al,TC_$RETRO$_$SID$LONGINT$$TSAMPLE_$$_RING3(%rip)
.Ll486:
# [1247] test3:=ramb^[$d412] and 8;
	movq	U_$RETRO_$$_R1(%rip),%rax
# PeepHole Optimization,var15
	movw	54290(%rax),%ax
	andw	$8,%ax
	movb	%al,TC_$RETRO$_$SID$LONGINT$$TSAMPLE_$$_TEST3(%rip)
.Ll487:
# [1248] sync3:=((ramb^[$d412] and 2) shr 1)-1;
	movq	U_$RETRO_$$_R1(%rip),%rax
# PeepHole Optimization,var15
	movw	54290(%rax),%ax
	andw	$2,%ax
	movswl	%ax,%eax
	shrl	$1,%eax
	leal	-1(%eax),%eax
	movl	%eax,TC_$RETRO$_$SID$LONGINT$$TSAMPLE_$$_SYNC3(%rip)
.Ll488:
# [1249] sd3:=ramb^[$d413] and  $F;
	movq	U_$RETRO_$$_R1(%rip),%rax
# PeepHole Optimization,var15
	movw	54291(%rax),%ax
	andw	$15,%ax
	movb	%al,TC_$RETRO$_$SID$LONGINT$$TSAMPLE_$$_SD3(%rip)
.Ll489:
# [1250] sa3:=ramb^[$d413] shr 4;
	movq	U_$RETRO_$$_R1(%rip),%rax
	movzbl	54291(%rax),%eax
	shrl	$4,%eax
	movb	%al,TC_$RETRO$_$SID$LONGINT$$TSAMPLE_$$_SA3(%rip)
.Ll490:
# [1251] sr3:=ramb^[$d414]and $F;
	movq	U_$RETRO_$$_R1(%rip),%rax
# PeepHole Optimization,var15
	movw	54292(%rax),%ax
	andw	$15,%ax
	movb	%al,TC_$RETRO$_$SID$LONGINT$$TSAMPLE_$$_SR3(%rip)
.Ll491:
# [1252] ss3:=ramb^[$d414] shr 4;
	movq	U_$RETRO_$$_R1(%rip),%rax
	movzbl	54292(%rax),%eax
	shrl	$4,%eax
	movb	%al,TC_$RETRO$_$SID$LONGINT$$TSAMPLE_$$_SS3(%rip)
.Ll492:
# [1253] pw3i:=((ramb^[$d410]+256*ramb^[$d411]) and $FFF);
	movq	U_$RETRO_$$_R1(%rip),%rax
	movzbl	54289(%rax),%edx
	shll	$8,%edx
	movq	U_$RETRO_$$_R1(%rip),%rax
	movzbl	54288(%rax),%eax
	leal	(%edx,%eax),%eax
	andl	$4095,%eax
	movl	%eax,TC_$RETRO$_$SID$LONGINT$$TSAMPLE_$$_PW3I(%rip)
.Ll493:
# [1255] ff:=(ramb^[$d416] shl 3)+(ramb^[$d415] and 7);
	movq	U_$RETRO_$$_R1(%rip),%rax
# PeepHole Optimization,var15
	movw	54293(%rax),%ax
	andw	$7,%ax
	movswl	%ax,%eax
	movq	U_$RETRO_$$_R1(%rip),%rdx
	movzbl	54294(%rdx),%edx
	shll	$3,%edx
	leal	(%eax,%edx),%eax
# PeepHole Optimization,MovMov2MovMov1
	movw	%ax,TC_$RETRO$_$SID$LONGINT$$TSAMPLE_$$_FF(%rip)
.Ll494:
	movw	%ax,%dx
.Ll495:
# [1256] filter_freqi:=(ff+(ff shl 2)+30) shr 2;
	movzwl	%dx,%eax
	shll	$2,%eax
	andl	$4294967295,%eax
# PeepHole Optimization,var11
	andl	$65535,%edx
	leaq	(%rax,%rdx),%rax
	leaq	30(%rax),%rax
	shrq	$2,%rax
	movl	%eax,TC_$RETRO$_$SID$LONGINT$$TSAMPLE_$$_FILTER_FREQI(%rip)
.Ll496:
# [1257] if (ramb^[$d417] and 1)>0 then f1:=true else f1:=false;
	movq	U_$RETRO_$$_R1(%rip),%rax
# PeepHole Optimization,var15
	movw	54295(%rax),%ax
	andw	$1,%ax
	cmpw	$0,%ax
	jng	.Lj1385
	movb	$1,TC_$RETRO$_$SID$LONGINT$$TSAMPLE_$$_F1(%rip)
	jmp	.Lj1388
.Lj1385:
	movb	$0,TC_$RETRO$_$SID$LONGINT$$TSAMPLE_$$_F1(%rip)
.Lj1388:
.Ll497:
# [1258] if (ramb^[$d417]  and 2)>0 then f2:=true else f2:=false;
	movq	U_$RETRO_$$_R1(%rip),%rax
# PeepHole Optimization,var15
	movw	54295(%rax),%ax
	andw	$2,%ax
	cmpw	$0,%ax
	jng	.Lj1392
	movb	$1,TC_$RETRO$_$SID$LONGINT$$TSAMPLE_$$_F2(%rip)
	jmp	.Lj1395
.Lj1392:
	movb	$0,TC_$RETRO$_$SID$LONGINT$$TSAMPLE_$$_F2(%rip)
.Lj1395:
.Ll498:
# [1259] if (ramb^[$d417]  and 4)>0 then f3:=true else f3:=false;
	movq	U_$RETRO_$$_R1(%rip),%rax
# PeepHole Optimization,var15
	movw	54295(%rax),%ax
	andw	$4,%ax
	cmpw	$0,%ax
	jng	.Lj1399
	movb	$1,TC_$RETRO$_$SID$LONGINT$$TSAMPLE_$$_F3(%rip)
	jmp	.Lj1402
.Lj1399:
	movb	$0,TC_$RETRO$_$SID$LONGINT$$TSAMPLE_$$_F3(%rip)
.Lj1402:
.Ll499:
# [1260] fl:=-(ramb^[$d418] and $10) shr 4;
	movq	U_$RETRO_$$_R1(%rip),%rax
# PeepHole Optimization,var15
	movw	54296(%rax),%ax
	andw	$16,%ax
	movswq	%ax,%rax
	negq	%rax
	shrq	$4,%rax
	movl	%eax,TC_$RETRO$_$SID$LONGINT$$TSAMPLE_$$_FL(%rip)
.Ll500:
# [1261] fb:=-(ramb^[$d418] and $20) shr 5;
	movq	U_$RETRO_$$_R1(%rip),%rax
# PeepHole Optimization,var15
	movw	54296(%rax),%ax
	andw	$32,%ax
	movswq	%ax,%rax
	negq	%rax
	shrq	$5,%rax
	movl	%eax,TC_$RETRO$_$SID$LONGINT$$TSAMPLE_$$_FB(%rip)
.Ll501:
# [1262] fu:=-(ramb^[$d418] and $40) shr 6;
	movq	U_$RETRO_$$_R1(%rip),%rax
# PeepHole Optimization,var15
	movw	54296(%rax),%ax
	andw	$64,%ax
	movswq	%ax,%rax
	negq	%rax
	shrq	$6,%rax
	movl	%eax,TC_$RETRO$_$SID$LONGINT$$TSAMPLE_$$_FU(%rip)
.Ll502:
# [1263] filter_resonance2i:=round(256*(0.5+(0.5/(1+(peek($d416) shr 4)))));
	movl	$54294,%ecx
	call	RETRO_$$_PEEK$LONGINT$$BYTE
# PeepHole Optimization,var9
	andl	$255,%eax
	shrl	$4,%eax
	andl	$4294967295,%eax
	leaq	1(%rax),%rax
	cvtsi2ss	%rax,%xmm1
	movss	_$RETRO$_Ld15(%rip),%xmm0
	divss	%xmm1,%xmm0
	addss	_$RETRO$_Ld15(%rip),%xmm0
	mulss	_$RETRO$_Ld14(%rip),%xmm0
	cvtss2sd	%xmm0,%xmm0
	cvtsd2siq	%xmm0,%rax
	movl	%eax,TC_$RETRO$_$SID$LONGINT$$TSAMPLE_$$_FILTER_RESONANCE2I(%rip)
.Ll503:
# [1264] volume:=(peek($d418) and 15);
	movl	$54296,%ecx
	call	RETRO_$$_PEEK$LONGINT$$BYTE
# PeepHole Optimization,var7
# PeepHole Optimization,var1
	andw	$15,%ax
	movswl	%ax,%eax
	movl	%eax,TC_$RETRO$_$SID$LONGINT$$TSAMPLE_$$_VOLUME(%rip)
.Ll504:
# [1266] waveform1:=ramb^[$d404] shr 4;
	movq	U_$RETRO_$$_R1(%rip),%rax
	movzbl	54276(%rax),%eax
	shrl	$4,%eax
	movw	%ax,TC_$RETRO$_$SID$LONGINT$$TSAMPLE_$$_WAVEFORM1(%rip)
.Ll505:
# [1267] waveform2:=ramb^[$d40b] shr 4;
	movq	U_$RETRO_$$_R1(%rip),%rax
	movzbl	54283(%rax),%eax
	shrl	$4,%eax
	movw	%ax,TC_$RETRO$_$SID$LONGINT$$TSAMPLE_$$_WAVEFORM2(%rip)
.Ll506:
# [1268] waveform3:=ramb^[$d412] shr 4;
	movq	U_$RETRO_$$_R1(%rip),%rax
	movzbl	54290(%rax),%eax
	shrl	$4,%eax
	movw	%ax,TC_$RETRO$_$SID$LONGINT$$TSAMPLE_$$_WAVEFORM3(%rip)
.Ll507:
# [1270] sustainvol1i:=ss1 shl 26;
	movzbl	TC_$RETRO$_$SID$LONGINT$$TSAMPLE_$$_SS1(%rip),%eax
	shll	$26,%eax
	andl	$4294967295,%eax
	movq	%rax,TC_$RETRO$_$SID$LONGINT$$TSAMPLE_$$_SUSTAINVOL1I(%rip)
.Ll508:
# [1271] sustainvol2i:=ss2 shl 26;
	movzbl	TC_$RETRO$_$SID$LONGINT$$TSAMPLE_$$_SS2(%rip),%eax
	shll	$26,%eax
	andl	$4294967295,%eax
	movq	%rax,TC_$RETRO$_$SID$LONGINT$$TSAMPLE_$$_SUSTAINVOL2I(%rip)
.Ll509:
# [1272] sustainvol3i:=ss3 shl 26;
	movzbl	TC_$RETRO$_$SID$LONGINT$$TSAMPLE_$$_SS3(%rip),%eax
	shll	$26,%eax
	andl	$4294967295,%eax
	movq	%rax,TC_$RETRO$_$SID$LONGINT$$TSAMPLE_$$_SUSTAINVOL3I(%rip)
.Lj1311:
.Ll510:
# [1275] sli:=0; sri:=0;
	movl	$0,TC_$RETRO$_$SID$LONGINT$$TSAMPLE_$$_SLI(%rip)
	movl	$0,TC_$RETRO$_$SID$LONGINT$$TSAMPLE_$$_SRI(%rip)
# Var i located in register eax
.Ll511:
# [1277] for i:=1 to 5 do
	movl	$1,%eax
	movq	%rax,72(%rsp)
# PeepHole Optimization,var2
# P=movl
# HP1=subl
# HP2=movq
# PeepHole Optimization,var2
	subl	$1,72(%rsp)
	.balign 8,0x90
.Lj1437:
# PeepHole Optimization,var2
# P=movl
# HP1=addl
# HP2=movq
# PeepHole Optimization,var2
	addl	$1,72(%rsp)
.Ll512:
# [1280] pa1i:=pa1i+freq1i;
	movl	TC_$RETRO$_$SID$LONGINT$$TSAMPLE_$$_PA1I(%rip),%eax
	movl	TC_$RETRO$_$SID$LONGINT$$TSAMPLE_$$_FREQ1I(%rip),%edx
	leal	(%eax,%edx),%eax
	movl	%eax,TC_$RETRO$_$SID$LONGINT$$TSAMPLE_$$_PA1I(%rip)
.Ll513:
# [1281] pa1ni:=pa1ni+freq1ni;
	movl	TC_$RETRO$_$SID$LONGINT$$TSAMPLE_$$_PA1NI(%rip),%edx
	movl	TC_$RETRO$_$SID$LONGINT$$TSAMPLE_$$_FREQ1NI(%rip),%eax
	leal	(%edx,%eax),%eax
	movl	%eax,TC_$RETRO$_$SID$LONGINT$$TSAMPLE_$$_PA1NI(%rip)
.Ll514:
# [1282] if pa1i>16777216 then
	cmpl	$16777216,TC_$RETRO$_$SID$LONGINT$$TSAMPLE_$$_PA1I(%rip)
	jng	.Lj1443
.Ll515:
# [1284] pa2i:=pa2i and sync2;
	movl	TC_$RETRO$_$SID$LONGINT$$TSAMPLE_$$_PA2I(%rip),%edx
	movl	TC_$RETRO$_$SID$LONGINT$$TSAMPLE_$$_SYNC2(%rip),%eax
	andl	%edx,%eax
	movl	%eax,TC_$RETRO$_$SID$LONGINT$$TSAMPLE_$$_PA2I(%rip)
.Ll516:
# [1285] pa1i-=16777216;
	movl	TC_$RETRO$_$SID$LONGINT$$TSAMPLE_$$_PA1I(%rip),%eax
	leal	-16777216(%eax),%eax
	movl	%eax,TC_$RETRO$_$SID$LONGINT$$TSAMPLE_$$_PA1I(%rip)
.Lj1443:
.Ll517:
# [1287] if pa1ni>=16777216 then
	cmpl	$16777216,TC_$RETRO$_$SID$LONGINT$$TSAMPLE_$$_PA1NI(%rip)
	jnge	.Lj1449
.Ll518:
# [1289] pa1ni-=16777216;
	movl	TC_$RETRO$_$SID$LONGINT$$TSAMPLE_$$_PA1NI(%rip),%eax
	leal	-16777216(%eax),%eax
	movl	%eax,TC_$RETRO$_$SID$LONGINT$$TSAMPLE_$$_PA1NI(%rip)
.Ll519:
# [1290] pp1:=1;
	movb	$1,64(%rsp)
	jmp	.Lj1454
.Lj1449:
.Ll520:
# [1292] else pp1:=0;
	movb	$0,64(%rsp)
.Lj1454:
.Ll521:
# [1294] pa2i:=pa2i+freq2i;
	movl	TC_$RETRO$_$SID$LONGINT$$TSAMPLE_$$_PA2I(%rip),%edx
	movl	TC_$RETRO$_$SID$LONGINT$$TSAMPLE_$$_FREQ2I(%rip),%eax
	leal	(%edx,%eax),%eax
	movl	%eax,TC_$RETRO$_$SID$LONGINT$$TSAMPLE_$$_PA2I(%rip)
.Ll522:
# [1295] pa2ni:=pa2ni+freq2ni;
	movl	TC_$RETRO$_$SID$LONGINT$$TSAMPLE_$$_PA2NI(%rip),%eax
	movl	TC_$RETRO$_$SID$LONGINT$$TSAMPLE_$$_FREQ2NI(%rip),%edx
	leal	(%eax,%edx),%eax
	movl	%eax,TC_$RETRO$_$SID$LONGINT$$TSAMPLE_$$_PA2NI(%rip)
.Ll523:
# [1296] if pa2i>16777216 then
	cmpl	$16777216,TC_$RETRO$_$SID$LONGINT$$TSAMPLE_$$_PA2I(%rip)
	jng	.Lj1462
.Ll524:
# [1298] pa2i-=16777216;
	movl	TC_$RETRO$_$SID$LONGINT$$TSAMPLE_$$_PA2I(%rip),%eax
	leal	-16777216(%eax),%eax
	movl	%eax,TC_$RETRO$_$SID$LONGINT$$TSAMPLE_$$_PA2I(%rip)
.Ll525:
# [1299] pa3i:=pa3i and sync3;
	movl	TC_$RETRO$_$SID$LONGINT$$TSAMPLE_$$_PA3I(%rip),%edx
	movl	TC_$RETRO$_$SID$LONGINT$$TSAMPLE_$$_SYNC3(%rip),%eax
	andl	%edx,%eax
	movl	%eax,TC_$RETRO$_$SID$LONGINT$$TSAMPLE_$$_PA3I(%rip)
.Lj1462:
.Ll526:
# [1301] if pa2ni>=16777216 then
	cmpl	$16777216,TC_$RETRO$_$SID$LONGINT$$TSAMPLE_$$_PA2NI(%rip)
	jnge	.Lj1468
.Ll527:
# [1303] pa2ni-=16777216;
	movl	TC_$RETRO$_$SID$LONGINT$$TSAMPLE_$$_PA2NI(%rip),%eax
	leal	-16777216(%eax),%eax
	movl	%eax,TC_$RETRO$_$SID$LONGINT$$TSAMPLE_$$_PA2NI(%rip)
.Ll528:
# [1304] pp2:=1;
	movb	$1,56(%rsp)
	jmp	.Lj1473
.Lj1468:
.Ll529:
# [1306] else pp2:=0;
	movb	$0,56(%rsp)
.Lj1473:
.Ll530:
# [1308] pa3i:=pa3i+freq3i;
	movl	TC_$RETRO$_$SID$LONGINT$$TSAMPLE_$$_PA3I(%rip),%eax
	movl	TC_$RETRO$_$SID$LONGINT$$TSAMPLE_$$_FREQ3I(%rip),%edx
	leal	(%eax,%edx),%eax
	movl	%eax,TC_$RETRO$_$SID$LONGINT$$TSAMPLE_$$_PA3I(%rip)
.Ll531:
# [1309] pa3ni:=pa3ni+freq3ni;
	movl	TC_$RETRO$_$SID$LONGINT$$TSAMPLE_$$_PA3NI(%rip),%edx
	movl	TC_$RETRO$_$SID$LONGINT$$TSAMPLE_$$_FREQ3NI(%rip),%eax
	leal	(%edx,%eax),%eax
	movl	%eax,TC_$RETRO$_$SID$LONGINT$$TSAMPLE_$$_PA3NI(%rip)
.Ll532:
# [1310] if pa3i>16777216 then begin pa3i-=16777216;  pa1i:=pa1i and sync1; end ;
	cmpl	$16777216,TC_$RETRO$_$SID$LONGINT$$TSAMPLE_$$_PA3I(%rip)
	jng	.Lj1481
	movl	TC_$RETRO$_$SID$LONGINT$$TSAMPLE_$$_PA3I(%rip),%eax
	leal	-16777216(%eax),%eax
	movl	%eax,TC_$RETRO$_$SID$LONGINT$$TSAMPLE_$$_PA3I(%rip)
	movl	TC_$RETRO$_$SID$LONGINT$$TSAMPLE_$$_PA1I(%rip),%edx
	movl	TC_$RETRO$_$SID$LONGINT$$TSAMPLE_$$_SYNC1(%rip),%eax
	andl	%edx,%eax
	movl	%eax,TC_$RETRO$_$SID$LONGINT$$TSAMPLE_$$_PA1I(%rip)
.Lj1481:
.Ll533:
# [1311] if pa3ni>=16777216 then
	cmpl	$16777216,TC_$RETRO$_$SID$LONGINT$$TSAMPLE_$$_PA3NI(%rip)
	jnge	.Lj1487
.Ll534:
# [1313] pa3ni-=16777216;
	movl	TC_$RETRO$_$SID$LONGINT$$TSAMPLE_$$_PA3NI(%rip),%eax
	leal	-16777216(%eax),%eax
	movl	%eax,TC_$RETRO$_$SID$LONGINT$$TSAMPLE_$$_PA3NI(%rip)
.Ll535:
# [1314] pp3:=1;
	movb	$1,48(%rsp)
	jmp	.Lj1492
.Lj1487:
.Ll536:
# [1316] else pp3:=0;
	movb	$0,48(%rsp)
.Lj1492:
.Ll537:
# [1320] if test1>0 then pa1i:=0;
	cmpb	$0,TC_$RETRO$_$SID$LONGINT$$TSAMPLE_$$_TEST1(%rip)
	jna	.Lj1496
	movl	$0,TC_$RETRO$_$SID$LONGINT$$TSAMPLE_$$_PA1I(%rip)
.Lj1496:
.Ll538:
# [1321] if test2>0 then pa2i:=0;
	cmpb	$0,TC_$RETRO$_$SID$LONGINT$$TSAMPLE_$$_TEST2(%rip)
	jna	.Lj1500
	movl	$0,TC_$RETRO$_$SID$LONGINT$$TSAMPLE_$$_PA2I(%rip)
.Lj1500:
.Ll539:
# [1322] if test3>0 then pa3i:=0;
	cmpb	$0,TC_$RETRO$_$SID$LONGINT$$TSAMPLE_$$_TEST3(%rip)
	jna	.Lj1504
	movl	$0,TC_$RETRO$_$SID$LONGINT$$TSAMPLE_$$_PA3I(%rip)
.Lj1504:
.Ll540:
# [1325] case waveform1 of
	movw	TC_$RETRO$_$SID$LONGINT$$TSAMPLE_$$_WAVEFORM1(%rip),%ax
	cmpw	$15,%ax
	ja	.Lj1508
# PeepHole Optimization,var11
	andl	$65535,%eax
	leaq	.Ld16(%rip),%rdx
	movslq	(%rdx,%rax,4),%rax
	leaq	(%rdx,%rax,1),%rax
	jmp	*%rax
.Lj1509:
	jmp	.Lj1507
.Lj1510:
.Ll541:
# [1328] 1: begin if (pa1i shr 23 = 0) then wv1i:=(pa1i shl 1)-8388608 else wv1i:=((not (pa1i shl 1)) and $FFFFFF)-8388608; if (ring1>0) and (pa3>0) then wv1i:=-wv1i; end;
	movl	TC_$RETRO$_$SID$LONGINT$$TSAMPLE_$$_PA1I(%rip),%eax
	shrl	$23,%eax
	testl	%eax,%eax
	jne	.Lj1522
	movl	TC_$RETRO$_$SID$LONGINT$$TSAMPLE_$$_PA1I(%rip),%eax
	shll	$1,%eax
	leal	-8388608(%eax),%eax
	movl	%eax,TC_$RETRO$_$SID$LONGINT$$TSAMPLE_$$_WV1I(%rip)
	jmp	.Lj1525
.Lj1522:
	movl	TC_$RETRO$_$SID$LONGINT$$TSAMPLE_$$_PA1I(%rip),%eax
	shll	$1,%eax
	notl	%eax
	andl	$16777215,%eax
	leal	-8388608(%eax),%eax
	movl	%eax,TC_$RETRO$_$SID$LONGINT$$TSAMPLE_$$_WV1I(%rip)
.Lj1525:
	cmpb	$0,TC_$RETRO$_$SID$LONGINT$$TSAMPLE_$$_RING1(%rip)
	jna	.Lj1507
	movsd	_$RETRO$_Ld17(%rip),%xmm0
	comisd	TC_$RETRO$_$SID$LONGINT$$TSAMPLE_$$_PA3(%rip),%xmm0
	jp	.Lj1507
	jnb	.Lj1507
	movslq	TC_$RETRO$_$SID$LONGINT$$TSAMPLE_$$_WV1I(%rip),%rax
	negq	%rax
	movl	%eax,TC_$RETRO$_$SID$LONGINT$$TSAMPLE_$$_WV1I(%rip)
	jmp	.Lj1507
.Lj1511:
.Ll542:
# [1329] 2: wv1i:=pa1i-8388608;
	movl	TC_$RETRO$_$SID$LONGINT$$TSAMPLE_$$_PA1I(%rip),%eax
	leal	-8388608(%eax),%eax
	movl	%eax,TC_$RETRO$_$SID$LONGINT$$TSAMPLE_$$_WV1I(%rip)
	jmp	.Lj1507
.Lj1512:
.Ll543:
# [1330] 3: begin ind:=pa1i shr 16; wv1i:=((combined[ind]-128) shl 16); end;
	movl	TC_$RETRO$_$SID$LONGINT$$TSAMPLE_$$_PA1I(%rip),%eax
	shrl	$16,%eax
# PeepHole Optimization,MovMov2Mov1
	movl	%eax,%r15d
# PeepHole Optimization,var2a
	movl	%eax,%edx
	leaq	U_$RETRO_$$_COMBINED(%rip),%rax
	movzbl	(%rax,%rdx,1),%eax
	leaq	-128(%rax),%rax
	shlq	$16,%rax
	movl	%eax,TC_$RETRO$_$SID$LONGINT$$TSAMPLE_$$_WV1I(%rip)
	jmp	.Lj1507
.Lj1513:
.Ll544:
# [1331] 4: if (pa1i shr 12) < pw1i then wv1i:=-8388608 else wv1i:=8388608;
	movl	TC_$RETRO$_$SID$LONGINT$$TSAMPLE_$$_PA1I(%rip),%eax
	shrl	$12,%eax
	cmpl	TC_$RETRO$_$SID$LONGINT$$TSAMPLE_$$_PW1I(%rip),%eax
	jnl	.Lj1541
	movl	$-8388608,TC_$RETRO$_$SID$LONGINT$$TSAMPLE_$$_WV1I(%rip)
	jmp	.Lj1507
.Lj1541:
	movl	$8388608,TC_$RETRO$_$SID$LONGINT$$TSAMPLE_$$_WV1I(%rip)
	jmp	.Lj1507
.Lj1514:
.Ll545:
# [1332] 5: begin ind:=pa1i shr 16; wv1i:=((combined[ind+256]-128) shl 16); end;
	movl	TC_$RETRO$_$SID$LONGINT$$TSAMPLE_$$_PA1I(%rip),%eax
	shrl	$16,%eax
	movl	%eax,%r15d
	movslq	%r15d,%rax
	leaq	U_$RETRO_$$_COMBINED(%rip),%rdx
	movzbl	256(%rdx,%rax,1),%eax
	leaq	-128(%rax),%rax
	shlq	$16,%rax
	movl	%eax,TC_$RETRO$_$SID$LONGINT$$TSAMPLE_$$_WV1I(%rip)
	jmp	.Lj1507
.Lj1515:
.Ll546:
# [1333] 6: begin ind:=pa1i shr 16; wv1i:=((combined[ind+512]-128) shl 16); end;
	movl	TC_$RETRO$_$SID$LONGINT$$TSAMPLE_$$_PA1I(%rip),%eax
	shrl	$16,%eax
	movl	%eax,%r15d
	movslq	%r15d,%rdx
	leaq	U_$RETRO_$$_COMBINED(%rip),%rax
	movzbl	512(%rax,%rdx,1),%eax
	leaq	-128(%rax),%rax
	shlq	$16,%rax
	movl	%eax,TC_$RETRO$_$SID$LONGINT$$TSAMPLE_$$_WV1I(%rip)
	jmp	.Lj1507
.Lj1516:
.Ll547:
# [1334] 7: begin ind:=pa1i shr 16; wv1i:=((combined[ind+768]-128) shl 16); end;
	movl	TC_$RETRO$_$SID$LONGINT$$TSAMPLE_$$_PA1I(%rip),%eax
	shrl	$16,%eax
	movl	%eax,%r15d
	movslq	%r15d,%rdx
	leaq	U_$RETRO_$$_COMBINED(%rip),%rax
	movzbl	768(%rax,%rdx,1),%eax
	leaq	-128(%rax),%rax
	shlq	$16,%rax
	movl	%eax,TC_$RETRO$_$SID$LONGINT$$TSAMPLE_$$_WV1I(%rip)
	jmp	.Lj1507
.Lj1517:
.Ll548:
# [1335] 8: begin if pp1=1 then wv1i:=(noise1-128) shl 16; end;
	cmpb	$1,64(%rsp)
	jne	.Lj1507
	call	RETRO_$$_NOISE1$$BYTE
# PeepHole Optimization,var9
	andl	$255,%eax
	leaq	-128(%rax),%rax
	shlq	$16,%rax
	movl	%eax,TC_$RETRO$_$SID$LONGINT$$TSAMPLE_$$_WV1I(%rip)
	jmp	.Lj1507
.Lj1518:
.Ll549:
# [1336] 9: wv1i:=pa1i;
	movl	TC_$RETRO$_$SID$LONGINT$$TSAMPLE_$$_PA1I(%rip),%eax
	movl	%eax,TC_$RETRO$_$SID$LONGINT$$TSAMPLE_$$_WV1I(%rip)
	jmp	.Lj1507
.Lj1519:
.Ll550:
# [1337] 10: wv1i:=pa1i;
	movl	TC_$RETRO$_$SID$LONGINT$$TSAMPLE_$$_PA1I(%rip),%eax
	movl	%eax,TC_$RETRO$_$SID$LONGINT$$TSAMPLE_$$_WV1I(%rip)
	jmp	.Lj1507
.Lj1520:
.Ll551:
# [1338] 11..15: wv1i:=pa1i;
	movl	TC_$RETRO$_$SID$LONGINT$$TSAMPLE_$$_PA1I(%rip),%eax
	movl	%eax,TC_$RETRO$_$SID$LONGINT$$TSAMPLE_$$_WV1I(%rip)
	jmp	.Lj1507
.Lj1508:
.Ll552:
# [1339] else begin if pp1=1 then wv1i:=(noise1-128) shl 16; end;
	cmpb	$1,64(%rsp)
	jne	.Lj1570
	call	RETRO_$$_NOISE1$$BYTE
# PeepHole Optimization,var9
	andl	$255,%eax
	leaq	-128(%rax),%rax
	shlq	$16,%rax
	movl	%eax,TC_$RETRO$_$SID$LONGINT$$TSAMPLE_$$_WV1I(%rip)
.Lj1570:
.Lj1507:
.Ll553:
# [1343] case waveform2 of
	movw	TC_$RETRO$_$SID$LONGINT$$TSAMPLE_$$_WAVEFORM2(%rip),%ax
	cmpw	$15,%ax
	ja	.Lj1574
# PeepHole Optimization,var11
	andl	$65535,%eax
	leaq	.Ld18(%rip),%rdx
	movslq	(%rdx,%rax,4),%rax
	leaq	(%rdx,%rax,1),%rax
	jmp	*%rax
.Lj1575:
	jmp	.Lj1573
.Lj1576:
.Ll554:
# [1346] 1: begin if (pa2i shr 23 = 0) then wv2i:=(pa2i shl 1)-8388608 else wv2i:=((not (pa2i shl 1)) and $FFFFFF)-8388608; if (ring2>0) and (pa1>0) then wv2i:=-wv2i; end;
	movl	TC_$RETRO$_$SID$LONGINT$$TSAMPLE_$$_PA2I(%rip),%eax
	shrl	$23,%eax
	testl	%eax,%eax
	jne	.Lj1588
	movl	TC_$RETRO$_$SID$LONGINT$$TSAMPLE_$$_PA2I(%rip),%eax
	shll	$1,%eax
	leal	-8388608(%eax),%eax
	movl	%eax,TC_$RETRO$_$SID$LONGINT$$TSAMPLE_$$_WV2I(%rip)
	jmp	.Lj1591
.Lj1588:
	movl	TC_$RETRO$_$SID$LONGINT$$TSAMPLE_$$_PA2I(%rip),%eax
	shll	$1,%eax
	notl	%eax
	andl	$16777215,%eax
	leal	-8388608(%eax),%eax
	movl	%eax,TC_$RETRO$_$SID$LONGINT$$TSAMPLE_$$_WV2I(%rip)
.Lj1591:
	cmpb	$0,TC_$RETRO$_$SID$LONGINT$$TSAMPLE_$$_RING2(%rip)
	jna	.Lj1573
	movsd	_$RETRO$_Ld17(%rip),%xmm0
	comisd	TC_$RETRO$_$SID$LONGINT$$TSAMPLE_$$_PA1(%rip),%xmm0
	jp	.Lj1573
	jnb	.Lj1573
	movslq	TC_$RETRO$_$SID$LONGINT$$TSAMPLE_$$_WV2I(%rip),%rax
	negq	%rax
	movl	%eax,TC_$RETRO$_$SID$LONGINT$$TSAMPLE_$$_WV2I(%rip)
	jmp	.Lj1573
.Lj1577:
.Ll555:
# [1347] 2: wv2i:=pa2i-8388608;
	movl	TC_$RETRO$_$SID$LONGINT$$TSAMPLE_$$_PA2I(%rip),%eax
	leal	-8388608(%eax),%eax
	movl	%eax,TC_$RETRO$_$SID$LONGINT$$TSAMPLE_$$_WV2I(%rip)
	jmp	.Lj1573
.Lj1578:
.Ll556:
# [1348] 3: begin ind:=pa2i shr 16; wv2i:=((combined[ind]-128) shl 16); end;
	movl	TC_$RETRO$_$SID$LONGINT$$TSAMPLE_$$_PA2I(%rip),%eax
	shrl	$16,%eax
# PeepHole Optimization,MovMov2Mov1
	movl	%eax,%r15d
	andl	$4294967295,%eax
	leaq	U_$RETRO_$$_COMBINED(%rip),%rdx
	movzbl	(%rdx,%rax,1),%eax
	leaq	-128(%rax),%rax
	shlq	$16,%rax
	movl	%eax,TC_$RETRO$_$SID$LONGINT$$TSAMPLE_$$_WV2I(%rip)
	jmp	.Lj1573
.Lj1579:
.Ll557:
# [1349] 4: if (pa2i shr 12) < pw2i then wv2i:=-8388608 else wv2i:=8388608;
	movl	TC_$RETRO$_$SID$LONGINT$$TSAMPLE_$$_PA2I(%rip),%eax
	shrl	$12,%eax
	cmpl	TC_$RETRO$_$SID$LONGINT$$TSAMPLE_$$_PW2I(%rip),%eax
	jnl	.Lj1607
	movl	$-8388608,TC_$RETRO$_$SID$LONGINT$$TSAMPLE_$$_WV2I(%rip)
	jmp	.Lj1573
.Lj1607:
	movl	$8388608,TC_$RETRO$_$SID$LONGINT$$TSAMPLE_$$_WV2I(%rip)
	jmp	.Lj1573
.Lj1580:
.Ll558:
# [1350] 5: begin ind:=pa2i shr 16; wv2i:=((combined[ind+256]-128) shl 16); end;
	movl	TC_$RETRO$_$SID$LONGINT$$TSAMPLE_$$_PA2I(%rip),%eax
	shrl	$16,%eax
	movl	%eax,%r15d
	movslq	%r15d,%rdx
	leaq	U_$RETRO_$$_COMBINED(%rip),%rax
	movzbl	256(%rax,%rdx,1),%eax
	leaq	-128(%rax),%rax
	shlq	$16,%rax
	movl	%eax,TC_$RETRO$_$SID$LONGINT$$TSAMPLE_$$_WV2I(%rip)
	jmp	.Lj1573
.Lj1581:
.Ll559:
# [1351] 6: begin ind:=pa2i shr 16; wv2i:=((combined[ind+512]-128) shl 16); end;
	movl	TC_$RETRO$_$SID$LONGINT$$TSAMPLE_$$_PA2I(%rip),%eax
	shrl	$16,%eax
	movl	%eax,%r15d
	movslq	%r15d,%rdx
	leaq	U_$RETRO_$$_COMBINED(%rip),%rax
	movzbl	512(%rax,%rdx,1),%eax
	leaq	-128(%rax),%rax
	shlq	$16,%rax
	movl	%eax,TC_$RETRO$_$SID$LONGINT$$TSAMPLE_$$_WV2I(%rip)
	jmp	.Lj1573
.Lj1582:
.Ll560:
# [1352] 7: begin ind:=pa2i shr 16; wv2i:=((combined[ind+768]-128) shl 16); end;
	movl	TC_$RETRO$_$SID$LONGINT$$TSAMPLE_$$_PA2I(%rip),%eax
	shrl	$16,%eax
	movl	%eax,%r15d
	movslq	%r15d,%rdx
	leaq	U_$RETRO_$$_COMBINED(%rip),%rax
	movzbl	768(%rax,%rdx,1),%eax
	leaq	-128(%rax),%rax
	shlq	$16,%rax
	movl	%eax,TC_$RETRO$_$SID$LONGINT$$TSAMPLE_$$_WV2I(%rip)
	jmp	.Lj1573
.Lj1583:
.Ll561:
# [1353] 8: begin if pp2=1 then wv2i:=(noise2-128) shl 16; end;
	cmpb	$1,56(%rsp)
	jne	.Lj1573
	call	RETRO_$$_NOISE2$$LONGWORD
	andl	$4294967295,%eax
	leaq	-128(%rax),%rax
	shlq	$16,%rax
	movl	%eax,TC_$RETRO$_$SID$LONGINT$$TSAMPLE_$$_WV2I(%rip)
	jmp	.Lj1573
.Lj1584:
.Ll562:
# [1354] 9: wv2i:=pa2i;
	movl	TC_$RETRO$_$SID$LONGINT$$TSAMPLE_$$_PA2I(%rip),%eax
	movl	%eax,TC_$RETRO$_$SID$LONGINT$$TSAMPLE_$$_WV2I(%rip)
	jmp	.Lj1573
.Lj1585:
.Ll563:
# [1355] 10: wv2i:=pa2i;
	movl	TC_$RETRO$_$SID$LONGINT$$TSAMPLE_$$_PA2I(%rip),%eax
	movl	%eax,TC_$RETRO$_$SID$LONGINT$$TSAMPLE_$$_WV2I(%rip)
	jmp	.Lj1573
.Lj1586:
.Ll564:
# [1356] 11..15: wv2i:=pa2i;
	movl	TC_$RETRO$_$SID$LONGINT$$TSAMPLE_$$_PA2I(%rip),%eax
	movl	%eax,TC_$RETRO$_$SID$LONGINT$$TSAMPLE_$$_WV2I(%rip)
	jmp	.Lj1573
.Lj1574:
.Ll565:
# [1357] else begin if pp2=1 then wv2i:=(noise2-128) shl 16; end;
	cmpb	$1,56(%rsp)
	jne	.Lj1636
	call	RETRO_$$_NOISE2$$LONGWORD
	andl	$4294967295,%eax
	leaq	-128(%rax),%rax
	shlq	$16,%rax
	movl	%eax,TC_$RETRO$_$SID$LONGINT$$TSAMPLE_$$_WV2I(%rip)
.Lj1636:
.Lj1573:
.Ll566:
# [1360] case waveform3 of
	movw	TC_$RETRO$_$SID$LONGINT$$TSAMPLE_$$_WAVEFORM3(%rip),%ax
	cmpw	$15,%ax
	ja	.Lj1640
# PeepHole Optimization,var11
	andl	$65535,%eax
	leaq	.Ld19(%rip),%rdx
	movslq	(%rdx,%rax,4),%rax
	leaq	(%rdx,%rax,1),%rax
	jmp	*%rax
.Lj1641:
	jmp	.Lj1639
.Lj1642:
.Ll567:
# [1363] 1: begin if (pa3i shr 23 = 0) then wv3i:=(pa3i shl 1)-8388608 else wv3i:=((not (pa3i shl 1)) and $FFFFFF)-8388608; if (ring3>0) and (pa2>0) then wv3i:=-wv3i; end;
	movl	TC_$RETRO$_$SID$LONGINT$$TSAMPLE_$$_PA3I(%rip),%eax
	shrl	$23,%eax
	testl	%eax,%eax
	jne	.Lj1654
	movl	TC_$RETRO$_$SID$LONGINT$$TSAMPLE_$$_PA3I(%rip),%eax
	shll	$1,%eax
	leal	-8388608(%eax),%eax
	movl	%eax,TC_$RETRO$_$SID$LONGINT$$TSAMPLE_$$_WV3I(%rip)
	jmp	.Lj1657
.Lj1654:
	movl	TC_$RETRO$_$SID$LONGINT$$TSAMPLE_$$_PA3I(%rip),%eax
	shll	$1,%eax
	notl	%eax
	andl	$16777215,%eax
	leal	-8388608(%eax),%eax
	movl	%eax,TC_$RETRO$_$SID$LONGINT$$TSAMPLE_$$_WV3I(%rip)
.Lj1657:
	cmpb	$0,TC_$RETRO$_$SID$LONGINT$$TSAMPLE_$$_RING3(%rip)
	jna	.Lj1639
	movsd	_$RETRO$_Ld17(%rip),%xmm0
	comisd	TC_$RETRO$_$SID$LONGINT$$TSAMPLE_$$_PA2(%rip),%xmm0
	jp	.Lj1639
	jnb	.Lj1639
	movslq	TC_$RETRO$_$SID$LONGINT$$TSAMPLE_$$_WV3I(%rip),%rax
	negq	%rax
	movl	%eax,TC_$RETRO$_$SID$LONGINT$$TSAMPLE_$$_WV3I(%rip)
	jmp	.Lj1639
.Lj1643:
.Ll568:
# [1364] 2: wv3i:=pa3i-8388608;
	movl	TC_$RETRO$_$SID$LONGINT$$TSAMPLE_$$_PA3I(%rip),%eax
	leal	-8388608(%eax),%eax
	movl	%eax,TC_$RETRO$_$SID$LONGINT$$TSAMPLE_$$_WV3I(%rip)
	jmp	.Lj1639
.Lj1644:
.Ll569:
# [1365] 3: begin ind:=pa3i shr 16; wv3i:=((combined[ind]-128) shl 16); end;
	movl	TC_$RETRO$_$SID$LONGINT$$TSAMPLE_$$_PA3I(%rip),%eax
	shrl	$16,%eax
# PeepHole Optimization,MovMov2Mov1
	movl	%eax,%r15d
# PeepHole Optimization,var2a
	movl	%eax,%edx
	leaq	U_$RETRO_$$_COMBINED(%rip),%rax
	movzbl	(%rax,%rdx,1),%eax
	leaq	-128(%rax),%rax
	shlq	$16,%rax
	movl	%eax,TC_$RETRO$_$SID$LONGINT$$TSAMPLE_$$_WV3I(%rip)
	jmp	.Lj1639
.Lj1645:
.Ll570:
# [1366] 4: if (pa3i shr 12) < pw3i then wv3i:=-8388608 else wv3i:=8388608;
	movl	TC_$RETRO$_$SID$LONGINT$$TSAMPLE_$$_PA3I(%rip),%eax
	shrl	$12,%eax
	cmpl	TC_$RETRO$_$SID$LONGINT$$TSAMPLE_$$_PW3I(%rip),%eax
	jnl	.Lj1673
	movl	$-8388608,TC_$RETRO$_$SID$LONGINT$$TSAMPLE_$$_WV3I(%rip)
	jmp	.Lj1639
.Lj1673:
	movl	$8388608,TC_$RETRO$_$SID$LONGINT$$TSAMPLE_$$_WV3I(%rip)
	jmp	.Lj1639
.Lj1646:
.Ll571:
# [1367] 5: begin ind:=pa3i shr 16; wv3i:=((combined[ind+256]-128) shl 16); end;
	movl	TC_$RETRO$_$SID$LONGINT$$TSAMPLE_$$_PA3I(%rip),%eax
	shrl	$16,%eax
	movl	%eax,%r15d
	movslq	%r15d,%rax
	leaq	U_$RETRO_$$_COMBINED(%rip),%rdx
	movzbl	256(%rdx,%rax,1),%eax
	leaq	-128(%rax),%rax
	shlq	$16,%rax
	movl	%eax,TC_$RETRO$_$SID$LONGINT$$TSAMPLE_$$_WV3I(%rip)
	jmp	.Lj1639
.Lj1647:
.Ll572:
# [1368] 6: begin ind:=pa3i shr 16; wv3i:=((combined[ind+512]-128) shl 16); end;
	movl	TC_$RETRO$_$SID$LONGINT$$TSAMPLE_$$_PA3I(%rip),%eax
	shrl	$16,%eax
	movl	%eax,%r15d
	movslq	%r15d,%rax
	leaq	U_$RETRO_$$_COMBINED(%rip),%rdx
	movzbl	512(%rdx,%rax,1),%eax
	leaq	-128(%rax),%rax
	shlq	$16,%rax
	movl	%eax,TC_$RETRO$_$SID$LONGINT$$TSAMPLE_$$_WV3I(%rip)
	jmp	.Lj1639
.Lj1648:
.Ll573:
# [1369] 7: begin ind:=pa3i shr 16; wv3i:=((combined[ind+768]-128) shl 16); end;
	movl	TC_$RETRO$_$SID$LONGINT$$TSAMPLE_$$_PA3I(%rip),%eax
	shrl	$16,%eax
	movl	%eax,%r15d
	movslq	%r15d,%rax
	leaq	U_$RETRO_$$_COMBINED(%rip),%rdx
	movzbl	768(%rdx,%rax,1),%eax
	leaq	-128(%rax),%rax
	shlq	$16,%rax
	movl	%eax,TC_$RETRO$_$SID$LONGINT$$TSAMPLE_$$_WV3I(%rip)
	jmp	.Lj1639
.Lj1649:
.Ll574:
# [1370] 8: begin if pp3=1 then wv3i:=(noise3-128) shl 16; end;
	cmpb	$1,48(%rsp)
	jne	.Lj1639
	call	RETRO_$$_NOISE3$$LONGWORD
	andl	$4294967295,%eax
	leaq	-128(%rax),%rax
	shlq	$16,%rax
	movl	%eax,TC_$RETRO$_$SID$LONGINT$$TSAMPLE_$$_WV3I(%rip)
	jmp	.Lj1639
.Lj1650:
	jmp	.Lj1639
.Lj1651:
	jmp	.Lj1639
.Lj1652:
	jmp	.Lj1639
.Lj1640:
.Ll575:
# [1374] else begin if pp3=1 then wv3i:=(noise3-128) shl 16; end;
	cmpb	$1,48(%rsp)
	jne	.Lj1696
	call	RETRO_$$_NOISE3$$LONGWORD
	andl	$4294967295,%eax
	leaq	-128(%rax),%rax
	shlq	$16,%rax
	movl	%eax,TC_$RETRO$_$SID$LONGINT$$TSAMPLE_$$_WV3I(%rip)
.Lj1696:
.Lj1639:
.Ll576:
# [1378] if gate1=0 then adsrstate1:=4 else begin if ((adsrstate1=0) or (adsrstate1=4)) then adsrstate1:=1; end;  //release /attack
	cmpb	$0,TC_$RETRO$_$SID$LONGINT$$TSAMPLE_$$_GATE1(%rip)
	jne	.Lj1700
	movb	$4,TC_$RETRO$_$SID$LONGINT$$TSAMPLE_$$_ADSRSTATE1(%rip)
	jmp	.Lj1703
.Lj1700:
.Ll577:
	movb	TC_$RETRO$_$SID$LONGINT$$TSAMPLE_$$_ADSRSTATE1(%rip),%al
.Ll578:
	testb	%al,%al
	je	.Lj1704
	cmpb	$4,%al
	jne	.Lj1705
.Lj1704:
	movb	$1,TC_$RETRO$_$SID$LONGINT$$TSAMPLE_$$_ADSRSTATE1(%rip)
.Lj1705:
.Lj1703:
.Ll579:
# [1380] if (adsrstate1=3) then adsrvol1i:=sustainvol1i
	cmpb	$3,TC_$RETRO$_$SID$LONGINT$$TSAMPLE_$$_ADSRSTATE1(%rip)
	jne	.Lj1712
	movq	TC_$RETRO$_$SID$LONGINT$$TSAMPLE_$$_SUSTAINVOL1I(%rip),%rax
	movq	%rax,TC_$RETRO$_$SID$LONGINT$$TSAMPLE_$$_ADSRVOL1I(%rip)
	jmp	.Lj1715
.Lj1712:
.Ll580:
# [1381] else if (adsrstate1=1) then begin adsrvol1i:=adsrvol1i+(attacktablei[sa1]); if adsrvol1i>=1073741824 then adsrstate1:=2; end
	cmpb	$1,TC_$RETRO$_$SID$LONGINT$$TSAMPLE_$$_ADSRSTATE1(%rip)
	jne	.Lj1717
	movzbl	TC_$RETRO$_$SID$LONGINT$$TSAMPLE_$$_SA1(%rip),%edx
	leaq	U_$RETRO_$$_ATTACKTABLEI(%rip),%rax
	movq	(%rax,%rdx,8),%rdx
	movq	TC_$RETRO$_$SID$LONGINT$$TSAMPLE_$$_ADSRVOL1I(%rip),%rax
	leaq	(%rdx,%rax),%rax
	movq	%rax,TC_$RETRO$_$SID$LONGINT$$TSAMPLE_$$_ADSRVOL1I(%rip)
	cmpq	$1073741824,TC_$RETRO$_$SID$LONGINT$$TSAMPLE_$$_ADSRVOL1I(%rip)
	jnge	.Lj1724
	movb	$2,TC_$RETRO$_$SID$LONGINT$$TSAMPLE_$$_ADSRSTATE1(%rip)
	jmp	.Lj1724
.Lj1717:
.Ll581:
# [1382] else if (adsrstate1=2) then begin adsrvol1i:=(adsrvol1i*(srtablei[sd1])) shr 30; if adsrvol1i<=sustainvol1i then adsrstate1:=3; end
	cmpb	$2,TC_$RETRO$_$SID$LONGINT$$TSAMPLE_$$_ADSRSTATE1(%rip)
	jne	.Lj1726
	movzbl	TC_$RETRO$_$SID$LONGINT$$TSAMPLE_$$_SD1(%rip),%edx
	leaq	U_$RETRO_$$_SRTABLEI(%rip),%rax
	movq	(%rax,%rdx,8),%rdx
	movq	TC_$RETRO$_$SID$LONGINT$$TSAMPLE_$$_ADSRVOL1I(%rip),%rax
	imulq	%rdx,%rax
	shrq	$30,%rax
# PeepHole Optimization,MovMov2Mov1
	movq	%rax,TC_$RETRO$_$SID$LONGINT$$TSAMPLE_$$_ADSRVOL1I(%rip)
	cmpq	TC_$RETRO$_$SID$LONGINT$$TSAMPLE_$$_SUSTAINVOL1I(%rip),%rax
	jnle	.Lj1733
	movb	$3,TC_$RETRO$_$SID$LONGINT$$TSAMPLE_$$_ADSRSTATE1(%rip)
	jmp	.Lj1733
.Lj1726:
.Ll582:
# [1383] else if (adsrstate1=4) then begin adsrvol1i:=(adsrvol1i*(srtablei[sr1])) shr 30; if (adsrvol1i<=65536) then begin adsrstate1:=0; adsrvol1i:=0; end; end
	cmpb	$4,TC_$RETRO$_$SID$LONGINT$$TSAMPLE_$$_ADSRSTATE1(%rip)
	jne	.Lj1735
	movzbl	TC_$RETRO$_$SID$LONGINT$$TSAMPLE_$$_SR1(%rip),%edx
	leaq	U_$RETRO_$$_SRTABLEI(%rip),%rax
	movq	(%rax,%rdx,8),%rdx
	movq	TC_$RETRO$_$SID$LONGINT$$TSAMPLE_$$_ADSRVOL1I(%rip),%rax
	imulq	%rdx,%rax
	shrq	$30,%rax
	movq	%rax,TC_$RETRO$_$SID$LONGINT$$TSAMPLE_$$_ADSRVOL1I(%rip)
	cmpq	$65536,TC_$RETRO$_$SID$LONGINT$$TSAMPLE_$$_ADSRVOL1I(%rip)
	jnle	.Lj1744
	movb	$0,TC_$RETRO$_$SID$LONGINT$$TSAMPLE_$$_ADSRSTATE1(%rip)
	movq	$0,TC_$RETRO$_$SID$LONGINT$$TSAMPLE_$$_ADSRVOL1I(%rip)
	jmp	.Lj1744
.Lj1735:
.Ll583:
# [1384] else adsrvol1i:=0;
	movq	$0,TC_$RETRO$_$SID$LONGINT$$TSAMPLE_$$_ADSRVOL1I(%rip)
.Lj1744:
.Lj1733:
.Lj1724:
.Lj1715:
.Ll584:
# [1386] if gate2=0 then adsrstate2:=4 else begin if ((adsrstate2=0) or (adsrstate2=4)) then adsrstate2:=1; end;  //release /attack
	cmpb	$0,TC_$RETRO$_$SID$LONGINT$$TSAMPLE_$$_GATE2(%rip)
	jne	.Lj1748
	movb	$4,TC_$RETRO$_$SID$LONGINT$$TSAMPLE_$$_ADSRSTATE2(%rip)
	jmp	.Lj1751
.Lj1748:
.Ll585:
	movb	TC_$RETRO$_$SID$LONGINT$$TSAMPLE_$$_ADSRSTATE2(%rip),%al
.Ll586:
	testb	%al,%al
	je	.Lj1752
	cmpb	$4,%al
	jne	.Lj1753
.Lj1752:
	movb	$1,TC_$RETRO$_$SID$LONGINT$$TSAMPLE_$$_ADSRSTATE2(%rip)
.Lj1753:
.Lj1751:
.Ll587:
# [1388] if (adsrstate2=3) then adsrvol2i:=sustainvol2i
	cmpb	$3,TC_$RETRO$_$SID$LONGINT$$TSAMPLE_$$_ADSRSTATE2(%rip)
	jne	.Lj1760
	movq	TC_$RETRO$_$SID$LONGINT$$TSAMPLE_$$_SUSTAINVOL2I(%rip),%rax
	movq	%rax,TC_$RETRO$_$SID$LONGINT$$TSAMPLE_$$_ADSRVOL2I(%rip)
	jmp	.Lj1763
.Lj1760:
.Ll588:
# [1389] else if (adsrstate2=1) then begin
	cmpb	$1,TC_$RETRO$_$SID$LONGINT$$TSAMPLE_$$_ADSRSTATE2(%rip)
	jne	.Lj1765
.Ll589:
# [1390] adsrvol2i:=adsrvol2i+(attacktablei[sa2]); if adsrvol2i>=1073741824 then adsrstate2:=2; end
	movzbl	TC_$RETRO$_$SID$LONGINT$$TSAMPLE_$$_SA2(%rip),%eax
	leaq	U_$RETRO_$$_ATTACKTABLEI(%rip),%rdx
	movq	(%rdx,%rax,8),%rdx
	movq	TC_$RETRO$_$SID$LONGINT$$TSAMPLE_$$_ADSRVOL2I(%rip),%rax
	leaq	(%rdx,%rax),%rax
	movq	%rax,TC_$RETRO$_$SID$LONGINT$$TSAMPLE_$$_ADSRVOL2I(%rip)
	cmpq	$1073741824,TC_$RETRO$_$SID$LONGINT$$TSAMPLE_$$_ADSRVOL2I(%rip)
	jnge	.Lj1772
	movb	$2,TC_$RETRO$_$SID$LONGINT$$TSAMPLE_$$_ADSRSTATE2(%rip)
	jmp	.Lj1772
.Lj1765:
.Ll590:
# [1391] else if (adsrstate2=2) then
	cmpb	$2,TC_$RETRO$_$SID$LONGINT$$TSAMPLE_$$_ADSRSTATE2(%rip)
	jne	.Lj1774
.Ll591:
# [1393] adsrvol2i:=(adsrvol2i*(srtablei[sd2])) shr 30;
	movzbl	TC_$RETRO$_$SID$LONGINT$$TSAMPLE_$$_SD2(%rip),%edx
	leaq	U_$RETRO_$$_SRTABLEI(%rip),%rax
	movq	(%rax,%rdx,8),%rdx
	movq	TC_$RETRO$_$SID$LONGINT$$TSAMPLE_$$_ADSRVOL2I(%rip),%rax
	imulq	%rdx,%rax
	shrq	$30,%rax
# PeepHole Optimization,MovMov2Mov1
	movq	%rax,TC_$RETRO$_$SID$LONGINT$$TSAMPLE_$$_ADSRVOL2I(%rip)
.Ll592:
# [1394] if adsrvol2i<=sustainvol2i then
	cmpq	TC_$RETRO$_$SID$LONGINT$$TSAMPLE_$$_SUSTAINVOL2I(%rip),%rax
	jnle	.Lj1781
.Ll593:
# [1395] adsrstate2:=3; end
	movb	$3,TC_$RETRO$_$SID$LONGINT$$TSAMPLE_$$_ADSRSTATE2(%rip)
	jmp	.Lj1781
.Lj1774:
.Ll594:
# [1396] else if (adsrstate2=4) then begin adsrvol2i:=(adsrvol2i*(srtablei[sr2])) shr 30; if (adsrvol2i<=65536) then begin adsrstate2:=0; adsrvol2i:=0; end; end
	cmpb	$4,TC_$RETRO$_$SID$LONGINT$$TSAMPLE_$$_ADSRSTATE2(%rip)
	jne	.Lj1783
	movzbl	TC_$RETRO$_$SID$LONGINT$$TSAMPLE_$$_SR2(%rip),%eax
	leaq	U_$RETRO_$$_SRTABLEI(%rip),%rdx
	movq	(%rdx,%rax,8),%rdx
	movq	TC_$RETRO$_$SID$LONGINT$$TSAMPLE_$$_ADSRVOL2I(%rip),%rax
	imulq	%rdx,%rax
	shrq	$30,%rax
	movq	%rax,TC_$RETRO$_$SID$LONGINT$$TSAMPLE_$$_ADSRVOL2I(%rip)
	cmpq	$65536,TC_$RETRO$_$SID$LONGINT$$TSAMPLE_$$_ADSRVOL2I(%rip)
	jnle	.Lj1792
	movb	$0,TC_$RETRO$_$SID$LONGINT$$TSAMPLE_$$_ADSRSTATE2(%rip)
	movq	$0,TC_$RETRO$_$SID$LONGINT$$TSAMPLE_$$_ADSRVOL2I(%rip)
	jmp	.Lj1792
.Lj1783:
.Ll595:
# [1397] else adsrvol2i:=0;
	movq	$0,TC_$RETRO$_$SID$LONGINT$$TSAMPLE_$$_ADSRVOL2I(%rip)
.Lj1792:
.Lj1781:
.Lj1772:
.Lj1763:
.Ll596:
# [1400] if gate3=0 then adsrstate3:=4  else begin if ((adsrstate3=0) or (adsrstate3=4)) then adsrstate3:=1; end;  //release /attack
	cmpb	$0,TC_$RETRO$_$SID$LONGINT$$TSAMPLE_$$_GATE3(%rip)
	jne	.Lj1796
	movb	$4,TC_$RETRO$_$SID$LONGINT$$TSAMPLE_$$_ADSRSTATE3(%rip)
	jmp	.Lj1799
.Lj1796:
.Ll597:
	movb	TC_$RETRO$_$SID$LONGINT$$TSAMPLE_$$_ADSRSTATE3(%rip),%al
.Ll598:
	testb	%al,%al
	je	.Lj1800
	cmpb	$4,%al
	jne	.Lj1801
.Lj1800:
	movb	$1,TC_$RETRO$_$SID$LONGINT$$TSAMPLE_$$_ADSRSTATE3(%rip)
.Lj1801:
.Lj1799:
.Ll599:
# [1402] if (adsrstate3=3) then adsrvol3i:=sustainvol3i
	cmpb	$3,TC_$RETRO$_$SID$LONGINT$$TSAMPLE_$$_ADSRSTATE3(%rip)
	jne	.Lj1808
	movq	TC_$RETRO$_$SID$LONGINT$$TSAMPLE_$$_SUSTAINVOL3I(%rip),%rax
	movq	%rax,TC_$RETRO$_$SID$LONGINT$$TSAMPLE_$$_ADSRVOL3I(%rip)
	jmp	.Lj1811
.Lj1808:
.Ll600:
# [1403] else if (adsrstate3=1) then begin adsrvol3i:=adsrvol3i+(attacktablei[sa3]); if adsrvol3i>=1073741824 then adsrstate3:=2; end
	cmpb	$1,TC_$RETRO$_$SID$LONGINT$$TSAMPLE_$$_ADSRSTATE3(%rip)
	jne	.Lj1813
	movzbl	TC_$RETRO$_$SID$LONGINT$$TSAMPLE_$$_SA3(%rip),%eax
	leaq	U_$RETRO_$$_ATTACKTABLEI(%rip),%rdx
	movq	(%rdx,%rax,8),%rax
	movq	TC_$RETRO$_$SID$LONGINT$$TSAMPLE_$$_ADSRVOL3I(%rip),%rdx
	leaq	(%rax,%rdx),%rax
	movq	%rax,TC_$RETRO$_$SID$LONGINT$$TSAMPLE_$$_ADSRVOL3I(%rip)
	cmpq	$1073741824,TC_$RETRO$_$SID$LONGINT$$TSAMPLE_$$_ADSRVOL3I(%rip)
	jnge	.Lj1820
	movb	$2,TC_$RETRO$_$SID$LONGINT$$TSAMPLE_$$_ADSRSTATE3(%rip)
	jmp	.Lj1820
.Lj1813:
.Ll601:
# [1404] else if (adsrstate3=2) then begin adsrvol3i:=(adsrvol3i*(srtablei[sd3])) shr 30; if adsrvol3i<=sustainvol3i then adsrstate3:=3; end
	cmpb	$2,TC_$RETRO$_$SID$LONGINT$$TSAMPLE_$$_ADSRSTATE3(%rip)
	jne	.Lj1822
	movzbl	TC_$RETRO$_$SID$LONGINT$$TSAMPLE_$$_SD3(%rip),%eax
	leaq	U_$RETRO_$$_SRTABLEI(%rip),%rdx
	movq	(%rdx,%rax,8),%rdx
	movq	TC_$RETRO$_$SID$LONGINT$$TSAMPLE_$$_ADSRVOL3I(%rip),%rax
	imulq	%rdx,%rax
	shrq	$30,%rax
# PeepHole Optimization,MovMov2Mov1
	movq	%rax,TC_$RETRO$_$SID$LONGINT$$TSAMPLE_$$_ADSRVOL3I(%rip)
	cmpq	TC_$RETRO$_$SID$LONGINT$$TSAMPLE_$$_SUSTAINVOL3I(%rip),%rax
	jnle	.Lj1829
	movb	$3,TC_$RETRO$_$SID$LONGINT$$TSAMPLE_$$_ADSRSTATE3(%rip)
	jmp	.Lj1829
.Lj1822:
.Ll602:
# [1405] else if (adsrstate3=4) then begin adsrvol3i:=(adsrvol3i*(srtablei[sr3])) shr 30; if (adsrvol3i<=65536) then begin adsrstate3:=0; adsrvol3i:=0; end; end
	cmpb	$4,TC_$RETRO$_$SID$LONGINT$$TSAMPLE_$$_ADSRSTATE3(%rip)
	jne	.Lj1831
	movzbl	TC_$RETRO$_$SID$LONGINT$$TSAMPLE_$$_SR3(%rip),%edx
	leaq	U_$RETRO_$$_SRTABLEI(%rip),%rax
	movq	(%rax,%rdx,8),%rdx
	movq	TC_$RETRO$_$SID$LONGINT$$TSAMPLE_$$_ADSRVOL3I(%rip),%rax
	imulq	%rdx,%rax
	shrq	$30,%rax
	movq	%rax,TC_$RETRO$_$SID$LONGINT$$TSAMPLE_$$_ADSRVOL3I(%rip)
	cmpq	$65536,TC_$RETRO$_$SID$LONGINT$$TSAMPLE_$$_ADSRVOL3I(%rip)
	jnle	.Lj1840
	movb	$0,TC_$RETRO$_$SID$LONGINT$$TSAMPLE_$$_ADSRSTATE3(%rip)
	movq	$0,TC_$RETRO$_$SID$LONGINT$$TSAMPLE_$$_ADSRVOL3I(%rip)
	jmp	.Lj1840
.Lj1831:
.Ll603:
# [1406] else adsrvol3i:=0;
	movq	$0,TC_$RETRO$_$SID$LONGINT$$TSAMPLE_$$_ADSRVOL3I(%rip)
.Lj1840:
.Lj1829:
.Lj1820:
.Lj1811:
.Ll604:
# [1411] wv1ii:=wv1i*adsrvol1i*ramb^[$70003];    // wv1a:=0;
	movslq	TC_$RETRO$_$SID$LONGINT$$TSAMPLE_$$_WV1I(%rip),%rdx
	movq	TC_$RETRO$_$SID$LONGINT$$TSAMPLE_$$_ADSRVOL1I(%rip),%rax
	movq	%rax,%rcx
	imulq	%rdx,%rcx
	movq	U_$RETRO_$$_R1(%rip),%rax
	movzbl	458755(%rax),%eax
	imulq	%rcx,%rax
	movq	%rax,%r14
.Ll605:
# [1412] wv2ii:=wv2i*adsrvol2i*ramb^[$70004];    // wv2a:=0;
	movslq	TC_$RETRO$_$SID$LONGINT$$TSAMPLE_$$_WV2I(%rip),%rdx
	movq	TC_$RETRO$_$SID$LONGINT$$TSAMPLE_$$_ADSRVOL2I(%rip),%rax
	movq	%rax,%rcx
	imulq	%rdx,%rcx
	movq	U_$RETRO_$$_R1(%rip),%rax
	movzbl	458756(%rax),%eax
	imulq	%rcx,%rax
	movq	%rax,%r13
.Ll606:
# [1413] wv3ii:=wv3i*adsrvol3i*ramb^[$70005];    // wv3a:=0;
	movslq	TC_$RETRO$_$SID$LONGINT$$TSAMPLE_$$_WV3I(%rip),%rdx
	movq	TC_$RETRO$_$SID$LONGINT$$TSAMPLE_$$_ADSRVOL3I(%rip),%rax
	movq	%rax,%rcx
	imulq	%rdx,%rcx
	movq	U_$RETRO_$$_R1(%rip),%rax
	movzbl	458757(%rax),%eax
	imulq	%rcx,%rax
	movq	%rax,%r12
.Ll607:
# [1417] wv1ii:=(wv1ii div 137438953472);
	movq	%r14,%rax
	movq	%rax,%rdx
	sarq	$63,%rdx
	movq	$137438953471,%rcx
	andq	%rcx,%rdx
	addq	%rdx,%rax
	sarq	$37,%rax
	movq	%rax,%r14
.Ll608:
# [1418] wv2ii:=(wv2ii div 137438953472);
	movq	%r13,%rax
	movq	%rax,%rcx
	sarq	$63,%rcx
	movq	$137438953471,%rdx
	andq	%rdx,%rcx
	addq	%rcx,%rax
	sarq	$37,%rax
	movq	%rax,%r13
.Ll609:
# [1419] wv3ii:=(wv3ii div 137438953472);
	movq	%r12,%rdx
	movq	%rdx,%rcx
	sarq	$63,%rcx
	movq	$137438953471,%rax
	andq	%rax,%rcx
	addq	%rcx,%rdx
	sarq	$37,%rdx
	movq	%rdx,%r12
.Ll610:
# [1421] fii:=1; fi2i:=1; fi3i:=1;
	movl	$1,%eax
	movq	%rax,40(%rsp)
	movl	$1,%ebp
	movl	$1,%eax
	movq	%rax,32(%rsp)
.Ll611:
# [1422] if f1 then begin fii:=wv1ii; wv1ii:=0; end;
	cmpb	$0,TC_$RETRO$_$SID$LONGINT$$TSAMPLE_$$_F1(%rip)
	je	.Lj1862
	movl	%r14d,%eax
	movl	%eax,%edx
	movq	%rdx,40(%rsp)
	movq	$0,%r14
.Lj1862:
.Ll612:
# [1423] if f2 then begin fi2i:=wv2ii; wv2ii:=0; end;
	cmpb	$0,TC_$RETRO$_$SID$LONGINT$$TSAMPLE_$$_F2(%rip)
	je	.Lj1868
	movl	%r13d,%eax
	movl	%eax,%ebp
	movq	$0,%r13
.Lj1868:
.Ll613:
# [1424] if f3 then begin fi3i:=wv3ii; wv3ii:=0; end;
	cmpb	$0,TC_$RETRO$_$SID$LONGINT$$TSAMPLE_$$_F3(%rip)
	je	.Lj1874
	movl	%r12d,%eax
	movl	%eax,%edx
	movq	%rdx,32(%rsp)
	movq	$0,%r12
.Lj1874:
.Ll614:
# [1426] filter_Hi  := fii - ((filter_Bi * filter_resonance2i) div 256) - filter_Li;
	movslq	TC_$RETRO$_$SID$LONGINT$$TSAMPLE_$$_FILTER_BI(%rip),%rdx
	movslq	TC_$RETRO$_$SID$LONGINT$$TSAMPLE_$$_FILTER_RESONANCE2I(%rip),%rax
	imulq	%rdx,%rax
# PeepHole Optimization,MovMov2Mov1
	movq	%rax,%rdx
	sarq	$63,%rax
	andq	$255,%rax
	addq	%rax,%rdx
	sarq	$8,%rdx
	movslq	40(%rsp),%rax
	subq	%rdx,%rax
	movslq	TC_$RETRO$_$SID$LONGINT$$TSAMPLE_$$_FILTER_LI(%rip),%rdx
	subq	%rdx,%rax
	movl	%eax,TC_$RETRO$_$SID$LONGINT$$TSAMPLE_$$_FILTER_HI(%rip)
.Ll615:
# [1427] filter_H2i  := fi2i - ((filter_B2i * filter_resonance2i) div 256) - filter_L2i;
	movslq	TC_$RETRO$_$SID$LONGINT$$TSAMPLE_$$_FILTER_B2I(%rip),%rdx
	movslq	TC_$RETRO$_$SID$LONGINT$$TSAMPLE_$$_FILTER_RESONANCE2I(%rip),%rax
	imulq	%rdx,%rax
# PeepHole Optimization,MovMov2Mov1
	movq	%rax,%rdx
	sarq	$63,%rax
	andq	$255,%rax
	addq	%rax,%rdx
	sarq	$8,%rdx
	movslq	%ebp,%rax
	subq	%rdx,%rax
	movslq	TC_$RETRO$_$SID$LONGINT$$TSAMPLE_$$_FILTER_L2I(%rip),%rdx
	subq	%rdx,%rax
	movl	%eax,TC_$RETRO$_$SID$LONGINT$$TSAMPLE_$$_FILTER_H2I(%rip)
.Ll616:
# [1428] filter_H3i  := fi3i - ((filter_B3i * filter_resonance2i) div 256) - filter_L3i;
	movslq	TC_$RETRO$_$SID$LONGINT$$TSAMPLE_$$_FILTER_B3I(%rip),%rdx
	movslq	TC_$RETRO$_$SID$LONGINT$$TSAMPLE_$$_FILTER_RESONANCE2I(%rip),%rax
	imulq	%rdx,%rax
# PeepHole Optimization,MovMov2Mov1
	movq	%rax,%rdx
	sarq	$63,%rax
	andq	$255,%rax
	addq	%rax,%rdx
	sarq	$8,%rdx
	movslq	32(%rsp),%rax
	subq	%rdx,%rax
	movslq	TC_$RETRO$_$SID$LONGINT$$TSAMPLE_$$_FILTER_L3I(%rip),%rdx
	subq	%rdx,%rax
	movl	%eax,TC_$RETRO$_$SID$LONGINT$$TSAMPLE_$$_FILTER_H3I(%rip)
.Ll617:
# [1430] filter_Bi += (filter_freqi * filter_Hi) div 32768;
	movslq	TC_$RETRO$_$SID$LONGINT$$TSAMPLE_$$_FILTER_FREQI(%rip),%rdx
	movslq	TC_$RETRO$_$SID$LONGINT$$TSAMPLE_$$_FILTER_HI(%rip),%rax
	imulq	%rdx,%rax
# PeepHole Optimization,MovMov2Mov1
	movq	%rax,%rdx
	sarq	$63,%rax
	andq	$32767,%rax
	addq	%rax,%rdx
	sarq	$15,%rdx
	movslq	TC_$RETRO$_$SID$LONGINT$$TSAMPLE_$$_FILTER_BI(%rip),%rax
	leaq	(%rdx,%rax),%rax
	movl	%eax,TC_$RETRO$_$SID$LONGINT$$TSAMPLE_$$_FILTER_BI(%rip)
.Ll618:
# [1431] filter_B2i += (filter_freqi * filter_H2i) div 32768;
	movslq	TC_$RETRO$_$SID$LONGINT$$TSAMPLE_$$_FILTER_FREQI(%rip),%rdx
	movslq	TC_$RETRO$_$SID$LONGINT$$TSAMPLE_$$_FILTER_H2I(%rip),%rax
	imulq	%rdx,%rax
# PeepHole Optimization,MovMov2Mov1
	movq	%rax,%rdx
	sarq	$63,%rax
	andq	$32767,%rax
	addq	%rax,%rdx
	sarq	$15,%rdx
	movslq	TC_$RETRO$_$SID$LONGINT$$TSAMPLE_$$_FILTER_B2I(%rip),%rax
	leaq	(%rdx,%rax),%rax
	movl	%eax,TC_$RETRO$_$SID$LONGINT$$TSAMPLE_$$_FILTER_B2I(%rip)
.Ll619:
# [1432] filter_B3i += (filter_freqi * filter_H3i) div 32768;
	movslq	TC_$RETRO$_$SID$LONGINT$$TSAMPLE_$$_FILTER_FREQI(%rip),%rdx
	movslq	TC_$RETRO$_$SID$LONGINT$$TSAMPLE_$$_FILTER_H3I(%rip),%rax
	imulq	%rdx,%rax
# PeepHole Optimization,MovMov2Mov1
	movq	%rax,%rdx
	sarq	$63,%rax
	andq	$32767,%rax
	addq	%rax,%rdx
	sarq	$15,%rdx
	movslq	TC_$RETRO$_$SID$LONGINT$$TSAMPLE_$$_FILTER_B3I(%rip),%rax
	leaq	(%rdx,%rax),%rax
	movl	%eax,TC_$RETRO$_$SID$LONGINT$$TSAMPLE_$$_FILTER_B3I(%rip)
.Ll620:
# [1434] filter_Li += (filter_freqi * filter_Bi) div 32768;
	movslq	TC_$RETRO$_$SID$LONGINT$$TSAMPLE_$$_FILTER_FREQI(%rip),%rdx
	movslq	TC_$RETRO$_$SID$LONGINT$$TSAMPLE_$$_FILTER_BI(%rip),%rax
	imulq	%rdx,%rax
# PeepHole Optimization,MovMov2Mov1
	movq	%rax,%rdx
	sarq	$63,%rax
	andq	$32767,%rax
	addq	%rax,%rdx
	sarq	$15,%rdx
	movslq	TC_$RETRO$_$SID$LONGINT$$TSAMPLE_$$_FILTER_LI(%rip),%rax
	leaq	(%rdx,%rax),%rax
	movl	%eax,TC_$RETRO$_$SID$LONGINT$$TSAMPLE_$$_FILTER_LI(%rip)
.Ll621:
# [1435] filter_L2i += (filter_freqi * filter_B2i) div 32768;
	movslq	TC_$RETRO$_$SID$LONGINT$$TSAMPLE_$$_FILTER_FREQI(%rip),%rdx
	movslq	TC_$RETRO$_$SID$LONGINT$$TSAMPLE_$$_FILTER_B2I(%rip),%rax
	imulq	%rdx,%rax
# PeepHole Optimization,MovMov2Mov1
	movq	%rax,%rdx
	sarq	$63,%rax
	andq	$32767,%rax
	addq	%rax,%rdx
	sarq	$15,%rdx
	movslq	TC_$RETRO$_$SID$LONGINT$$TSAMPLE_$$_FILTER_L2I(%rip),%rax
	leaq	(%rdx,%rax),%rax
	movl	%eax,TC_$RETRO$_$SID$LONGINT$$TSAMPLE_$$_FILTER_L2I(%rip)
.Ll622:
# [1436] filter_L3i += (filter_freqi * filter_B3i) div 32768;
	movslq	TC_$RETRO$_$SID$LONGINT$$TSAMPLE_$$_FILTER_FREQI(%rip),%rdx
	movslq	TC_$RETRO$_$SID$LONGINT$$TSAMPLE_$$_FILTER_B3I(%rip),%rax
	imulq	%rdx,%rax
# PeepHole Optimization,MovMov2Mov1
	movq	%rax,%rdx
	sarq	$63,%rax
	andq	$32767,%rax
	addq	%rax,%rdx
	sarq	$15,%rdx
	movslq	TC_$RETRO$_$SID$LONGINT$$TSAMPLE_$$_FILTER_L3I(%rip),%rax
	leaq	(%rdx,%rax),%rax
	movl	%eax,TC_$RETRO$_$SID$LONGINT$$TSAMPLE_$$_FILTER_L3I(%rip)
.Ll623:
# [1438] fouti:=wv1ii;
	movl	%r14d,%eax
	movl	%eax,%esi
.Ll624:
# [1439] fouti+=filter_li and fl;
	movl	TC_$RETRO$_$SID$LONGINT$$TSAMPLE_$$_FILTER_LI(%rip),%edx
	movl	TC_$RETRO$_$SID$LONGINT$$TSAMPLE_$$_FL(%rip),%eax
	andl	%edx,%eax
	leal	(%eax,%esi),%eax
	movl	%eax,%esi
.Ll625:
# [1440] fouti+=filter_bi and fb;
	movl	TC_$RETRO$_$SID$LONGINT$$TSAMPLE_$$_FILTER_BI(%rip),%edx
	movl	TC_$RETRO$_$SID$LONGINT$$TSAMPLE_$$_FB(%rip),%eax
	andl	%edx,%eax
	leal	(%eax,%esi),%eax
	movl	%eax,%esi
.Ll626:
# [1441] fouti+=filter_hi and fu;
	movl	TC_$RETRO$_$SID$LONGINT$$TSAMPLE_$$_FILTER_HI(%rip),%edx
	movl	TC_$RETRO$_$SID$LONGINT$$TSAMPLE_$$_FU(%rip),%eax
	andl	%edx,%eax
	leal	(%eax,%esi),%eax
	movl	%eax,%esi
.Ll627:
# [1443] fout2i:=wv2ii;
	movl	%r13d,%eax
	movl	%eax,%ebx
.Ll628:
# [1444] fout2i+=filter_l2i and fl;
	movl	TC_$RETRO$_$SID$LONGINT$$TSAMPLE_$$_FILTER_L2I(%rip),%edx
	movl	TC_$RETRO$_$SID$LONGINT$$TSAMPLE_$$_FL(%rip),%eax
	andl	%edx,%eax
	leal	(%eax,%ebx),%eax
	movl	%eax,%ebx
.Ll629:
# [1445] fout2i+=filter_b2i and fb;
	movl	TC_$RETRO$_$SID$LONGINT$$TSAMPLE_$$_FILTER_B2I(%rip),%edx
	movl	TC_$RETRO$_$SID$LONGINT$$TSAMPLE_$$_FB(%rip),%eax
	andl	%edx,%eax
	leal	(%eax,%ebx),%eax
	movl	%eax,%ebx
.Ll630:
# [1446] fout2i+=filter_h2i and fu;
	movl	TC_$RETRO$_$SID$LONGINT$$TSAMPLE_$$_FILTER_H2I(%rip),%edx
	movl	TC_$RETRO$_$SID$LONGINT$$TSAMPLE_$$_FU(%rip),%eax
	andl	%edx,%eax
	leal	(%eax,%ebx),%eax
	movl	%eax,%ebx
.Ll631:
# [1448] fout3i:=wv3ii;
	movl	%r12d,%eax
	movl	%eax,%edi
.Ll632:
# [1449] fout3i+=filter_l3i and fl;
	movl	TC_$RETRO$_$SID$LONGINT$$TSAMPLE_$$_FILTER_L3I(%rip),%edx
	movl	TC_$RETRO$_$SID$LONGINT$$TSAMPLE_$$_FL(%rip),%eax
	andl	%edx,%eax
	leal	(%eax,%edi),%eax
	movl	%eax,%edi
.Ll633:
# [1450] fout3i+=filter_b3i and fb;
	movl	TC_$RETRO$_$SID$LONGINT$$TSAMPLE_$$_FILTER_B3I(%rip),%edx
	movl	TC_$RETRO$_$SID$LONGINT$$TSAMPLE_$$_FB(%rip),%eax
	andl	%edx,%eax
	leal	(%eax,%edi),%eax
	movl	%eax,%edi
.Ll634:
# [1451] fout3i+=filter_h3i and fu;
	movl	TC_$RETRO$_$SID$LONGINT$$TSAMPLE_$$_FILTER_H3I(%rip),%edx
	movl	TC_$RETRO$_$SID$LONGINT$$TSAMPLE_$$_FU(%rip),%eax
	andl	%edx,%eax
	leal	(%eax,%edi),%eax
	movl	%eax,%edi
.Ll635:
# [1453] wv5i:=(volume*((fouti div 2)+(fout2i div 4)+ (fout2i div 2)+(fout3i)));
	movslq	%esi,%rax
# PeepHole Optimization,MovMov2Mov1
	movq	%rax,%rcx
	sarq	$63,%rax
	andq	$1,%rax
	addq	%rax,%rcx
	sarq	$1,%rcx
	movslq	%ebx,%rax
.Ll636:
	movq	%rax,%r8
.Ll637:
	movq	%r8,%rdx
	movq	%rdx,%rax
	sarq	$63,%rax
	andq	$3,%rax
	addq	%rax,%rdx
	sarq	$2,%rdx
	leaq	(%rcx,%rdx),%rcx
	movq	%r8,%rax
	movq	%rax,%rdx
	sarq	$63,%rdx
	andq	$1,%rdx
	addq	%rdx,%rax
	sarq	$1,%rax
	leaq	(%rcx,%rax),%rdx
	movslq	%edi,%rax
	leaq	(%rdx,%rax),%rdx
	movslq	TC_$RETRO$_$SID$LONGINT$$TSAMPLE_$$_VOLUME(%rip),%rax
	imulq	%rdx,%rax
	movl	%eax,TC_$RETRO$_$SID$LONGINT$$TSAMPLE_$$_WV5I(%rip)
.Ll638:
# [1454] wv4i:=(volume*((fouti)+(fout2i div 4)+ (fout2i div 2)+(fout3i div 2)));
	movslq	%ebx,%rax
.Ll639:
	movq	%rax,%r8
.Ll640:
	movq	%r8,%rdx
	movq	%rdx,%rax
	sarq	$63,%rax
	andq	$3,%rax
	addq	%rax,%rdx
	sarq	$2,%rdx
	movslq	%esi,%rax
	leaq	(%rdx,%rax),%rcx
	movq	%r8,%rax
	movq	%rax,%rdx
	sarq	$63,%rdx
	andq	$1,%rdx
	addq	%rdx,%rax
	sarq	$1,%rax
	leaq	(%rcx,%rax),%rcx
	movslq	%edi,%rax
# PeepHole Optimization,MovMov2Mov1
	movq	%rax,%rdx
	sarq	$63,%rax
	andq	$1,%rax
	addq	%rax,%rdx
	sarq	$1,%rdx
	leaq	(%rcx,%rdx),%rdx
	movslq	TC_$RETRO$_$SID$LONGINT$$TSAMPLE_$$_VOLUME(%rip),%rax
	imulq	%rdx,%rax
	movl	%eax,TC_$RETRO$_$SID$LONGINT$$TSAMPLE_$$_WV4I(%rip)
.Ll641:
# [1457] sri+=wv4i;
	movl	TC_$RETRO$_$SID$LONGINT$$TSAMPLE_$$_SRI(%rip),%edx
	movl	TC_$RETRO$_$SID$LONGINT$$TSAMPLE_$$_WV4I(%rip),%eax
	leal	(%edx,%eax),%eax
	movl	%eax,TC_$RETRO$_$SID$LONGINT$$TSAMPLE_$$_SRI(%rip)
.Ll642:
# [1458] sli+=wv5i;
	movl	TC_$RETRO$_$SID$LONGINT$$TSAMPLE_$$_SLI(%rip),%edx
	movl	TC_$RETRO$_$SID$LONGINT$$TSAMPLE_$$_WV5I(%rip),%eax
	leal	(%edx,%eax),%eax
	movl	%eax,TC_$RETRO$_$SID$LONGINT$$TSAMPLE_$$_SLI(%rip)
.Ll643:
	movl	72(%rsp),%eax
	cmpl	$5,%eax
	jl	.Lj1437
.Ll644:
# [1461] sid1:=sri div 512;
	movslq	TC_$RETRO$_$SID$LONGINT$$TSAMPLE_$$_SRI(%rip),%rsi
	movq	%rsi,%rax
	sarq	$63,%rax
	andq	$511,%rax
	addq	%rax,%rsi
	sarq	$9,%rsi
# Var sid1 located in register esi
.Ll645:
# [1462] sid1l:=sli div 512;
	movslq	TC_$RETRO$_$SID$LONGINT$$TSAMPLE_$$_SLI(%rip),%rbx
	movq	%rbx,%rax
	sarq	$63,%rax
	andq	$511,%rax
	addq	%rax,%rbx
	sarq	$9,%rbx
# Var sid1l located in register ebx
.Ll646:
# [1463] oldsc:=sc;
	movl	TC_$RETRO$_$SID$LONGINT$$TSAMPLE_$$_SC(%rip),%eax
	movl	%eax,TC_$RETRO$_$SID$LONGINT$$TSAMPLE_$$_OLDSC(%rip)
.Ll647:
# [1464] sc:=sid1+sid1l;
	leal	(%esi,%ebx),%eax
# PeepHole Optimization,MovMov2Mov1
	movl	%eax,TC_$RETRO$_$SID$LONGINT$$TSAMPLE_$$_SC(%rip)
.Ll648:
# [1465] if abs(sc)>65535 then lpoke ($6000c,$FF0000);
	movl	%eax,%edx
	negl	%edx
	cmovnsl	%edx,%eax
	cmpl	$65535,%eax
	jng	.Lj1942
	movl	$16711680,%edx
	movl	$393228,%ecx
	call	RETRO_$$_LPOKE$LONGINT$LONGWORD
.Lj1942:
.Ll649:
# [1467] sid[0]:=sid1;
	movq	80(%rsp),%rax
	movw	%si,(%rax)
.Ll650:
# [1468] sid[1]:=sid1l;
	movq	80(%rsp),%rax
	movw	%bx,2(%rax)
.Ll651:
# [1469] end;
	nop
	leaq	88(%rsp),%rsp
	popq	%rbp
	popq	%r15
	popq	%r14
	popq	%r13
	popq	%r12
	popq	%rsi
	popq	%rdi
	popq	%rbx
	ret
.seh_endproc
.Lc111:
.Lt28:
.Ll652:

.section .data.n_RETRO_$$_SID$LONGINT$$TSAMPLE,"d"
	.balign 4
.Ld16:
	.long	.Lj1509-.Ld16
	.long	.Lj1510-.Ld16
	.long	.Lj1511-.Ld16
	.long	.Lj1512-.Ld16
	.long	.Lj1513-.Ld16
	.long	.Lj1514-.Ld16
	.long	.Lj1515-.Ld16
	.long	.Lj1516-.Ld16
	.long	.Lj1517-.Ld16
	.long	.Lj1518-.Ld16
	.long	.Lj1519-.Ld16
	.long	.Lj1520-.Ld16
	.long	.Lj1520-.Ld16
	.long	.Lj1520-.Ld16
	.long	.Lj1520-.Ld16
	.long	.Lj1520-.Ld16

.section .data.n_RETRO_$$_SID$LONGINT$$TSAMPLE,"d"
	.balign 4
.Ld18:
	.long	.Lj1575-.Ld18
	.long	.Lj1576-.Ld18
	.long	.Lj1577-.Ld18
	.long	.Lj1578-.Ld18
	.long	.Lj1579-.Ld18
	.long	.Lj1580-.Ld18
	.long	.Lj1581-.Ld18
	.long	.Lj1582-.Ld18
	.long	.Lj1583-.Ld18
	.long	.Lj1584-.Ld18
	.long	.Lj1585-.Ld18
	.long	.Lj1586-.Ld18
	.long	.Lj1586-.Ld18
	.long	.Lj1586-.Ld18
	.long	.Lj1586-.Ld18
	.long	.Lj1586-.Ld18

.section .data.n_RETRO_$$_SID$LONGINT$$TSAMPLE,"d"
	.balign 4
.Ld19:
	.long	.Lj1641-.Ld19
	.long	.Lj1642-.Ld19
	.long	.Lj1643-.Ld19
	.long	.Lj1644-.Ld19
	.long	.Lj1645-.Ld19
	.long	.Lj1646-.Ld19
	.long	.Lj1647-.Ld19
	.long	.Lj1648-.Ld19
	.long	.Lj1649-.Ld19
	.long	.Lj1650-.Ld19
	.long	.Lj1651-.Ld19
	.long	.Lj1652-.Ld19
	.long	.Lj1652-.Ld19
	.long	.Lj1652-.Ld19
	.long	.Lj1652-.Ld19
	.long	.Lj1652-.Ld19

.section .text.n_retro_$$_initnotes,"x"
	.balign 16,0x90
.globl	RETRO_$$_INITNOTES
RETRO_$$_INITNOTES:
.Lc113:
# Var i located in register edx
# Var q located in register xmm1
# [1527] begin
# Var q located in register xmm1
.Ll653:
# [1528] q:=c03;
	movsd	_$RETRO$_Ld20(%rip),%xmm1
# Var i located in register edx
.Ll654:
# [1529] for i:=0 to 127 do
	movl	$0,%edx
	subl	$1,%edx
	.balign 8,0x90
.Lj1957:
	addl	$1,%edx
# PeepHole Optimization,var2a
.Ll655:
# [1531] notes[i]:=round(q*norm960*65536);
	movl	%edx,%eax
	movapd	%xmm1,%xmm0
	mulsd	_$RETRO$_Ld21(%rip),%xmm0
	mulsd	_$RETRO$_Ld22(%rip),%xmm0
	cvtsd2siq	%xmm0,%rcx
	leaq	U_$RETRO_$$_NOTES(%rip),%r8
	movl	%ecx,(%r8,%rax,4)
.Ll656:
# [1532] q:=q*a212;
	movapd	%xmm1,%xmm0
	mulsd	_$RETRO$_Ld23(%rip),%xmm0
	movapd	%xmm0,%xmm1
.Ll657:
	cmpl	$127,%edx
	jl	.Lj1957
.Ll658:
# [1534] end;
	ret
.Lc114:
.Lt40:
.Ll659:

.section .text.n_retro_$$_initsinetable,"x"
	.balign 16,0x90
.globl	RETRO_$$_INITSINETABLE
RETRO_$$_INITSINETABLE:
.Lc115:
.seh_proc RETRO_$$_INITSINETABLE
.Ll660:
# [1539] begin
	pushq	%rbx
.seh_pushreg %rbx
	leaq	-32(%rsp),%rsp
.Lc117:
.seh_stackalloc 32
# Var i located in register ebx
.seh_endprologue
# Var i located in register ebx
.Ll661:
# [1540] for i:=0 to 65535 do
	movl	$0,%ebx
	subl	$1,%ebx
	.balign 8,0x90
.Lj1966:
	addl	$1,%ebx
.Ll662:
# [1541] sinetable[i]:=round(8388607*sin(2*pi*i/65536));
	cvtsi2sd	%ebx,%xmm0
	mulsd	_$RETRO$_Ld25(%rip),%xmm0
	mulsd	_$RETRO$_Ld26(%rip),%xmm0
	call	fpc_sin_real
	mulsd	_$RETRO$_Ld24(%rip),%xmm0
	cvtsd2siq	%xmm0,%rax
# PeepHole Optimization,var2a
	movl	%ebx,%edx
	leaq	U_$RETRO_$$_SINETABLE(%rip),%rcx
	movl	%eax,(%rcx,%rdx,4)
.Ll663:
	cmpl	$65535,%ebx
	jl	.Lj1966
.Ll664:
# [1543] end;
	nop
	leaq	32(%rsp),%rsp
	popq	%rbx
	ret
.seh_endproc
.Lc116:
.Lt41:
.Ll665:

.section .text.n_retro_$$_initlogtable,"x"
	.balign 16,0x90
.globl	RETRO_$$_INITLOGTABLE
RETRO_$$_INITLOGTABLE:
.Lc118:
# Var i located in register ecx
# Var q located in register xmm1
# Var q2 located in register xmm2
# [1550] begin
# Var q located in register xmm1
.Ll666:
# [1551] q:=4294967296;
	movsd	_$RETRO$_Ld27(%rip),%xmm1
# Var q2 located in register xmm2
.Ll667:
# [1552] q2:=0.999841363784793800909651;
	movsd	_$RETRO$_Ld28(%rip),%xmm2
# Var i located in register ecx
.Ll668:
# [1554] for i:=65535 downto 0 do
	movl	$65535,%ecx
	addl	$1,%ecx
	.balign 8,0x90
.Lj1979:
	subl	$1,%ecx
.Ll669:
# [1556] q:=q*q2;
	movapd	%xmm1,%xmm0
	mulsd	%xmm2,%xmm0
	movapd	%xmm0,%xmm1
.Ll670:
# [1557] logtable[i]:=trunc(q);
	movapd	%xmm1,%xmm0
	cvttsd2siq	%xmm0,%rax
# PeepHole Optimization,var2a
	movl	%ecx,%edx
	leaq	U_$RETRO_$$_LOGTABLE(%rip),%r8
	movl	%eax,(%r8,%rdx,4)
.Ll671:
	testl	%ecx,%ecx
	jg	.Lj1979
.Ll672:
# [1559] end;
	ret
.Lc119:
.Lt42:
.Ll673:

.section .text.n_retro_$$_fmsynth$$tsample,"x"
	.balign 16,0x90
.globl	RETRO_$$_FMSYNTH$$TSAMPLE
RETRO_$$_FMSYNTH$$TSAMPLE:
.Lc120:
.seh_proc RETRO_$$_FMSYNTH$$TSAMPLE
.Ll674:
# [1620] begin
	pushq	%rbx
.seh_pushreg %rbx
	pushq	%rdi
.seh_pushreg %rdi
	pushq	%rsi
.seh_pushreg %rsi
	leaq	-32(%rsp),%rsp
.Lc122:
.seh_stackalloc 32
# Var $result located in register rsi
# Var res64a located in register rax
# Var vel located in register r9
# Var modulator located in register r8
# Var i located in register r10d
# Var j located in register eax
# Var sample located in register rbx
.seh_endprologue
	movq	%rcx,%rsi
.Ll675:
# [1621] ft:=gettime;
	call	RETRO_$$_GETTIME$$INT64
	movq	%rax,U_$RETRO_$$_FT(%rip)
# Var i located in register r10d
.Ll676:
# [1641] for i:=1 to 1000 do
	movl	$1,%r10d
	subl	$1,%r10d
	.balign 8,0x90
.Lj1990:
	addl	$1,%r10d
.Ll677:
	leaq	U_$RETRO_$$_OPDATA(%rip),%rax
.Ll678:
# [1643] opdata[0]:=(opdata[0]+((opdata[1]*opdata[2]) shr 24)*opdata[3]*opdata[4] shr 24);
	movl	4(%rax),%ecx
	movl	8(%rax),%edx
	imulq	%rcx,%rdx
	shrq	$24,%rdx
	movl	12(%rax),%ecx
	imulq	%rdx,%rcx
	movl	16(%rax),%edx
	imulq	%rcx,%rdx
	shrq	$24,%rdx
	movl	(%rax),%ecx
	leaq	(%rdx,%rcx),%rdx
	movl	%edx,(%rax)
.Ll679:
	leaq	U_$RETRO_$$_OUTPUTTABLE(%rip),%rax
.Ll680:
# [1647] modulator:=outputtable[0]*opdata[6]
	movslq	(%rax),%r11
.Ll681:
	leaq	U_$RETRO_$$_OPDATA(%rip),%rdx
.Ll682:
	movl	24(%rdx),%ecx
	imulq	%r11,%rcx
.Ll683:
# [1648] +outputtable[1]*opdata[7]
	movslq	4(%rax),%rdi
	movl	28(%rdx),%r11d
	imulq	%rdi,%r11
	leaq	(%rcx,%r11),%r11
.Ll684:
# [1649] +outputtable[2]*opdata[8]
	movslq	8(%rax),%rdi
	movl	32(%rdx),%ecx
	imulq	%rdi,%rcx
	leaq	(%r11,%rcx),%r11
.Ll685:
# [1650] +outputtable[3]*opdata[9]
	movslq	12(%rax),%rdi
	movl	36(%rdx),%ecx
	imulq	%rdi,%rcx
	leaq	(%r11,%rcx),%r11
.Ll686:
# [1651] +outputtable[4]*opdata[10]
	movslq	16(%rax),%rdi
	movl	40(%rdx),%ecx
	imulq	%rdi,%rcx
	leaq	(%r11,%rcx),%r11
.Ll687:
# [1652] +outputtable[5]*opdata[11]
	movslq	20(%rax),%rdi
	movl	44(%rdx),%ecx
	imulq	%rdi,%rcx
	leaq	(%r11,%rcx),%r11
.Ll688:
# [1653] +outputtable[6]*opdata[12]
	movslq	24(%rax),%rdi
	movl	48(%rdx),%ecx
	imulq	%rdi,%rcx
	leaq	(%r11,%rcx),%r11
.Ll689:
# [1654] +outputtable[7]*opdata[13];
	movslq	28(%rax),%rcx
	movl	52(%rdx),%eax
	imulq	%rcx,%rax
	leaq	(%r11,%rax),%rax
.Ll690:
	movq	%rax,%r8
.Ll691:
	leaq	U_$RETRO_$$_OPDATA(%rip),%rax
.Ll692:
# [1656] opdata[5]:=((opdata[5]+(modulator shr 32)+opdata[0]));
	movl	20(%rax),%ecx
	movq	%r8,%rdx
	shrq	$32,%rdx
	leaq	(%rcx,%rdx),%rdx
	movl	(%rax),%ecx
	leaq	(%rdx,%rcx),%rdx
	movl	%edx,20(%rax)
.Ll693:
# [1663] sample:=sinetable[opdata[5]];
	movl	U_$RETRO_$$_OPDATA+20(%rip),%edx
	leaq	U_$RETRO_$$_SINETABLE(%rip),%rax
	movslq	(%rax,%rdx,4),%rax
	movq	%rax,%rbx
.Ll694:
# [1680] if opdata[19]=4 then  // release
	cmpl	$4,U_$RETRO_$$_OPDATA+76(%rip)
	jne	.Lj2008
.Ll695:
	leaq	U_$RETRO_$$_OPDATA(%rip),%rax
.Ll696:
# [1682] opdata[18]:=opdata[18]+opdata[26];
	movl	72(%rax),%ecx
	movl	104(%rax),%edx
	leal	(%ecx,%edx),%edx
	movl	%edx,72(%rax)
	jmp	.Lj2013
.Lj2008:
.Ll697:
# [1687] else if opdata[19]=1 then //attack
	cmpl	$1,U_$RETRO_$$_OPDATA+76(%rip)
	jne	.Lj2015
.Ll698:
	leaq	U_$RETRO_$$_OPDATA(%rip),%rax
.Ll699:
# [1689] opdata[18]:=opdata[18]+opdata[20];
	movl	72(%rax),%edx
	movl	80(%rax),%ecx
	leal	(%edx,%ecx),%edx
	movl	%edx,72(%rax)
.Ll700:
	leaq	U_$RETRO_$$_OPDATA(%rip),%rax
.Ll701:
# [1690] if opdata[20]>=opdata[21] then opdata[19]:=2;
	movl	80(%rax),%edx
	cmpl	84(%rax),%edx
.Ll702:
	jnae	.Lj2026
.Ll703:
	movl	$2,U_$RETRO_$$_OPDATA+76(%rip)
	jmp	.Lj2026
.Lj2015:
.Ll704:
# [1692] else if opdata[19]=2 then  // decay 1
	cmpl	$2,U_$RETRO_$$_OPDATA+76(%rip)
	jne	.Lj2028
.Ll705:
	leaq	U_$RETRO_$$_OPDATA(%rip),%rax
.Ll706:
# [1694] opdata[18]:=opdata[18]+opdata[22];
	movl	72(%rax),%edx
	movl	88(%rax),%ecx
	leal	(%edx,%ecx),%edx
	movl	%edx,72(%rax)
	jmp	.Lj2033
.Lj2028:
.Ll707:
# [1699] else if opdata[19]=3 then  // decay 2
	cmpl	$3,U_$RETRO_$$_OPDATA+76(%rip)
	jne	.Lj2035
.Ll708:
	leaq	U_$RETRO_$$_OPDATA(%rip),%rax
.Ll709:
# [1701] opdata[18]:=opdata[18]+opdata[24];
	movl	72(%rax),%ecx
	movl	96(%rax),%edx
	leal	(%ecx,%edx),%edx
	movl	%edx,72(%rax)
.Lj2035:
.Lj2033:
.Lj2026:
.Lj2013:
.Ll710:
# [1707] sample:=(sample*opdata[18])shr 32;
	movl	U_$RETRO_$$_OPDATA+72(%rip),%edx
	movq	%rbx,%rax
	imulq	%rdx,%rax
	shrq	$32,%rax
	movq	%rax,%rbx
.Ll711:
	leaq	U_$RETRO_$$_OPDATA(%rip),%rax
.Ll712:
# [1722] sample:=(sample*opdata[29]*opdata[30]) shr 24;
	movl	116(%rax),%ecx
	movq	%rbx,%rdx
	imulq	%rcx,%rdx
	movl	120(%rax),%eax
	imulq	%rdx,%rax
	shrq	$24,%rax
	movq	%rax,%rbx
.Ll713:
	leaq	U_$RETRO_$$_OPDATA(%rip),%rax
.Ll714:
# [1723] vel:=$FFFFFF-opdata[31]+opdata[31]*opdata[32];
	movl	128(%rax),%ecx
.Ll715:
	movl	124(%rax),%edx
# PeepHole Optimization,var2a
.Ll716:
	movl	%edx,%eax
	imulq	%rcx,%rax
	andl	$4294967295,%edx
	movq	$16777215,%rcx
	subq	%rdx,%rcx
	leaq	(%rax,%rcx),%rax
# PeepHole Optimization,MovMov2Mov1
	movq	%rax,%r9
.Ll717:
# [1724] sample:=(sample*vel) shr 24;
	imulq	%rbx,%rax
	shrq	$24,%rax
	movq	%rax,%rbx
.Ll718:
# [1725] sample:=(sample*opdata[33]) div $1000000;
	movl	U_$RETRO_$$_OPDATA+132(%rip),%edx
	movq	%rbx,%rax
	imulq	%rdx,%rax
	movq	%rax,%rdx
	sarq	$63,%rdx
	andq	$16777215,%rdx
	addq	%rdx,%rax
	sarq	$24,%rax
	movq	%rax,%rbx
.Ll719:
# [1726] sample:=(sample*opdata[34]) div $1000000;
	movl	U_$RETRO_$$_OPDATA+136(%rip),%edx
	movq	%rbx,%rax
	imulq	%rdx,%rax
	movq	%rax,%rdx
	sarq	$63,%rdx
	andq	$16777215,%rdx
	addq	%rdx,%rax
	sarq	$24,%rax
	movq	%rax,%rbx
.Ll720:
	cmpl	$1000,%r10d
	jl	.Lj1990
.Ll721:
# [1733] ftt:=gettime-ft;
	call	RETRO_$$_GETTIME$$INT64
	movq	U_$RETRO_$$_FT(%rip),%rdx
	subq	%rdx,%rax
	movq	%rax,U_$RETRO_$$_FTT(%rip)
.Ll722:
# [1737] fmsynth[0]:=sample;
	movw	%bx,%ax
	movw	%ax,(%rsi)
.Ll723:
# [1738] fmsynth[1]:=sample;
	movw	%bx,2(%rsi)
.Ll724:
# [1740] end;
	nop
	leaq	32(%rsp),%rsp
	popq	%rsi
	popq	%rdi
	popq	%rbx
	ret
.seh_endproc
.Lc121:
.Lt44:
.Ll725:

.section .text.n_retro_$$_antialias6$double$tfiltertable$$double,"x"
	.balign 16,0x90
.globl	RETRO_$$_ANTIALIAS6$DOUBLE$TFILTERTABLE$$DOUBLE
RETRO_$$_ANTIALIAS6$DOUBLE$TFILTERTABLE$$DOUBLE:
.Lc123:
# Var input located in register xmm0
# Var ft located in register rax
# Var $result located in register xmm0
.Ll726:
# [1751] begin
	movq	%rdx,%rax
.Ll727:
# [1753] ft[0]:=ft[1];
	movq	8(%rax),%rdx
	movq	%rdx,(%rax)
.Ll728:
# [1754] ft[1]:=ft[2];
	movq	16(%rax),%rdx
	movq	%rdx,8(%rax)
.Ll729:
# [1755] ft[2]:=ft[3];
	movq	24(%rax),%rdx
	movq	%rdx,16(%rax)
.Ll730:
# [1756] ft[3]:=ft[4];
	movq	32(%rax),%rdx
	movq	%rdx,24(%rax)
.Ll731:
# [1757] ft[4]:=ft[5];
	movq	40(%rax),%rdx
	movq	%rdx,32(%rax)
.Ll732:
# [1758] ft[5]:=ft[6];
	movq	48(%rax),%rdx
	movq	%rdx,40(%rax)
.Ll733:
# [1760] ft[6]:=input/gain;
	divsd	TC_$RETRO$_$ANTIALIAS6$DOUBLE$TFILTERTABLE$$DOUBLE_$$_GAIN(%rip),%xmm0
	movsd	%xmm0,48(%rax)
.Ll734:
# [1762] ft[7]:=ft[8];
	movq	64(%rax),%rdx
	movq	%rdx,56(%rax)
.Ll735:
# [1763] ft[8]:=ft[9];
	movq	72(%rax),%rdx
	movq	%rdx,64(%rax)
.Ll736:
# [1764] ft[9]:=ft[10];
	movq	80(%rax),%rdx
	movq	%rdx,72(%rax)
.Ll737:
# [1765] ft[10]:=ft[11];
	movq	88(%rax),%rdx
	movq	%rdx,80(%rax)
.Ll738:
# [1766] ft[11]:=ft[12];
	movq	96(%rax),%rdx
	movq	%rdx,88(%rax)
.Ll739:
# [1767] ft[12]:=ft[13];
	movq	104(%rax),%rdx
	movq	%rdx,96(%rax)
.Ll740:
# [1769] ft[13]:=(ft[0]+ft[6])+6*(ft[1]+ft[5])+15*(ft[3]+ft[4])+20*ft[3]
	movsd	8(%rax),%xmm0
	addsd	40(%rax),%xmm0
	mulsd	_$RETRO$_Ld29(%rip),%xmm0
	movsd	(%rax),%xmm1
	addsd	48(%rax),%xmm1
	addsd	%xmm1,%xmm0
.Ll741:
	movsd	24(%rax),%xmm2
.Ll742:
	movapd	%xmm2,%xmm1
	addsd	32(%rax),%xmm1
	mulsd	_$RETRO$_Ld30(%rip),%xmm1
	addsd	%xmm0,%xmm1
	movsd	_$RETRO$_Ld31(%rip),%xmm0
	mulsd	%xmm2,%xmm0
	addsd	%xmm1,%xmm0
.Ll743:
# [1770] + ( -0.7992422456 * ft[7]) + (  4.9534616898 * ft[8])
	movsd	_$RETRO$_Ld32(%rip),%xmm1
	mulsd	56(%rax),%xmm1
	addsd	%xmm0,%xmm1
	movsd	_$RETRO$_Ld33(%rip),%xmm0
	mulsd	64(%rax),%xmm0
	addsd	%xmm1,%xmm0
.Ll744:
# [1771] + (-12.8163705530 * ft[9]) + ( 17.7202717200 * ft[10])
	movsd	_$RETRO$_Ld34(%rip),%xmm1
	mulsd	72(%rax),%xmm1
	addsd	%xmm0,%xmm1
	movsd	_$RETRO$_Ld35(%rip),%xmm0
	mulsd	80(%rax),%xmm0
	addsd	%xmm1,%xmm0
.Ll745:
# [1772] + (-13.8090381750 * ft[11]) + (  5.7509166299 * ft[12]);
	movsd	_$RETRO$_Ld36(%rip),%xmm1
	mulsd	88(%rax),%xmm1
	addsd	%xmm0,%xmm1
	movsd	_$RETRO$_Ld37(%rip),%xmm0
	mulsd	96(%rax),%xmm0
	addsd	%xmm1,%xmm0
.Ll746:
	movsd	%xmm0,104(%rax)
# Var $result located in register xmm0
.Ll747:
# [1774] antialias6:=ft[13];
	movsd	104(%rax),%xmm0
.Ll748:
# [1775] end;
	ret
.Lc124:
.Lt39:
.Ll749:

.section .text.n_retro_$$_sdl_sound_init$$longint,"x"
	.balign 16,0x90
.globl	RETRO_$$_SDL_SOUND_INIT$$LONGINT
RETRO_$$_SDL_SOUND_INIT$$LONGINT:
.Lc125:
.seh_proc RETRO_$$_SDL_SOUND_INIT$$LONGINT
.Ll750:
# [1781] begin
	pushq	%rbx
.seh_pushreg %rbx
	leaq	-32(%rsp),%rsp
.Lc127:
.seh_stackalloc 32
# Var $result located in register ebx
.seh_endprologue
# Var $result located in register ebx
.Ll751:
# [1782] Result:=0;
	movl	$0,%ebx
.Ll752:
# [1783] desired.freq := 192000;                                     // sample rate
	movl	$192000,U_$RETRO_$$_DESIRED(%rip)
.Ll753:
# [1784] desired.format := AUDIO_S16;                               // 16-bit samples
	movw	$32784,U_$RETRO_$$_DESIRED+4(%rip)
.Ll754:
# [1785] desired.samples := 1920;                                    // samples for 1 callback
	movw	$1920,U_$RETRO_$$_DESIRED+8(%rip)
.Ll755:
# [1786] desired.channels := 2;                                     // stereo
	movb	$2,U_$RETRO_$$_DESIRED+6(%rip)
.Ll756:
# [1787] desired.callback := @AudioCallback;
	leaq	RETRO_$$_AUDIOCALLBACK$POINTER$PBYTE$LONGINT(%rip),%rax
	movq	%rax,U_$RETRO_$$_DESIRED+16(%rip)
.Ll757:
# [1788] desired.userdata := nil;
	movq	$0,U_$RETRO_$$_DESIRED+24(%rip)
.Ll758:
# [1790] if (SDL_OpenAudio(@desired, @obtained) < 0) then
	leaq	U_$RETRO_$$_OBTAINED(%rip),%rdx
	leaq	U_$RETRO_$$_DESIRED(%rip),%rcx
	call	_$dll$sdl2$SDL_OpenAudio
	cmpl	$0,%eax
	jnl	.Lj2115
.Ll759:
# [1792] Result:=-2;
	movl	$-2,%ebx
.Lj2115:
.Ll760:
# [1794] end;
	movl	%ebx,%eax
	nop
	leaq	32(%rsp),%rsp
	popq	%rbx
	ret
.seh_endproc
.Lc126:
.Lt38:
.Ll761:

.section .text.n_retro_$$_audiocallback$pointer$pbyte$longint,"x"
	.balign 16,0x90
.globl	RETRO_$$_AUDIOCALLBACK$POINTER$PBYTE$LONGINT
RETRO_$$_AUDIOCALLBACK$POINTER$PBYTE$LONGINT:
.Lc128:
# Temps allocated between rsp+72 and rsp+80
.seh_proc RETRO_$$_AUDIOCALLBACK$POINTER$PBYTE$LONGINT
.Ll762:
# [1809] begin
	pushq	%rbx
.seh_pushreg %rbx
	pushq	%rdi
.seh_pushreg %rdi
	pushq	%rsi
.seh_pushreg %rsi
	pushq	%r12
.seh_pushreg %r12
	pushq	%r13
.seh_pushreg %r13
	pushq	%r14
.seh_pushreg %r14
	pushq	%r15
.seh_pushreg %r15
	leaq	-80(%rsp),%rsp
.Lc130:
.seh_stackalloc 80
# Var userdata located in register rcx
# Var audio located in register rbx
# Var length located in register r8d
# Var audio2 located in register rbx
# Var t located in register rsi
# Var k located in register r14d
# Var i located in register edi
# Var il located in register r12d
# Var s1 located in register r13w
.seh_endprologue
# Var s located at rsp+32, size=OS_32
# Var buf located at rsp+40, size=OS_NO
	movq	%rdx,%rbx
# Var audio2 located in register rbx
# Var audio located in register rbx
.Ll763:
# [1812] t:=gettime;
	call	RETRO_$$_GETTIME$$INT64
	movq	%rax,%rsi
# Var t located in register rsi
# Var k located in register r14d
.Ll764:
# [1814] for k:=0 to 3 do
	movl	$0,%r14d
	subl	$1,%r14d
	.balign 8,0x90
.Lj2130:
	addl	$1,%r14d
.Ll765:
# [1816] aa+=2500;
	movl	TC_$RETRO$_$AUDIOCALLBACK$POINTER$PBYTE$LONGINT_$$_AA(%rip),%eax
	leal	2500(%eax),%eax
	movl	%eax,TC_$RETRO$_$AUDIOCALLBACK$POINTER$PBYTE$LONGINT_$$_AA(%rip)
.Ll766:
# [1817] if (aa>=siddelay) then
	movslq	TC_$RETRO$_$AUDIOCALLBACK$POINTER$PBYTE$LONGINT_$$_AA(%rip),%rax
	cmpq	TC_$RETRO_$$_SIDDELAY(%rip),%rax
	jnge	.Lj2134
.Ll767:
# [1819] aa-=siddelay;
	movslq	TC_$RETRO$_$AUDIOCALLBACK$POINTER$PBYTE$LONGINT_$$_AA(%rip),%rax
	movq	TC_$RETRO_$$_SIDDELAY(%rip),%rdx
	subq	%rdx,%rax
	movl	%eax,TC_$RETRO$_$AUDIOCALLBACK$POINTER$PBYTE$LONGINT_$$_AA(%rip)
.Ll768:
# [1820] if fh>-1 then
	cmpl	$-1,U_$RETRO_$$_FH(%rip)
	jng	.Lj2138
.Ll769:
# [1822] if filetype=0 then
	cmpl	$0,U_$RETRO_$$_FILETYPE(%rip)
	jne	.Lj2140
.Ll770:
# [1824] il:=fileread(fh,buf,25);
	movslq	U_$RETRO_$$_FH(%rip),%rcx
	leaq	40(%rsp),%rdx
	movl	$25,%r8d
	call	SYSUTILS_$$_FILEREAD$QWORD$formal$LONGINT$$LONGINT
	movl	%eax,%r12d
.Ll771:
# [1825] if skip=1 then  il:=fileread(fh,buf,25);
	cmpl	$1,U_$RETRO_$$_SKIP(%rip)
	jne	.Lj2150
	movslq	U_$RETRO_$$_FH(%rip),%rcx
	leaq	40(%rsp),%rdx
	movl	$25,%r8d
	call	SYSUTILS_$$_FILEREAD$QWORD$formal$LONGINT$$LONGINT
	movl	%eax,%r12d
.Lj2150:
.Ll772:
# [1826] if il=25 then
	cmpl	$25,%r12d
	jne	.Lj2160
.Ll773:
# [1828] for i:=0 to 24 do ramb^[$d400+i]:=buf[i];
	movl	$0,%edi
	subl	$1,%edi
	.balign 8,0x90
.Lj2163:
	addl	$1,%edi
	movq	U_$RETRO_$$_R1(%rip),%rcx
	movslq	%edi,%rax
# PeepHole Optimization,var2a
	movl	%edi,%edx
	movb	40(%rsp,%rdx,1),%dl
	movb	%dl,54272(%rcx,%rax,1)
	cmpl	$24,%edi
	jl	.Lj2163
.Ll774:
# [1829] for i:=0 to 15 do times6502[i]:=times6502[i+1];
	movl	$0,%edi
	subl	$1,%edi
	.balign 8,0x90
.Lj2168:
	addl	$1,%edi
.Ll775:
	leaq	U_$RETRO_$$_TIMES6502(%rip),%rax
.Ll776:
	movslq	%edi,%rdx
# PeepHole Optimization,var2a
	movl	%edi,%ecx
	movl	4(%rax,%rdx,4),%edx
	movl	%edx,(%rax,%rcx,4)
	cmpl	$15,%edi
	jl	.Lj2168
.Ll777:
# [1830] t6:=gettime;
	call	RETRO_$$_GETTIME$$INT64
	movq	%rax,U_$RETRO_$$_T6(%rip)
.Ll778:
# [1831] times6502[15]:=0;
	movl	$0,U_$RETRO_$$_TIMES6502+60(%rip)
.Ll779:
# [1832] t6:=0; for i:=0 to 15 do t6+=times6502[i];
	movq	$0,U_$RETRO_$$_T6(%rip)
	movl	$0,%edi
	subl	$1,%edi
	.balign 8,0x90
.Lj2181:
	addl	$1,%edi
# PeepHole Optimization,var2a
	movl	%edi,%eax
	leaq	U_$RETRO_$$_TIMES6502(%rip),%rdx
	movslq	(%rdx,%rax,4),%rax
	movq	U_$RETRO_$$_T6(%rip),%rdx
	leaq	(%rax,%rdx),%rax
	movq	%rax,U_$RETRO_$$_T6(%rip)
	cmpl	$15,%edi
	jl	.Lj2181
.Ll780:
# [1833] time6502:=t6;
	movq	U_$RETRO_$$_T6(%rip),%rax
	movq	%rax,U_$RETRO_$$_TIME6502(%rip)
.Ll781:
# [1834] timer1+=siddelay;
	movq	TC_$RETRO_$$_TIMER1(%rip),%rdx
	movq	TC_$RETRO_$$_SIDDELAY(%rip),%rax
	leaq	(%rdx,%rax),%rax
	movq	%rax,TC_$RETRO_$$_TIMER1(%rip)
.Ll782:
# [1835] songtime+=siddelay;
	movq	U_$RETRO_$$_SONGTIME(%rip),%rax
	movq	TC_$RETRO_$$_SIDDELAY(%rip),%rdx
	leaq	(%rax,%rdx),%rax
	movq	%rax,U_$RETRO_$$_SONGTIME(%rip)
	jmp	.Lj2204
.Lj2160:
.Ll783:
# [1839] fileclose(fh);
	movslq	U_$RETRO_$$_FH(%rip),%rcx
	call	SYSUTILS_$$_FILECLOSE$QWORD
.Ll784:
# [1840] fh:=-1;
	movl	$-1,U_$RETRO_$$_FH(%rip)
.Ll785:
# [1841] songtime:=0;
	movq	$0,U_$RETRO_$$_SONGTIME(%rip)
.Ll786:
# [1842] timer1:=-1;
	movq	$-1,TC_$RETRO_$$_TIMER1(%rip)
.Ll787:
# [1843] for i:=0 to 6 do raml^[$3500+i]:=0;
	movl	$0,%edi
	subl	$1,%edi
	.balign 8,0x90
.Lj2201:
	addl	$1,%edi
	movq	U_$RETRO_$$_R1(%rip),%rdx
	movslq	%edi,%rax
	movl	$0,54272(%rdx,%rax,4)
	cmpl	$6,%edi
	jl	.Lj2201
	jmp	.Lj2204
.Lj2140:
.Ll788:
# [1846] else if filetype=1 then
	cmpl	$1,U_$RETRO_$$_FILETYPE(%rip)
	jne	.Lj2206
.Ll789:
# [1849] for i:=0 to 15 do times6502[i]:=times6502[i+1];
	movl	$0,%edi
	subl	$1,%edi
	.balign 8,0x90
.Lj2209:
	addl	$1,%edi
.Ll790:
	leaq	U_$RETRO_$$_TIMES6502(%rip),%rax
.Ll791:
	movslq	%edi,%rdx
# PeepHole Optimization,var2a
	movl	%edi,%ecx
	movl	4(%rax,%rdx,4),%edx
	movl	%edx,(%rax,%rcx,4)
	cmpl	$15,%edi
	jl	.Lj2209
.Ll792:
# [1850] t6:=gettime;
	call	RETRO_$$_GETTIME$$INT64
	movq	%rax,U_$RETRO_$$_T6(%rip)
.Ll793:
# [1851] jsr6502(256, play);
	movzwl	U_$RETRO_$$_PLAY(%rip),%edx
	movl	$256,%ecx
	call	UNIT6502_$$_JSR6502$WORD$INT64
.Ll794:
# [1852] times6502[15]:=gettime-t6;
	call	RETRO_$$_GETTIME$$INT64
	movq	U_$RETRO_$$_T6(%rip),%rdx
	subq	%rdx,%rax
	movl	%eax,U_$RETRO_$$_TIMES6502+60(%rip)
.Ll795:
# [1853] t6:=0; for i:=0 to 15 do t6+=times6502[i];
	movq	$0,U_$RETRO_$$_T6(%rip)
	movl	$0,%edi
	subl	$1,%edi
	.balign 8,0x90
.Lj2226:
	addl	$1,%edi
# PeepHole Optimization,var2a
	movl	%edi,%eax
	leaq	U_$RETRO_$$_TIMES6502(%rip),%rdx
	movslq	(%rdx,%rax,4),%rdx
	movq	U_$RETRO_$$_T6(%rip),%rax
	leaq	(%rdx,%rax),%rax
	movq	%rax,U_$RETRO_$$_T6(%rip)
	cmpl	$15,%edi
	jl	.Lj2226
.Ll796:
# [1854] time6502:=t6-15;
	movq	U_$RETRO_$$_T6(%rip),%rax
	leaq	-15(%rax),%rax
	movq	%rax,U_$RETRO_$$_TIME6502(%rip)
.Ll797:
# [1856] for i:=0 to 25 do buf[i]:= read6502($D400+i);
	movl	$0,%edi
	subl	$1,%edi
	.balign 8,0x90
.Lj2233:
	addl	$1,%edi
	movslq	%edi,%rax
	leaq	54272(%rax),%rcx
	call	UNIT6502_$$_READ6502$INT64$$BYTE
# PeepHole Optimization,var2a
	movl	%edi,%edx
	movb	%al,40(%rsp,%rdx,1)
	cmpl	$25,%edi
	jl	.Lj2233
.Ll798:
# [1857] for i:=0 to 25 do ramb^[$d400+i]:= buf[i] ;
	movl	$0,%edi
	subl	$1,%edi
	.balign 8,0x90
.Lj2240:
	addl	$1,%edi
	movq	U_$RETRO_$$_R1(%rip),%rcx
	movslq	%edi,%rax
# PeepHole Optimization,var2a
	movl	%edi,%edx
	movb	40(%rsp,%rdx,1),%dl
	movb	%dl,54272(%rcx,%rax,1)
	cmpl	$25,%edi
	jl	.Lj2240
.Ll799:
# [1860] timer1+=siddelay;
	movq	TC_$RETRO_$$_TIMER1(%rip),%rax
	movq	TC_$RETRO_$$_SIDDELAY(%rip),%rdx
	leaq	(%rax,%rdx),%rax
	movq	%rax,TC_$RETRO_$$_TIMER1(%rip)
.Ll800:
# [1861] songtime+=siddelay;
	movq	U_$RETRO_$$_SONGTIME(%rip),%rax
	movq	TC_$RETRO_$$_SIDDELAY(%rip),%rdx
	leaq	(%rax,%rdx),%rax
	movq	%rax,U_$RETRO_$$_SONGTIME(%rip)
.Lj2206:
.Lj2204:
.Lj2138:
.Lj2134:
.Ll801:
# [1867] s:=sid(1);
	leaq	32(%rsp),%rcx
	movl	$1,%edx
	call	RETRO_$$_SID$LONGINT$$TSAMPLE
.Ll802:
# [1868] s1:=round(16384*testvoice.getsample);
	movq	U_$RETRO_$$_TESTVOICE(%rip),%rcx
	call	FMSYNTH$_$TFMVOICE_$__$$_GETSAMPLE$$DOUBLE
	mulsd	_$RETRO$_Ld38(%rip),%xmm0
	cvtsd2siq	%xmm0,%rax
	movw	%ax,%r13w
.Ll803:
# [1869] s[0]+=s1;
	movswl	32(%rsp),%edx
	movswl	%r13w,%eax
	leal	(%edx,%eax),%eax
	movw	%ax,32(%rsp)
.Ll804:
# [1870] s[1]+=s1;
	movswl	34(%rsp),%edx
	movswl	%r13w,%eax
	leal	(%edx,%eax),%eax
	movw	%ax,34(%rsp)
.Ll805:
# [1871] if ereverb then s:=reverb1(s);
	cmpb	$0,TC_$RETRO_$$_EREVERB(%rip)
	je	.Lj2260
	leaq	32(%rsp),%rdx
	leaq	72(%rsp),%rcx
	call	RETRO_$$_REVERB1$TSAMPLE$$TSAMPLE
	movl	72(%rsp),%eax
	movl	%eax,32(%rsp)
.Lj2260:
.Ll806:
# [1872] if edelay then s:=delay1(s);
	cmpb	$0,TC_$RETRO_$$_EDELAY(%rip)
	je	.Lj2268
	leaq	32(%rsp),%rdx
	leaq	72(%rsp),%rcx
	call	RETRO_$$_DELAY1$TSAMPLE$$TSAMPLE
	movl	72(%rsp),%eax
	movl	%eax,32(%rsp)
.Lj2268:
.Ll807:
# [1873] audio2[960*k]:=s[0];
	movslq	%r14d,%rax
	imulq	$960,%rax,%rax
	movw	32(%rsp),%dx
	movw	%dx,(%rbx,%rax,2)
.Ll808:
# [1874] audio2[960*k+1]:=s[1];
	movslq	%r14d,%rax
	imulq	$960,%rax,%rax
	movw	34(%rsp),%dx
	movw	%dx,2(%rbx,%rax,2)
.Ll809:
# [1875] oldsc:=sc;
	movl	TC_$RETRO_$$_SC(%rip),%eax
	movl	%eax,TC_$RETRO_$$_OLDSC(%rip)
.Ll810:
# [1876] sc:=s[0]+s[1];
	movswl	32(%rsp),%edx
	movswl	34(%rsp),%eax
	leal	(%edx,%eax),%eax
	movl	%eax,TC_$RETRO_$$_SC(%rip)
.Ll811:
# [1877] scope[scj div 1]:=sc; inc(scj); if scj>959 then if (oldsc<0) and (sc>0) then scj:=0 else scj:=959;
	movl	TC_$RETRO_$$_SCJ(%rip),%edx
	movl	TC_$RETRO_$$_SC(%rip),%ecx
	leaq	U_$RETRO_$$_SCOPE(%rip),%rax
	movl	%ecx,(%rax,%rdx,4)
	addl	$1,TC_$RETRO_$$_SCJ(%rip)
	cmpl	$959,TC_$RETRO_$$_SCJ(%rip)
	jng	.Lj2286
	cmpl	$0,TC_$RETRO_$$_OLDSC(%rip)
	jnl	.Lj2288
	cmpl	$0,TC_$RETRO_$$_SC(%rip)
	jng	.Lj2288
	movl	$0,TC_$RETRO_$$_SCJ(%rip)
	jmp	.Lj2292
.Lj2288:
	movl	$959,TC_$RETRO_$$_SCJ(%rip)
.Lj2292:
.Lj2286:
.Ll812:
# [1879] for i:=480*k+1 to 480*k+479 do
	imull	$480,%r14d,%eax
	leal	479(%eax),%r15d
	imull	$480,%r14d,%eax
	leal	1(%eax),%eax
	movl	%eax,%edi
	cmpl	%edi,%r15d
	jl	.Lj2298
	subl	$1,%edi
	.balign 8,0x90
.Lj2299:
	addl	$1,%edi
.Ll813:
# [1881] s:=sid(0);
	leaq	72(%rsp),%rcx
	movl	$0,%edx
	call	RETRO_$$_SID$LONGINT$$TSAMPLE
	movl	72(%rsp),%eax
	movl	%eax,32(%rsp)
.Ll814:
# [1882] s1:=round(16384*testvoice.getsample);
	movq	U_$RETRO_$$_TESTVOICE(%rip),%rcx
	call	FMSYNTH$_$TFMVOICE_$__$$_GETSAMPLE$$DOUBLE
	mulsd	_$RETRO$_Ld38(%rip),%xmm0
	cvtsd2siq	%xmm0,%rax
	movw	%ax,%r13w
.Ll815:
# [1883] s[0]+=s1;
	movswl	32(%rsp),%edx
	movswl	%r13w,%eax
	leal	(%edx,%eax),%eax
	movw	%ax,32(%rsp)
.Ll816:
# [1884] s[1]:=s1;
	movw	%r13w,34(%rsp)
.Ll817:
# [1885] if ereverb then s:=reverb1(s);
	cmpb	$0,TC_$RETRO_$$_EREVERB(%rip)
	je	.Lj2315
	leaq	32(%rsp),%rdx
	leaq	72(%rsp),%rcx
	call	RETRO_$$_REVERB1$TSAMPLE$$TSAMPLE
	movl	72(%rsp),%eax
	movl	%eax,32(%rsp)
.Lj2315:
.Ll818:
# [1886] if edelay then s:=delay1(s);
	cmpb	$0,TC_$RETRO_$$_EDELAY(%rip)
	je	.Lj2323
	leaq	32(%rsp),%rdx
	leaq	72(%rsp),%rcx
	call	RETRO_$$_DELAY1$TSAMPLE$$TSAMPLE
	movl	72(%rsp),%eax
	movl	%eax,32(%rsp)
.Lj2323:
.Ll819:
# [1887] audio2[2*i]:=s[0];
	movslq	%edi,%rax
	shlq	$1,%rax
	movw	32(%rsp),%dx
	movw	%dx,(%rbx,%rax,2)
.Ll820:
# [1888] audio2[2*i+1]:=s[1];
	movslq	%edi,%rax
	shlq	$1,%rax
	movw	34(%rsp),%dx
	movw	%dx,2(%rbx,%rax,2)
.Ll821:
# [1889] oldsc:=sc;
	movl	TC_$RETRO_$$_SC(%rip),%eax
	movl	%eax,TC_$RETRO_$$_OLDSC(%rip)
.Ll822:
# [1890] sc:=s[0]+s[1];
	movswl	32(%rsp),%edx
	movswl	34(%rsp),%eax
	leal	(%edx,%eax),%eax
	movl	%eax,TC_$RETRO_$$_SC(%rip)
.Ll823:
# [1891] scope[scj div 1]:=sc; inc(scj); if scj>959 then if (oldsc<0) and (sc>0) then scj:=0 else scj:=959;
	movl	TC_$RETRO_$$_SCJ(%rip),%eax
	movl	TC_$RETRO_$$_SC(%rip),%edx
	leaq	U_$RETRO_$$_SCOPE(%rip),%rcx
	movl	%edx,(%rcx,%rax,4)
	addl	$1,TC_$RETRO_$$_SCJ(%rip)
	cmpl	$959,TC_$RETRO_$$_SCJ(%rip)
	jng	.Lj2341
	cmpl	$0,TC_$RETRO_$$_OLDSC(%rip)
	jnl	.Lj2343
	cmpl	$0,TC_$RETRO_$$_SC(%rip)
	jng	.Lj2343
	movl	$0,TC_$RETRO_$$_SCJ(%rip)
	jmp	.Lj2347
.Lj2343:
	movl	$959,TC_$RETRO_$$_SCJ(%rip)
.Lj2347:
.Lj2341:
.Ll824:
	cmpl	%edi,%r15d
	jg	.Lj2299
.Lj2298:
.Ll825:
	cmpl	$3,%r14d
	jl	.Lj2130
.Ll826:
# [1897] sidtime:=gettime-t;
	call	RETRO_$$_GETTIME$$INT64
	subq	%rsi,%rax
	movq	%rax,U_$RETRO_$$_SIDTIME(%rip)
.Ll827:
# [1898] end;
	nop
	leaq	80(%rsp),%rsp
	popq	%r15
	popq	%r14
	popq	%r13
	popq	%r12
	popq	%rsi
	popq	%rdi
	popq	%rbx
	ret
.seh_endproc
.Lc129:
.Lt37:
.Ll828:

.section .text.n_retro_$$_div$tsample$longint$$tsample,"x"
	.balign 16,0x90
.globl	RETRO_$$_div$TSAMPLE$LONGINT$$TSAMPLE
RETRO_$$_div$TSAMPLE$LONGINT$$TSAMPLE:
.Lc131:
# Temps allocated between rsp+8 and rsp+16
.seh_proc RETRO_$$_div$TSAMPLE$LONGINT$$TSAMPLE
.Ll829:
# [1903] begin
	leaq	-24(%rsp),%rsp
.Lc133:
.seh_stackalloc 24
# Var b located in register r8d
# Var $result located in register rcx
.seh_endprologue
# Var a located at rsp+0, size=OS_64
# PeepHole Optimization,MovMov2MovMov1
	movq	%rdx,(%rsp)
	movq	%rdx,%rax
	movl	(%rax),%eax
	movl	%eax,8(%rsp)
.Ll830:
# [1904] result[0]:=a[0] div b;
	movswq	8(%rsp),%rax
	movslq	%r8d,%r9
	cqto
	idivq	%r9
	movw	%ax,(%rcx)
.Ll831:
# [1905] result[1]:=a[1] div b;
	movswq	10(%rsp),%rax
	movslq	%r8d,%r8
	cqto
	idivq	%r8
	movw	%ax,2(%rcx)
.Ll832:
# [1906] end;
	leaq	24(%rsp),%rsp
	ret
.seh_endproc
.Lc132:
.Lt45:
.Ll833:

.section .text.n_retro_$$_plus$tsample$tsample$$tsample,"x"
	.balign 16,0x90
.globl	RETRO_$$_plus$TSAMPLE$TSAMPLE$$TSAMPLE
RETRO_$$_plus$TSAMPLE$TSAMPLE$$TSAMPLE:
.Lc134:
# Temps allocated between rsp+16 and rsp+24
.seh_proc RETRO_$$_plus$TSAMPLE$TSAMPLE$$TSAMPLE
.Ll834:
# [1911] begin
	leaq	-24(%rsp),%rsp
.Lc136:
.seh_stackalloc 24
# Var $result located in register rcx
# Var q1 located in register eax
# Var q2 located in register edx
.seh_endprologue
# Var a located at rsp+0, size=OS_64
# Var b located at rsp+8, size=OS_64
	movq	%rdx,(%rsp)
	movq	%r8,8(%rsp)
	movq	(%rsp),%rax
	movl	(%rax),%eax
	movl	%eax,16(%rsp)
	movq	8(%rsp),%rax
	movl	(%rax),%eax
	movl	%eax,(%rsp)
.Ll835:
# [1912] q1:=a[0] + b[0];
	movswl	16(%rsp),%eax
	movswl	(%rsp),%edx
	leal	(%eax,%edx),%eax
# Var q1 located in register eax
.Ll836:
# [1913] q2:=a[1] + b[1];
	movswl	18(%rsp),%edx
	movswl	2(%rsp),%r8d
	leal	(%edx,%r8d),%edx
# Var q2 located in register edx
.Ll837:
# [1914] if q1>32767 then q1:=32767;
	cmpl	$32767,%eax
	jng	.Lj2365
	movl	$32767,%eax
.Lj2365:
.Ll838:
# [1915] if q1<-32767 then q1:=-32767;
	cmpl	$-32767,%eax
	jnl	.Lj2369
	movl	$-32767,%eax
.Lj2369:
.Ll839:
# [1916] if q2>32767 then q2:=32767;
	cmpl	$32767,%edx
	jng	.Lj2373
	movl	$32767,%edx
.Lj2373:
.Ll840:
# [1917] if q2<-32767 then q2:=-32767;
	cmpl	$-32767,%edx
	jnl	.Lj2377
	movl	$-32767,%edx
.Lj2377:
.Ll841:
# [1918] result[0]:=q1;
	movw	%ax,(%rcx)
.Ll842:
# [1919] result[1]:=q2;
	movw	%dx,2(%rcx)
.Ll843:
# [1920] end;
	leaq	24(%rsp),%rsp
	ret
.seh_endproc
.Lc135:
.Lt46:
.Ll844:

.section .text.n_retro_$$_delay1$tsample$$tsample,"x"
	.balign 16,0x90
.globl	RETRO_$$_DELAY1$TSAMPLE$$TSAMPLE
RETRO_$$_DELAY1$TSAMPLE$$TSAMPLE:
.Lc137:
# Temps allocated between rsp+40 and rsp+56
.seh_proc RETRO_$$_DELAY1$TSAMPLE$$TSAMPLE
.Ll845:
# [1925] begin
	pushq	%rbx
.seh_pushreg %rbx
	leaq	-64(%rsp),%rsp
.Lc139:
.seh_stackalloc 64
# Var $result located in register rbx
.seh_endprologue
# Var s located at rsp+32, size=OS_64
	movq	%rcx,%rbx
# PeepHole Optimization,MovMov2MovMov1
	movq	%rdx,32(%rsp)
	movq	%rdx,%rax
	movl	(%rax),%eax
	movl	%eax,40(%rsp)
.Ll846:
# [1926] result:=(dl[de] div 2) +s;
	movl	TC_$RETRO_$$_DE(%rip),%eax
	leaq	U_$RETRO_$$_DL(%rip),%rdx
	leaq	(%rdx,%rax,4),%rdx
	leaq	32(%rsp),%rcx
	movl	$2,%r8d
	call	RETRO_$$_div$TSAMPLE$LONGINT$$TSAMPLE
	leaq	32(%rsp),%rdx
	movq	%rbx,%rcx
	leaq	40(%rsp),%r8
	call	RETRO_$$_plus$TSAMPLE$TSAMPLE$$TSAMPLE
.Ll847:
# [1927] dl[de]:=(dl[de] div 2) +s;
	movl	TC_$RETRO_$$_DE(%rip),%eax
	leaq	U_$RETRO_$$_DL(%rip),%rdx
	leaq	(%rdx,%rax,4),%rdx
	leaq	48(%rsp),%rcx
	movl	$2,%r8d
	call	RETRO_$$_div$TSAMPLE$LONGINT$$TSAMPLE
	leaq	48(%rsp),%rdx
	leaq	40(%rsp),%r8
	leaq	32(%rsp),%rcx
	call	RETRO_$$_plus$TSAMPLE$TSAMPLE$$TSAMPLE
	movl	TC_$RETRO_$$_DE(%rip),%eax
	movl	32(%rsp),%ecx
	leaq	U_$RETRO_$$_DL(%rip),%rdx
	movl	%ecx,(%rdx,%rax,4)
.Ll848:
# [1928] de:=(de+1) mod da;
	movslq	TC_$RETRO_$$_DE(%rip),%rax
	leaq	1(%rax),%rax
	movslq	TC_$RETRO_$$_DA(%rip),%rcx
	cqto
	idivq	%rcx
	movl	%edx,TC_$RETRO_$$_DE(%rip)
.Ll849:
# [1929] end;
	nop
	leaq	64(%rsp),%rsp
	popq	%rbx
	ret
.seh_endproc
.Lc138:
.Lt31:
.Ll850:

.section .text.n_retro_$$_reverb1$tsample$$tsample,"x"
	.balign 16,0x90
.globl	RETRO_$$_REVERB1$TSAMPLE$$TSAMPLE
RETRO_$$_REVERB1$TSAMPLE$$TSAMPLE:
.Lc140:
# Temps allocated between rsp+40 and rsp+264
.seh_proc RETRO_$$_REVERB1$TSAMPLE$$TSAMPLE
.Ll851:
# [1938] begin
	pushq	%rbx
.seh_pushreg %rbx
	pushq	%rdi
.seh_pushreg %rdi
	pushq	%rsi
.seh_pushreg %rsi
	pushq	%r12
.seh_pushreg %r12
	pushq	%r13
.seh_pushreg %r13
	pushq	%r14
.seh_pushreg %r14
	pushq	%r15
.seh_pushreg %r15
	pushq	%rbp
.seh_pushreg %rbp
	leaq	-264(%rsp),%rsp
.Lc142:
.seh_stackalloc 264
# Var $result located in register rax
# Var a1 located in register eax
# Var a2 located in register eax
# Var a3 located in register eax
# Var a4 located in register eax
# Var a5 located in register r13d
# Var a6 located in register r12d
# Var a7 located in register edi
# Var a8 located in register esi
# Var a9 located in register ebx
# Var a10 located in register edx
.seh_endprologue
# Var s located at rsp+32, size=OS_64
	movq	%rcx,248(%rsp)
# PeepHole Optimization,MovMov2MovMov1
	movq	%rdx,32(%rsp)
	movq	%rdx,%rax
	movl	(%rax),%eax
	movl	%eax,40(%rsp)
.Ll852:
# [1939] if sart=1 then begin sart:=0; rl[0,0]:=32767; end;
	cmpl	$1,TC_$RETRO$_$REVERB1$TSAMPLE$$TSAMPLE_$$_SART(%rip)
	jne	.Lj2417
	movl	$0,TC_$RETRO$_$REVERB1$TSAMPLE$$TSAMPLE_$$_SART(%rip)
	movw	$32767,U_$RETRO_$$_RL(%rip)
.Lj2417:
.Ll853:
# [1940] ra:=657 ;
	movl	$657,TC_$RETRO_$$_RA(%rip)
.Ll854:
# [1941] a1:=(ra+re-160) mod ra;
	movslq	TC_$RETRO_$$_RE(%rip),%rax
	movslq	TC_$RETRO_$$_RA(%rip),%rcx
	leaq	(%rax,%rcx),%rax
	leaq	-160(%rax),%rax
	cqto
	idivq	%rcx
# Var a1 located in register eax
	movl	%edx,%eax
	movq	%rax,240(%rsp)
.Ll855:
# [1942] a2:=(ra+re-192) mod ra;
	movslq	TC_$RETRO_$$_RE(%rip),%rax
	movslq	TC_$RETRO_$$_RA(%rip),%rcx
	leaq	(%rax,%rcx),%rax
	leaq	-192(%rax),%rax
	cqto
	idivq	%rcx
# Var a2 located in register eax
	movl	%edx,%eax
	movq	%rax,232(%rsp)
.Ll856:
# [1943] a3:=(ra+re-256) mod ra;
	movslq	TC_$RETRO_$$_RE(%rip),%rax
	movslq	TC_$RETRO_$$_RA(%rip),%rcx
	leaq	(%rax,%rcx),%rax
	leaq	-256(%rax),%rax
	cqto
	idivq	%rcx
# Var a3 located in register eax
	movl	%edx,%eax
	movq	%rax,224(%rsp)
.Ll857:
# [1944] a4:=(ra+re-320) mod ra;
	movslq	TC_$RETRO_$$_RE(%rip),%rax
	movslq	TC_$RETRO_$$_RA(%rip),%rcx
	leaq	(%rax,%rcx),%rax
	leaq	-320(%rax),%rax
	cqto
	idivq	%rcx
# Var a4 located in register eax
	movl	%edx,%eax
	movq	%rax,256(%rsp)
.Ll858:
# [1945] a5:=(ra+re-352) mod ra;
	movslq	TC_$RETRO_$$_RE(%rip),%rax
	movslq	TC_$RETRO_$$_RA(%rip),%rcx
	leaq	(%rax,%rcx),%rax
	leaq	-352(%rax),%rax
	cqto
	idivq	%rcx
# Var a5 located in register r13d
	movl	%edx,%r13d
.Ll859:
# [1946] a6:=(ra+re-384) mod ra;
	movslq	TC_$RETRO_$$_RE(%rip),%rax
	movslq	TC_$RETRO_$$_RA(%rip),%rcx
	leaq	(%rax,%rcx),%rax
	leaq	-384(%rax),%rax
	cqto
	idivq	%rcx
# Var a6 located in register edx
.Ll860:
# [1947] a6:=(ra+re-448) mod ra;
	movslq	TC_$RETRO_$$_RE(%rip),%rax
	movslq	TC_$RETRO_$$_RA(%rip),%rcx
	leaq	(%rax,%rcx),%rax
	leaq	-448(%rax),%rax
	cqto
	idivq	%rcx
# Var a6 located in register r12d
	movl	%edx,%r12d
.Ll861:
# [1948] a7:=(ra+re-480) mod ra;
	movslq	TC_$RETRO_$$_RE(%rip),%rax
	movslq	TC_$RETRO_$$_RA(%rip),%rcx
	leaq	(%rax,%rcx),%rax
	leaq	-480(%rax),%rax
	cqto
	idivq	%rcx
# Var a7 located in register edi
	movl	%edx,%edi
.Ll862:
# [1949] a8:=(ra+re-512) mod ra;
	movslq	TC_$RETRO_$$_RE(%rip),%rax
	movslq	TC_$RETRO_$$_RA(%rip),%rcx
	leaq	(%rax,%rcx),%rax
	leaq	-512(%rax),%rax
	cqto
	idivq	%rcx
# Var a8 located in register esi
	movl	%edx,%esi
.Ll863:
# [1950] a9:=(ra+re-576) mod ra;
	movslq	TC_$RETRO_$$_RE(%rip),%rax
	movslq	TC_$RETRO_$$_RA(%rip),%rcx
	leaq	(%rax,%rcx),%rax
	leaq	-576(%rax),%rax
	cqto
	idivq	%rcx
# Var a9 located in register ebx
	movl	%edx,%ebx
.Ll864:
# [1951] a10:=(ra+re-640) mod ra;
	movslq	TC_$RETRO_$$_RE(%rip),%rax
	movslq	TC_$RETRO_$$_RA(%rip),%rcx
	leaq	(%rax,%rcx),%rax
	leaq	-640(%rax),%rax
	cqto
	idivq	%rcx
# Var a10 located in register edx
.Ll865:
# [1963] + (rl[a10] div 22)
	andl	$4294967295,%edx
	leaq	U_$RETRO_$$_RL(%rip),%rax
	leaq	(%rax,%rdx,4),%rdx
	leaq	32(%rsp),%rcx
	movl	$22,%r8d
	call	RETRO_$$_div$TSAMPLE$LONGINT$$TSAMPLE
	leaq	32(%rsp),%rax
	movq	%rax,216(%rsp)
# PeepHole Optimization,var2a
.Ll866:
# [1962] + (rl[a9] div 20)
	movl	%ebx,%eax
	leaq	U_$RETRO_$$_RL(%rip),%rdx
	leaq	(%rdx,%rax,4),%rdx
	leaq	56(%rsp),%rcx
	movl	$20,%r8d
	call	RETRO_$$_div$TSAMPLE$LONGINT$$TSAMPLE
.Ll867:
	leaq	56(%rsp),%rax
	movq	%rax,208(%rsp)
# PeepHole Optimization,var2a
.Ll868:
# [1961] + (rl[a8] div 18)
	movl	%esi,%eax
	leaq	U_$RETRO_$$_RL(%rip),%rdx
	leaq	(%rdx,%rax,4),%rdx
	leaq	72(%rsp),%rcx
	movl	$18,%r8d
	call	RETRO_$$_div$TSAMPLE$LONGINT$$TSAMPLE
.Ll869:
	leaq	72(%rsp),%rbp
# PeepHole Optimization,var2a
.Ll870:
# [1960] + (rl[a7] div 16)
	movl	%edi,%eax
	leaq	U_$RETRO_$$_RL(%rip),%rdx
	leaq	(%rdx,%rax,4),%rdx
	leaq	88(%rsp),%rcx
	movl	$16,%r8d
	call	RETRO_$$_div$TSAMPLE$LONGINT$$TSAMPLE
.Ll871:
	leaq	88(%rsp),%r15
# PeepHole Optimization,var2a
.Ll872:
# [1959] + (rl[a6] div 14)
	movl	%r12d,%eax
	leaq	U_$RETRO_$$_RL(%rip),%rdx
	leaq	(%rdx,%rax,4),%rdx
	leaq	104(%rsp),%rcx
	movl	$14,%r8d
	call	RETRO_$$_div$TSAMPLE$LONGINT$$TSAMPLE
.Ll873:
	leaq	104(%rsp),%r14
# PeepHole Optimization,var2a
.Ll874:
# [1958] + (rl[a5] div 12)
	movl	%r13d,%eax
	leaq	U_$RETRO_$$_RL(%rip),%rdx
	leaq	(%rdx,%rax,4),%rdx
	leaq	120(%rsp),%rcx
	movl	$12,%r8d
	call	RETRO_$$_div$TSAMPLE$LONGINT$$TSAMPLE
.Ll875:
	leaq	120(%rsp),%r13
.Ll876:
# [1957] + (rl[a4] div 10)
	movl	256(%rsp),%eax
# PeepHole Optimization,var2a
	movl	%eax,%edx
	leaq	U_$RETRO_$$_RL(%rip),%rax
	leaq	(%rax,%rdx,4),%rdx
	leaq	136(%rsp),%rcx
	movl	$10,%r8d
	call	RETRO_$$_div$TSAMPLE$LONGINT$$TSAMPLE
.Ll877:
	leaq	136(%rsp),%r12
.Ll878:
# [1956] + (rl[a3] div 8)
	movl	224(%rsp),%eax
# PeepHole Optimization,var2a
	movl	%eax,%edx
	leaq	U_$RETRO_$$_RL(%rip),%rax
	leaq	(%rax,%rdx,4),%rdx
	leaq	152(%rsp),%rcx
	movl	$8,%r8d
	call	RETRO_$$_div$TSAMPLE$LONGINT$$TSAMPLE
.Ll879:
	leaq	152(%rsp),%rdi
.Ll880:
# [1955] + (rl[a2] div 6)
	movl	232(%rsp),%eax
# PeepHole Optimization,var2a
	movl	%eax,%edx
	leaq	U_$RETRO_$$_RL(%rip),%rax
	leaq	(%rax,%rdx,4),%rdx
	leaq	168(%rsp),%rcx
	movl	$6,%r8d
	call	RETRO_$$_div$TSAMPLE$LONGINT$$TSAMPLE
.Ll881:
	leaq	168(%rsp),%rsi
.Ll882:
# [1954] + (rl[a1] div 4)
	movl	240(%rsp),%eax
# PeepHole Optimization,var2a
	movl	%eax,%edx
	leaq	U_$RETRO_$$_RL(%rip),%rax
	leaq	(%rax,%rdx,4),%rdx
	leaq	184(%rsp),%rcx
	movl	$4,%r8d
	call	RETRO_$$_div$TSAMPLE$LONGINT$$TSAMPLE
.Ll883:
	leaq	184(%rsp),%rbx
.Ll884:
# [1953] result:=(rl[re] div 2) +s
	movl	TC_$RETRO_$$_RE(%rip),%edx
	leaq	U_$RETRO_$$_RL(%rip),%rax
	leaq	(%rax,%rdx,4),%rax
	leaq	200(%rsp),%rcx
	movl	$2,%r8d
	movq	%rax,%rdx
	call	RETRO_$$_div$TSAMPLE$LONGINT$$TSAMPLE
.Ll885:
	leaq	200(%rsp),%rax
	leaq	40(%rsp),%r8
	leaq	192(%rsp),%rcx
	movq	%rax,%rdx
	call	RETRO_$$_plus$TSAMPLE$TSAMPLE$$TSAMPLE
.Ll886:
	leaq	192(%rsp),%rdx
	leaq	176(%rsp),%rcx
	movq	%rbx,%r8
	call	RETRO_$$_plus$TSAMPLE$TSAMPLE$$TSAMPLE
.Ll887:
	leaq	176(%rsp),%rdx
	leaq	160(%rsp),%rcx
	movq	%rsi,%r8
	call	RETRO_$$_plus$TSAMPLE$TSAMPLE$$TSAMPLE
.Ll888:
	leaq	160(%rsp),%rdx
	leaq	144(%rsp),%rcx
	movq	%rdi,%r8
	call	RETRO_$$_plus$TSAMPLE$TSAMPLE$$TSAMPLE
.Ll889:
	leaq	144(%rsp),%rdx
	leaq	128(%rsp),%rcx
	movq	%r12,%r8
	call	RETRO_$$_plus$TSAMPLE$TSAMPLE$$TSAMPLE
.Ll890:
	leaq	128(%rsp),%rdx
	leaq	112(%rsp),%rcx
	movq	%r13,%r8
	call	RETRO_$$_plus$TSAMPLE$TSAMPLE$$TSAMPLE
.Ll891:
	leaq	112(%rsp),%rdx
	leaq	96(%rsp),%rcx
	movq	%r14,%r8
	call	RETRO_$$_plus$TSAMPLE$TSAMPLE$$TSAMPLE
.Ll892:
	leaq	96(%rsp),%rdx
	leaq	80(%rsp),%rcx
	movq	%r15,%r8
	call	RETRO_$$_plus$TSAMPLE$TSAMPLE$$TSAMPLE
.Ll893:
	leaq	80(%rsp),%rdx
	leaq	64(%rsp),%rcx
	movq	%rbp,%r8
	call	RETRO_$$_plus$TSAMPLE$TSAMPLE$$TSAMPLE
.Ll894:
	leaq	64(%rsp),%rdx
	leaq	48(%rsp),%rcx
	movq	208(%rsp),%r8
	call	RETRO_$$_plus$TSAMPLE$TSAMPLE$$TSAMPLE
	leaq	48(%rsp),%rdx
	movq	248(%rsp),%rcx
	movq	216(%rsp),%r8
	call	RETRO_$$_plus$TSAMPLE$TSAMPLE$$TSAMPLE
.Ll895:
# [1967] rl[re]:=(rl[re] div 2) +s;
	movl	TC_$RETRO_$$_RE(%rip),%eax
	leaq	U_$RETRO_$$_RL(%rip),%rdx
	leaq	(%rdx,%rax,4),%rdx
	leaq	48(%rsp),%rcx
	movl	$2,%r8d
	call	RETRO_$$_div$TSAMPLE$LONGINT$$TSAMPLE
	leaq	48(%rsp),%rdx
	leaq	40(%rsp),%r8
	leaq	32(%rsp),%rcx
	call	RETRO_$$_plus$TSAMPLE$TSAMPLE$$TSAMPLE
	movl	TC_$RETRO_$$_RE(%rip),%eax
	movl	32(%rsp),%edx
	leaq	U_$RETRO_$$_RL(%rip),%rcx
	movl	%edx,(%rcx,%rax,4)
.Ll896:
# [1968] re:=(re+1) mod ra;
	movslq	TC_$RETRO_$$_RE(%rip),%rax
	leaq	1(%rax),%rax
	movslq	TC_$RETRO_$$_RA(%rip),%rcx
	cqto
	idivq	%rcx
	movl	%edx,TC_$RETRO_$$_RE(%rip)
.Ll897:
# [1969] end;
	nop
	leaq	264(%rsp),%rsp
	popq	%rbp
	popq	%r15
	popq	%r14
	popq	%r13
	popq	%r12
	popq	%rsi
	popq	%rdi
	popq	%rbx
	ret
.seh_endproc
.Lc141:
.Lt32:
.Ll898:
# End asmlist al_procedures
# Begin asmlist al_globals

.section .bss
	.balign 4
# [79] var fh,filetype:integer;
	.globl U_$RETRO_$$_FH
U_$RETRO_$$_FH:
	.zero 4

.section .bss
	.balign 4
	.globl U_$RETRO_$$_FILETYPE
U_$RETRO_$$_FILETYPE:
	.zero 4

.section .bss
	.balign 2
# [80] play:word;
	.globl U_$RETRO_$$_PLAY
U_$RETRO_$$_PLAY:
	.zero 2

.section .bss
	.balign 8
# [81] scr:PSDL_window;
	.globl U_$RETRO_$$_SCR
U_$RETRO_$$_SCR:
	.zero 8

.section .bss
	.balign 8
# [82] sdlRenderer:PSDL_Renderer;
	.globl U_$RETRO_$$_SDLRENDERER
U_$RETRO_$$_SDLRENDERER:
	.zero 8

.section .bss
	.balign 8
# [83] sdltexture:psdl_texture;
	.globl U_$RETRO_$$_SDLTEXTURE
U_$RETRO_$$_SDLTEXTURE:
	.zero 8

.section .bss
	.balign 8
# [84] p2:^integer;
	.globl U_$RETRO_$$_P2
U_$RETRO_$$_P2:
	.zero 8

.section .bss
	.balign 8
# [85] tim,t,t2,t3,ts,t6,time6502:int64;
	.globl U_$RETRO_$$_TIM
U_$RETRO_$$_TIM:
	.zero 8

.section .bss
	.balign 8
	.globl U_$RETRO_$$_T
U_$RETRO_$$_T:
	.zero 8

.section .bss
	.balign 8
	.globl U_$RETRO_$$_T2
U_$RETRO_$$_T2:
	.zero 8

.section .bss
	.balign 8
	.globl U_$RETRO_$$_T3
U_$RETRO_$$_T3:
	.zero 8

.section .bss
	.balign 8
	.globl U_$RETRO_$$_TS
U_$RETRO_$$_TS:
	.zero 8

.section .bss
	.balign 8
	.globl U_$RETRO_$$_T6
U_$RETRO_$$_T6:
	.zero 8

.section .bss
	.balign 8
	.globl U_$RETRO_$$_TIME6502
U_$RETRO_$$_TIME6502:
	.zero 8

.section .bss
# [86] vblank1:byte;
	.globl U_$RETRO_$$_VBLANK1
U_$RETRO_$$_VBLANK1:
	.zero 1

.section .bss
# [88] combined:array[0..1023] of byte;
	.globl U_$RETRO_$$_COMBINED
U_$RETRO_$$_COMBINED:
	.zero 1024

.section .bss
	.balign 4
# [89] scope:array[0..959] of integer;
	.globl U_$RETRO_$$_SCOPE
U_$RETRO_$$_SCOPE:
	.zero 3840

.section .bss
	.balign 8
# [91] desired,obtained:TSDL_AudioSpec;
	.globl U_$RETRO_$$_DESIRED
U_$RETRO_$$_DESIRED:
	.zero 32

.section .bss
	.balign 8
	.globl U_$RETRO_$$_OBTAINED
U_$RETRO_$$_OBTAINED:
	.zero 32

.section .bss
	.balign 4
# [94] debug:integer;
	.globl U_$RETRO_$$_DEBUG
U_$RETRO_$$_DEBUG:
	.zero 4

.section .bss
	.balign 8
# [95] sidtime:int64;
	.globl U_$RETRO_$$_SIDTIME
U_$RETRO_$$_SIDTIME:
	.zero 8

.section .bss
	.balign 8
# [98] songtime,songfreq:int64;
	.globl U_$RETRO_$$_SONGTIME
U_$RETRO_$$_SONGTIME:
	.zero 8

.section .bss
	.balign 8
	.globl U_$RETRO_$$_SONGFREQ
U_$RETRO_$$_SONGFREQ:
	.zero 8

.section .bss
	.balign 4
# [99] skip:integer;
	.globl U_$RETRO_$$_SKIP
U_$RETRO_$$_SKIP:
	.zero 4

.section .bss
	.balign 8
# [103] thread:TRetro;
	.globl U_$RETRO_$$_THREAD
U_$RETRO_$$_THREAD:
	.zero 8

.section .bss
	.balign 4
# [104] times6502:array[0..15] of integer;
	.globl U_$RETRO_$$_TIMES6502
U_$RETRO_$$_TIMES6502:
	.zero 64

.section .bss
	.balign 8
# [105] r1:pointer;
	.globl U_$RETRO_$$_R1
U_$RETRO_$$_R1:
	.zero 8

.section .bss
	.balign 8
# [110] ft,ftt:int64;
	.globl U_$RETRO_$$_FT
U_$RETRO_$$_FT:
	.zero 8

.section .bss
	.balign 8
	.globl U_$RETRO_$$_FTT
U_$RETRO_$$_FTT:
	.zero 8

.section .bss
	.balign 8
# [112] attacktablei:array[0..15] of int64;
	.globl U_$RETRO_$$_ATTACKTABLEI
U_$RETRO_$$_ATTACKTABLEI:
	.zero 128

.section .bss
	.balign 8
# [113] srtablei:array[0..15] of int64;
	.globl U_$RETRO_$$_SRTABLEI
U_$RETRO_$$_SRTABLEI:
	.zero 128

.section .bss
	.balign 2
# [118] dl:array[0..192000] of TSample;
	.globl U_$RETRO_$$_DL
U_$RETRO_$$_DL:
	.zero 768004

.section .bss
	.balign 2
# [121] rl:array[0..192000] of TSample;
	.globl U_$RETRO_$$_RL
U_$RETRO_$$_RL:
	.zero 768004

.section .bss
# [146] be,bs:byte;
	.globl U_$RETRO_$$_BE
U_$RETRO_$$_BE:
	.zero 1

.section .bss
	.globl U_$RETRO_$$_BS
U_$RETRO_$$_BS:
	.zero 1

.section .bss
	.balign 4
# [147] keybuffer:array[0..255] of cardinal;
	.globl U_$RETRO_$$_KEYBUFFER
U_$RETRO_$$_KEYBUFFER:
	.zero 1024

.section .bss
	.balign 8
# [148] testoperator:TFmOperator;
	.globl U_$RETRO_$$_TESTOPERATOR
U_$RETRO_$$_TESTOPERATOR:
	.zero 8

.section .bss
	.balign 8
# [149] testvoice:TFmVoice;
	.globl U_$RETRO_$$_TESTVOICE
U_$RETRO_$$_TESTVOICE:
	.zero 8

.section .bss
	.balign 4
# [191] fh2:integer;
U_$RETRO_$$_FH2:
	.zero 4

.section .bss
	.balign 4
# [193] var sinetable:array[0..65535] of integer;
U_$RETRO_$$_SINETABLE:
	.zero 262144

.section .bss
	.balign 4
# [194] logtable:array[0..65535] of cardinal;
U_$RETRO_$$_LOGTABLE:
	.zero 262144

.section .bss
	.balign 4
# [195] outputtable:array[0..8191] of integer;
U_$RETRO_$$_OUTPUTTABLE:
	.zero 32768

.section .bss
	.balign 4
# [196] notes:array[0..127] of integer;
U_$RETRO_$$_NOTES:
	.zero 512

.section .bss
	.balign 4
# [197] opdata:array[0..65535] of cardinal;
U_$RETRO_$$_OPDATA:
	.zero 262144

.section .data.n_VMT_$RETRO_$$_TRETRO,"d"
	.balign 8
.globl	VMT_$RETRO_$$_TRETRO
VMT_$RETRO_$$_TRETRO:
	.quad	88,-88
	.quad	VMT_$CLASSES_$$_TTHREAD
	.quad	.Ld39
	.quad	0,0,0
	.quad	RTTI_$RETRO_$$_TRETRO
	.quad	0,0
	.quad	FPC_EMPTYINTF
	.quad	0
	.quad	CLASSES$_$TTHREAD_$__$$_DESTROY
	.quad	SYSTEM$_$TOBJECT_$__$$_NEWINSTANCE$$TOBJECT
	.quad	SYSTEM$_$TOBJECT_$__$$_FREEINSTANCE
	.quad	SYSTEM$_$TOBJECT_$__$$_SAFECALLEXCEPTION$TOBJECT$POINTER$$HRESULT
	.quad	FPC_EMPTYMETHOD
	.quad	CLASSES$_$TTHREAD_$__$$_AFTERCONSTRUCTION
	.quad	FPC_EMPTYMETHOD
	.quad	FPC_EMPTYMETHOD
	.quad	SYSTEM$_$TOBJECT_$__$$_DISPATCH$formal
	.quad	SYSTEM$_$TOBJECT_$__$$_DISPATCHSTR$formal
	.quad	SYSTEM$_$TOBJECT_$__$$_EQUALS$TOBJECT$$BOOLEAN
	.quad	SYSTEM$_$TOBJECT_$__$$_GETHASHCODE$$INT64
	.quad	SYSTEM$_$TOBJECT_$__$$_TOSTRING$$ANSISTRING
	.quad	CLASSES$_$TTHREAD_$__$$_DOTERMINATE
	.quad	RETRO$_$TRETRO_$__$$_EXECUTE
	.quad	0
# [1973] 
	.balign 8
.Ld39:
	.byte	6
	.ascii	"TRetro"
# End asmlist al_globals
# Begin asmlist al_typedconsts

.section .data.n_tc_$retro_$$_db,"d"
.globl	TC_$RETRO_$$_DB
TC_$RETRO_$$_DB:
	.byte	0

.section .data.n_tc_$retro_$$_timer1,"d"
	.balign 8
.globl	TC_$RETRO_$$_TIMER1
TC_$RETRO_$$_TIMER1:
	.quad	-1
# [97] siddelay:int64=20000;

.section .data.n_tc_$retro_$$_siddelay,"d"
	.balign 8
.globl	TC_$RETRO_$$_SIDDELAY
TC_$RETRO_$$_SIDDELAY:
	.quad	20000

.section .data.n_tc_$retro_$$_scj,"d"
	.balign 4
.globl	TC_$RETRO_$$_SCJ
TC_$RETRO_$$_SCJ:
	.long	0
# [101] ft1r:Tfiltertable=(0,0,0,0,0,0,0,0,0,0,0,0,0,0);

.section .data.n_tc_$retro_$$_ft1r,"d"
	.balign 8
.globl	TC_$RETRO_$$_FT1R
TC_$RETRO_$$_FT1R:
# value: 0d+0.0000000000000000E+000
	.byte	0,0,0,0,0,0,0,0
# value: 0d+0.0000000000000000E+000
	.byte	0,0,0,0,0,0,0,0
# value: 0d+0.0000000000000000E+000
	.byte	0,0,0,0,0,0,0,0
# value: 0d+0.0000000000000000E+000
	.byte	0,0,0,0,0,0,0,0
# value: 0d+0.0000000000000000E+000
	.byte	0,0,0,0,0,0,0,0
# value: 0d+0.0000000000000000E+000
	.byte	0,0,0,0,0,0,0,0
# value: 0d+0.0000000000000000E+000
	.byte	0,0,0,0,0,0,0,0
# value: 0d+0.0000000000000000E+000
	.byte	0,0,0,0,0,0,0,0
# value: 0d+0.0000000000000000E+000
	.byte	0,0,0,0,0,0,0,0
# value: 0d+0.0000000000000000E+000
	.byte	0,0,0,0,0,0,0,0
# value: 0d+0.0000000000000000E+000
	.byte	0,0,0,0,0,0,0,0
# value: 0d+0.0000000000000000E+000
	.byte	0,0,0,0,0,0,0,0
# value: 0d+0.0000000000000000E+000
	.byte	0,0,0,0,0,0,0,0
# value: 0d+0.0000000000000000E+000
	.byte	0,0,0,0,0,0,0,0
# [102] ft1l:Tfiltertable=(0,0,0,0,0,0,0,0,0,0,0,0,0,0);

.section .data.n_tc_$retro_$$_ft1l,"d"
	.balign 8
.globl	TC_$RETRO_$$_FT1L
TC_$RETRO_$$_FT1L:
# value: 0d+0.0000000000000000E+000
	.byte	0,0,0,0,0,0,0,0
# value: 0d+0.0000000000000000E+000
	.byte	0,0,0,0,0,0,0,0
# value: 0d+0.0000000000000000E+000
	.byte	0,0,0,0,0,0,0,0
# value: 0d+0.0000000000000000E+000
	.byte	0,0,0,0,0,0,0,0
# value: 0d+0.0000000000000000E+000
	.byte	0,0,0,0,0,0,0,0
# value: 0d+0.0000000000000000E+000
	.byte	0,0,0,0,0,0,0,0
# value: 0d+0.0000000000000000E+000
	.byte	0,0,0,0,0,0,0,0
# value: 0d+0.0000000000000000E+000
	.byte	0,0,0,0,0,0,0,0
# value: 0d+0.0000000000000000E+000
	.byte	0,0,0,0,0,0,0,0
# value: 0d+0.0000000000000000E+000
	.byte	0,0,0,0,0,0,0,0
# value: 0d+0.0000000000000000E+000
	.byte	0,0,0,0,0,0,0,0
# value: 0d+0.0000000000000000E+000
	.byte	0,0,0,0,0,0,0,0
# value: 0d+0.0000000000000000E+000
	.byte	0,0,0,0,0,0,0,0
# value: 0d+0.0000000000000000E+000
	.byte	0,0,0,0,0,0,0,0

.section .data.n_tc_$retro_$$_attacktable,"d"
	.balign 8
.globl	TC_$RETRO_$$_ATTACKTABLE
TC_$RETRO_$$_ATTACKTABLE:
# value: 0d+5.2079999999999997E-004
	.byte	111,116,223,123,201,16,65,63
# value: 0d+1.3019999999999999E-004
	.byte	111,116,223,123,201,16,33,63
# value: 0d+6.5099999999999997E-005
	.byte	111,116,223,123,201,16,17,63
# value: 0d+4.3399999999999998E-005
	.byte	148,240,41,165,12,193,6,63
# value: 0d+2.7399999999999999E-005
	.byte	155,243,157,169,33,187,252,62
# value: 0d+1.8600000000000001E-005
	.byte	91,23,109,68,230,128,243,62
# value: 0d+1.5299999999999999E-005
	.byte	194,196,122,254,15,11,240,62
# value: 0d+1.2999999999999999E-005
	.byte	5,162,39,101,82,67,235,62
# value: 0d+1.0400000000000000E-005
	.byte	107,78,185,29,117,207,229,62
# value: 0d+4.1699999999999999E-006
	.byte	53,138,56,223,128,125,209,62
# value: 0d+2.0800000000000000E-006
	.byte	239,113,199,23,196,114,193,62
# value: 0d+1.3020000000000000E-006
	.byte	214,97,173,35,12,216,181,62
# value: 0d+1.0400000000000000E-006
	.byte	239,113,199,23,196,114,177,62
# value: 0d+3.4700000000000002E-007
	.byte	220,164,172,35,106,73,151,62
# value: 0d+2.0800000000000001E-007
	.byte	178,28,63,89,211,234,139,62
# value: 0d+1.3000000000000000E-007
	.byte	239,113,199,23,196,114,129,62

.section .data.n_tc_$retro_$$_de,"d"
	.balign 4
.globl	TC_$RETRO_$$_DE
TC_$RETRO_$$_DE:
	.long	0
# [117] da:integer=64000;

.section .data.n_tc_$retro_$$_da,"d"
	.balign 4
.globl	TC_$RETRO_$$_DA
TC_$RETRO_$$_DA:
	.long	64000

.section .data.n_tc_$retro_$$_re,"d"
	.balign 4
.globl	TC_$RETRO_$$_RE
TC_$RETRO_$$_RE:
	.long	0
# [120] ra:integer=731;

.section .data.n_tc_$retro_$$_ra,"d"
	.balign 4
.globl	TC_$RETRO_$$_RA
TC_$RETRO_$$_RA:
	.long	731

.section .data.n_tc_$retro_$$_oldsc,"d"
	.balign 4
.globl	TC_$RETRO_$$_OLDSC
TC_$RETRO_$$_OLDSC:
	.long	0
# [124] sc:integer=0;

.section .data.n_tc_$retro_$$_sc,"d"
	.balign 4
.globl	TC_$RETRO_$$_SC
TC_$RETRO_$$_SC:
	.long	0
# [125] edelay:boolean=false;

.section .data.n_tc_$retro_$$_edelay,"d"
.globl	TC_$RETRO_$$_EDELAY
TC_$RETRO_$$_EDELAY:
	.byte	0
# [126] ereverb:boolean=false;

.section .data.n_tc_$retro_$$_ereverb,"d"
.globl	TC_$RETRO_$$_EREVERB
TC_$RETRO_$$_EREVERB:
	.byte	0
# [129] keymap2:array[0..127] of byte=(

.section .data.n_tc_$retro_$$_keymap2,"d"
.globl	TC_$RETRO_$$_KEYMAP2
TC_$RETRO_$$_KEYMAP2:
	.byte	0,0,0,0,49,57,53,0,71,54,56,58,79,0,61,63,60,59,81,83,67,72,51,74,77,55,69,52,76,50,66,68,70,0,73,75,0,78,80,52
	.byte	0,0,87,0,72,0,74,76,86,0,0,0,66,0,62,64,65,0,88,89,90,91,92,93,94,95,96,97,98,99,100,101,102,0,0,0,0,0,0,0,0,0,0,0
	.byte	0,0,0,0,0,0,95,0,96,0,0,0,0,0,67,64,48,81,0,0,0,89,0,0,0,71,69,91,93,77,83,0,84,88,65,79,62,86,60,0,0,0,0,0

.section .data.n_tc_$retro_$$_running,"d"
	.balign 4
TC_$RETRO_$$_RUNNING:
	.long	0

.section .data.n_tc_$retro_$$_needrestart,"d"
TC_$RETRO_$$_NEEDRESTART:
	.byte	0
# [207] procedure sprite(screen:pointer); forward;

.section .rodata.n__$RETRO$_Ld1,"d"
	.balign 8
.globl	_$RETRO$_Ld1
_$RETRO$_Ld1:
# value: 0d+1.0000000000000000E+004
	.byte	0,0,0,0,0,136,195,64

.section .rodata.n__$RETRO$_Ld2,"d"
	.balign 8
.globl	_$RETRO$_Ld2
_$RETRO$_Ld2:
# value: 0d+1.5018666666666667E+002
	.byte	198,146,95,44,249,197,98,64

.section .rodata.n__$RETRO$_Ld3,"d"
	.balign 8
.globl	_$RETRO$_Ld3
_$RETRO$_Ld3:
# value: 0d+1.0737418240000000E+009
	.byte	0,0,0,0,0,0,208,65

.section .rodata.n__$RETRO$_Ld4,"d"
	.balign 8
.globl	_$RETRO$_Ld4
_$RETRO$_Ld4:
# value: 0d+1.0000000000000000E+000
	.byte	0,0,0,0,0,0,240,63

.section .rodata.n__$RETRO$_Ld5,"d"
	.balign 8
	.short	0,1
	.long	0
	.quad	-1,13
.globl	_$RETRO$_Ld5
_$RETRO$_Ld5:
	.ascii	"./st4font.def\000"

.section .rodata.n__$RETRO$_Ld6,"d"
	.balign 8
	.short	0,1
	.long	0
	.quad	-1,23
.globl	_$RETRO$_Ld6
_$RETRO$_Ld6:
	.ascii	"./combinedwaveforms.bin\000"

.section .rodata.n__$RETRO$_Ld7,"d"
	.balign 8
	.short	0,1
	.long	0
	.quad	-1,10
.globl	_$RETRO$_Ld7
_$RETRO$_Ld7:
	.ascii	"./mysz.def\000"

.section .rodata.n__$RETRO$_Ld8,"d"
	.balign 8
.globl	_$RETRO$_Ld8
_$RETRO$_Ld8:
	.ascii	"best\000"

.section .rodata.n__$RETRO$_Ld9,"d"
	.balign 8
.globl	_$RETRO$_Ld9
_$RETRO$_Ld9:
	.ascii	"SDL_RENDER_SCALE_QUALITY\000"

.section .rodata.n__$RETRO$_Ld10,"d"
	.balign 8
	.short	0,1
	.long	0
	.quad	-1,1
.globl	_$RETRO$_Ld10
_$RETRO$_Ld10:
	.ascii	"1\000"

.section .rodata.n__$RETRO$_Ld11,"d"
	.balign 8
.globl	_$RETRO$_Ld11
_$RETRO$_Ld11:
	.ascii	"SDL_RENDER_DIRECT3D_THREADSAFE\000"

.section .rodata.n__$RETRO$_Ld12,"d"
	.balign 8
.globl	_$RETRO$_Ld12
_$RETRO$_Ld12:
	.ascii	"The Retromachine\000"

.section .data.n_tc_$retro$_$sdlevents_$$_x,"d"
	.balign 4
TC_$RETRO$_$SDLEVENTS_$$_X:
	.long	0
# [546] y:integer=0;

.section .data.n_tc_$retro$_$sdlevents_$$_y,"d"
	.balign 4
TC_$RETRO$_$SDLEVENTS_$$_Y:
	.long	0

.section .rodata.n__$RETRO$_Ld13,"d"
	.balign 8
	.short	0,1
	.long	0
	.quad	-1,18
.globl	_$RETRO$_Ld13
_$RETRO$_Ld13:
	.ascii	"./ataripalette.def\000"

.section .data.n_tc_$retro$_$noise1$$byte_$$_a,"d"
	.balign 4
TC_$RETRO$_$NOISE1$$BYTE_$$_A:
	.long	8388600
# [972] b22:cardinal=1 shl 22;

.section .data.n_tc_$retro$_$noise1$$byte_$$_b22,"d"
	.balign 4
TC_$RETRO$_$NOISE1$$BYTE_$$_B22:
	.long	4194304
# [973] b20:cardinal=1 shl 20;

.section .data.n_tc_$retro$_$noise1$$byte_$$_b20,"d"
	.balign 4
TC_$RETRO$_$NOISE1$$BYTE_$$_B20:
	.long	1048576
# [974] b16:cardinal=1 shl 16;

.section .data.n_tc_$retro$_$noise1$$byte_$$_b16,"d"
	.balign 4
TC_$RETRO$_$NOISE1$$BYTE_$$_B16:
	.long	65536
# [975] b13:cardinal=1 shl 13;

.section .data.n_tc_$retro$_$noise1$$byte_$$_b13,"d"
	.balign 4
TC_$RETRO$_$NOISE1$$BYTE_$$_B13:
	.long	8192
# [976] b11:cardinal=1 shl 11;

.section .data.n_tc_$retro$_$noise1$$byte_$$_b11,"d"
	.balign 4
TC_$RETRO$_$NOISE1$$BYTE_$$_B11:
	.long	2048
# [977] b07:cardinal=1 shl 07;

.section .data.n_tc_$retro$_$noise1$$byte_$$_b07,"d"
	.balign 4
TC_$RETRO$_$NOISE1$$BYTE_$$_B07:
	.long	128
# [978] b04:cardinal=1 shl 04;

.section .data.n_tc_$retro$_$noise1$$byte_$$_b04,"d"
	.balign 4
TC_$RETRO$_$NOISE1$$BYTE_$$_B04:
	.long	16
# [979] b02:cardinal=1 shl 02;

.section .data.n_tc_$retro$_$noise1$$byte_$$_b02,"d"
	.balign 4
TC_$RETRO$_$NOISE1$$BYTE_$$_B02:
	.long	4
# [980] b17:cardinal=1 shl 17;

.section .data.n_tc_$retro$_$noise1$$byte_$$_b17,"d"
	.balign 4
TC_$RETRO$_$NOISE1$$BYTE_$$_B17:
	.long	131072
# [982] var output:cardinal;

.section .data.n_tc_$retro$_$noise2$$longword_$$_a,"d"
	.balign 8
TC_$RETRO$_$NOISE2$$LONGWORD_$$_A:
	.quad	8388600
# [1005] var output:int64;

.section .data.n_tc_$retro$_$noise3$$longword_$$_a,"d"
	.balign 8
TC_$RETRO$_$NOISE3$$LONGWORD_$$_A:
	.quad	8388600
# [1027] b22:int64=1 shl 22;

.section .data.n_tc_$retro$_$noise3$$longword_$$_b22,"d"
	.balign 8
TC_$RETRO$_$NOISE3$$LONGWORD_$$_B22:
	.quad	4194304
# [1028] b20:int64=1 shl 20;

.section .data.n_tc_$retro$_$noise3$$longword_$$_b20,"d"
	.balign 8
TC_$RETRO$_$NOISE3$$LONGWORD_$$_B20:
	.quad	1048576
# [1029] b16:int64=1 shl 16;

.section .data.n_tc_$retro$_$noise3$$longword_$$_b16,"d"
	.balign 8
TC_$RETRO$_$NOISE3$$LONGWORD_$$_B16:
	.quad	65536
# [1030] b13:int64=1 shl 13;

.section .data.n_tc_$retro$_$noise3$$longword_$$_b13,"d"
	.balign 8
TC_$RETRO$_$NOISE3$$LONGWORD_$$_B13:
	.quad	8192
# [1031] b11:int64=1 shl 11;

.section .data.n_tc_$retro$_$noise3$$longword_$$_b11,"d"
	.balign 8
TC_$RETRO$_$NOISE3$$LONGWORD_$$_B11:
	.quad	2048
# [1032] b07:int64=1 shl 07;

.section .data.n_tc_$retro$_$noise3$$longword_$$_b07,"d"
	.balign 8
TC_$RETRO$_$NOISE3$$LONGWORD_$$_B07:
	.quad	128
# [1033] b04:int64=1 shl 04;

.section .data.n_tc_$retro$_$noise3$$longword_$$_b04,"d"
	.balign 8
TC_$RETRO$_$NOISE3$$LONGWORD_$$_B04:
	.quad	16
# [1034] b02:int64=1 shl 02;

.section .data.n_tc_$retro$_$noise3$$longword_$$_b02,"d"
	.balign 8
TC_$RETRO$_$NOISE3$$LONGWORD_$$_B02:
	.quad	4
# [1035] b17:int64=1 shl 17;

.section .data.n_tc_$retro$_$noise3$$longword_$$_b17,"d"
	.balign 8
TC_$RETRO$_$NOISE3$$LONGWORD_$$_B17:
	.quad	131072
# [1037] var output:int64;

.section .data.n_tc_$retro$_$sid$longint$$tsample_$$_pa1,"d"
	.balign 8
TC_$RETRO$_$SID$LONGINT$$TSAMPLE_$$_PA1:
# value: 0d+0.0000000000000000E+000
	.byte	0,0,0,0,0,0,0,0
# [1083] pa2:double=0;

.section .data.n_tc_$retro$_$sid$longint$$tsample_$$_pa2,"d"
	.balign 8
TC_$RETRO$_$SID$LONGINT$$TSAMPLE_$$_PA2:
# value: 0d+0.0000000000000000E+000
	.byte	0,0,0,0,0,0,0,0
# [1084] pa3:double=0;

.section .data.n_tc_$retro$_$sid$longint$$tsample_$$_pa3,"d"
	.balign 8
TC_$RETRO$_$SID$LONGINT$$TSAMPLE_$$_PA3:
# value: 0d+0.0000000000000000E+000
	.byte	0,0,0,0,0,0,0,0
# [1085] pa1n:double=0;

.section .data.n_tc_$retro$_$sid$longint$$tsample_$$_pa1n,"d"
	.balign 8
TC_$RETRO$_$SID$LONGINT$$TSAMPLE_$$_PA1N:
# value: 0d+0.0000000000000000E+000
	.byte	0,0,0,0,0,0,0,0
# [1086] pa2n:double=0;

.section .data.n_tc_$retro$_$sid$longint$$tsample_$$_pa2n,"d"
	.balign 8
TC_$RETRO$_$SID$LONGINT$$TSAMPLE_$$_PA2N:
# value: 0d+0.0000000000000000E+000
	.byte	0,0,0,0,0,0,0,0
# [1087] pa3n:double=0;

.section .data.n_tc_$retro$_$sid$longint$$tsample_$$_pa3n,"d"
	.balign 8
TC_$RETRO$_$SID$LONGINT$$TSAMPLE_$$_PA3N:
# value: 0d+0.0000000000000000E+000
	.byte	0,0,0,0,0,0,0,0
# [1089] pa1i:integer=0;

.section .data.n_tc_$retro$_$sid$longint$$tsample_$$_pa1i,"d"
	.balign 4
TC_$RETRO$_$SID$LONGINT$$TSAMPLE_$$_PA1I:
	.long	0
# [1090] pa2i:integer=0;

.section .data.n_tc_$retro$_$sid$longint$$tsample_$$_pa2i,"d"
	.balign 4
TC_$RETRO$_$SID$LONGINT$$TSAMPLE_$$_PA2I:
	.long	0
# [1091] pa3i:integer=0;

.section .data.n_tc_$retro$_$sid$longint$$tsample_$$_pa3i,"d"
	.balign 4
TC_$RETRO$_$SID$LONGINT$$TSAMPLE_$$_PA3I:
	.long	0
# [1092] pa1ni:integer=0;

.section .data.n_tc_$retro$_$sid$longint$$tsample_$$_pa1ni,"d"
	.balign 4
TC_$RETRO$_$SID$LONGINT$$TSAMPLE_$$_PA1NI:
	.long	0
# [1093] pa2ni:integer=0;

.section .data.n_tc_$retro$_$sid$longint$$tsample_$$_pa2ni,"d"
	.balign 4
TC_$RETRO$_$SID$LONGINT$$TSAMPLE_$$_PA2NI:
	.long	0
# [1094] pa3ni:integer=0;

.section .data.n_tc_$retro$_$sid$longint$$tsample_$$_pa3ni,"d"
	.balign 4
TC_$RETRO$_$SID$LONGINT$$TSAMPLE_$$_PA3NI:
	.long	0
# [1096] filter_b:double=0;

.section .data.n_tc_$retro$_$sid$longint$$tsample_$$_filter_b,"d"
	.balign 8
TC_$RETRO$_$SID$LONGINT$$TSAMPLE_$$_FILTER_B:
# value: 0d+0.0000000000000000E+000
	.byte	0,0,0,0,0,0,0,0
# [1097] filter_h:double=0;

.section .data.n_tc_$retro$_$sid$longint$$tsample_$$_filter_h,"d"
	.balign 8
TC_$RETRO$_$SID$LONGINT$$TSAMPLE_$$_FILTER_H:
# value: 0d+0.0000000000000000E+000
	.byte	0,0,0,0,0,0,0,0
# [1098] filter_l:double=0;

.section .data.n_tc_$retro$_$sid$longint$$tsample_$$_filter_l,"d"
	.balign 8
TC_$RETRO$_$SID$LONGINT$$TSAMPLE_$$_FILTER_L:
# value: 0d+0.0000000000000000E+000
	.byte	0,0,0,0,0,0,0,0
# [1100] filter_b2:double=0;

.section .data.n_tc_$retro$_$sid$longint$$tsample_$$_filter_b2,"d"
	.balign 8
TC_$RETRO$_$SID$LONGINT$$TSAMPLE_$$_FILTER_B2:
# value: 0d+0.0000000000000000E+000
	.byte	0,0,0,0,0,0,0,0
# [1101] filter_h2:double=0;

.section .data.n_tc_$retro$_$sid$longint$$tsample_$$_filter_h2,"d"
	.balign 8
TC_$RETRO$_$SID$LONGINT$$TSAMPLE_$$_FILTER_H2:
# value: 0d+0.0000000000000000E+000
	.byte	0,0,0,0,0,0,0,0
# [1102] filter_l2:double=0;

.section .data.n_tc_$retro$_$sid$longint$$tsample_$$_filter_l2,"d"
	.balign 8
TC_$RETRO$_$SID$LONGINT$$TSAMPLE_$$_FILTER_L2:
# value: 0d+0.0000000000000000E+000
	.byte	0,0,0,0,0,0,0,0
# [1104] filter_b3:double=0;

.section .data.n_tc_$retro$_$sid$longint$$tsample_$$_filter_b3,"d"
	.balign 8
TC_$RETRO$_$SID$LONGINT$$TSAMPLE_$$_FILTER_B3:
# value: 0d+0.0000000000000000E+000
	.byte	0,0,0,0,0,0,0,0
# [1105] filter_h3:double=0;

.section .data.n_tc_$retro$_$sid$longint$$tsample_$$_filter_h3,"d"
	.balign 8
TC_$RETRO$_$SID$LONGINT$$TSAMPLE_$$_FILTER_H3:
# value: 0d+0.0000000000000000E+000
	.byte	0,0,0,0,0,0,0,0
# [1106] filter_l3:double=0;

.section .data.n_tc_$retro$_$sid$longint$$tsample_$$_filter_l3,"d"
	.balign 8
TC_$RETRO$_$SID$LONGINT$$TSAMPLE_$$_FILTER_L3:
# value: 0d+0.0000000000000000E+000
	.byte	0,0,0,0,0,0,0,0
# [1109] filter_bi:integer=0;

.section .data.n_tc_$retro$_$sid$longint$$tsample_$$_filter_bi,"d"
	.balign 4
TC_$RETRO$_$SID$LONGINT$$TSAMPLE_$$_FILTER_BI:
	.long	0
# [1110] filter_hi:integer=0;

.section .data.n_tc_$retro$_$sid$longint$$tsample_$$_filter_hi,"d"
	.balign 4
TC_$RETRO$_$SID$LONGINT$$TSAMPLE_$$_FILTER_HI:
	.long	0
# [1111] filter_li:integer=0;

.section .data.n_tc_$retro$_$sid$longint$$tsample_$$_filter_li,"d"
	.balign 4
TC_$RETRO$_$SID$LONGINT$$TSAMPLE_$$_FILTER_LI:
	.long	0
# [1113] filter_b2i:integer=0;

.section .data.n_tc_$retro$_$sid$longint$$tsample_$$_filter_b2i,"d"
	.balign 4
TC_$RETRO$_$SID$LONGINT$$TSAMPLE_$$_FILTER_B2I:
	.long	0
# [1114] filter_h2i:integer=0;

.section .data.n_tc_$retro$_$sid$longint$$tsample_$$_filter_h2i,"d"
	.balign 4
TC_$RETRO$_$SID$LONGINT$$TSAMPLE_$$_FILTER_H2I:
	.long	0
# [1115] filter_l2i:integer=0;

.section .data.n_tc_$retro$_$sid$longint$$tsample_$$_filter_l2i,"d"
	.balign 4
TC_$RETRO$_$SID$LONGINT$$TSAMPLE_$$_FILTER_L2I:
	.long	0
# [1117] filter_b3i:integer=0;

.section .data.n_tc_$retro$_$sid$longint$$tsample_$$_filter_b3i,"d"
	.balign 4
TC_$RETRO$_$SID$LONGINT$$TSAMPLE_$$_FILTER_B3I:
	.long	0
# [1118] filter_h3i:integer=0;

.section .data.n_tc_$retro$_$sid$longint$$tsample_$$_filter_h3i,"d"
	.balign 4
TC_$RETRO$_$SID$LONGINT$$TSAMPLE_$$_FILTER_H3I:
	.long	0
# [1119] filter_l3i:integer=0;

.section .data.n_tc_$retro$_$sid$longint$$tsample_$$_filter_l3i,"d"
	.balign 4
TC_$RETRO$_$SID$LONGINT$$TSAMPLE_$$_FILTER_L3I:
	.long	0
# [1123] wv1:double=0;

.section .data.n_tc_$retro$_$sid$longint$$tsample_$$_wv1,"d"
	.balign 8
TC_$RETRO$_$SID$LONGINT$$TSAMPLE_$$_WV1:
# value: 0d+0.0000000000000000E+000
	.byte	0,0,0,0,0,0,0,0
# [1124] wv2:double=0;

.section .data.n_tc_$retro$_$sid$longint$$tsample_$$_wv2,"d"
	.balign 8
TC_$RETRO$_$SID$LONGINT$$TSAMPLE_$$_WV2:
# value: 0d+0.0000000000000000E+000
	.byte	0,0,0,0,0,0,0,0
# [1125] wv3:double=0;

.section .data.n_tc_$retro$_$sid$longint$$tsample_$$_wv3,"d"
	.balign 8
TC_$RETRO$_$SID$LONGINT$$TSAMPLE_$$_WV3:
# value: 0d+0.0000000000000000E+000
	.byte	0,0,0,0,0,0,0,0
# [1126] wv4i:integer=0;

.section .data.n_tc_$retro$_$sid$longint$$tsample_$$_wv4i,"d"
	.balign 4
TC_$RETRO$_$SID$LONGINT$$TSAMPLE_$$_WV4I:
	.long	0
# [1127] wv5i:integer=0;

.section .data.n_tc_$retro$_$sid$longint$$tsample_$$_wv5i,"d"
	.balign 4
TC_$RETRO$_$SID$LONGINT$$TSAMPLE_$$_WV5I:
	.long	0
# [1128] adsrvol1i:int64=0;

.section .data.n_tc_$retro$_$sid$longint$$tsample_$$_adsrvol1i,"d"
	.balign 8
TC_$RETRO$_$SID$LONGINT$$TSAMPLE_$$_ADSRVOL1I:
	.quad	0
# [1129] adsrvol2i:int64=0;

.section .data.n_tc_$retro$_$sid$longint$$tsample_$$_adsrvol2i,"d"
	.balign 8
TC_$RETRO$_$SID$LONGINT$$TSAMPLE_$$_ADSRVOL2I:
	.quad	0
# [1130] adsrvol3i:int64=0;

.section .data.n_tc_$retro$_$sid$longint$$tsample_$$_adsrvol3i,"d"
	.balign 8
TC_$RETRO$_$SID$LONGINT$$TSAMPLE_$$_ADSRVOL3I:
	.quad	0
# [1131] adsrstate1:byte=0;

.section .data.n_tc_$retro$_$sid$longint$$tsample_$$_adsrstate1,"d"
TC_$RETRO$_$SID$LONGINT$$TSAMPLE_$$_ADSRSTATE1:
	.byte	0
# [1132] adsrstate2:byte=0;

.section .data.n_tc_$retro$_$sid$longint$$tsample_$$_adsrstate2,"d"
TC_$RETRO$_$SID$LONGINT$$TSAMPLE_$$_ADSRSTATE2:
	.byte	0
# [1133] adsrstate3:byte=0;

.section .data.n_tc_$retro$_$sid$longint$$tsample_$$_adsrstate3,"d"
TC_$RETRO$_$SID$LONGINT$$TSAMPLE_$$_ADSRSTATE3:
	.byte	0
# [1134] sustainvol1i:int64=0;

.section .data.n_tc_$retro$_$sid$longint$$tsample_$$_sustainvol1i,"d"
	.balign 8
TC_$RETRO$_$SID$LONGINT$$TSAMPLE_$$_SUSTAINVOL1I:
	.quad	0
# [1135] sustainvol2i:int64=0;

.section .data.n_tc_$retro$_$sid$longint$$tsample_$$_sustainvol2i,"d"
	.balign 8
TC_$RETRO$_$SID$LONGINT$$TSAMPLE_$$_SUSTAINVOL2I:
	.quad	0
# [1136] sustainvol3i:int64=0;

.section .data.n_tc_$retro$_$sid$longint$$tsample_$$_sustainvol3i,"d"
	.balign 8
TC_$RETRO$_$SID$LONGINT$$TSAMPLE_$$_SUSTAINVOL3I:
	.quad	0
# [1137] oldsc:integer=0;

.section .data.n_tc_$retro$_$sid$longint$$tsample_$$_oldsc,"d"
	.balign 4
TC_$RETRO$_$SID$LONGINT$$TSAMPLE_$$_OLDSC:
	.long	0
# [1138] sc:integer=0;

.section .data.n_tc_$retro$_$sid$longint$$tsample_$$_sc,"d"
	.balign 4
TC_$RETRO$_$SID$LONGINT$$TSAMPLE_$$_SC:
	.long	0
# [1139] sli:integer=0;

.section .data.n_tc_$retro$_$sid$longint$$tsample_$$_sli,"d"
	.balign 4
TC_$RETRO$_$SID$LONGINT$$TSAMPLE_$$_SLI:
	.long	0
# [1140] sri:integer=0;

.section .data.n_tc_$retro$_$sid$longint$$tsample_$$_sri,"d"
	.balign 4
TC_$RETRO$_$SID$LONGINT$$TSAMPLE_$$_SRI:
	.long	0
# [1143] freq1:double=0;

.section .data.n_tc_$retro$_$sid$longint$$tsample_$$_freq1,"d"
	.balign 8
TC_$RETRO$_$SID$LONGINT$$TSAMPLE_$$_FREQ1:
# value: 0d+0.0000000000000000E+000
	.byte	0,0,0,0,0,0,0,0
# [1144] freq1n:double=0;

.section .data.n_tc_$retro$_$sid$longint$$tsample_$$_freq1n,"d"
	.balign 8
TC_$RETRO$_$SID$LONGINT$$TSAMPLE_$$_FREQ1N:
# value: 0d+0.0000000000000000E+000
	.byte	0,0,0,0,0,0,0,0
# [1145] freq1i:integer=0;

.section .data.n_tc_$retro$_$sid$longint$$tsample_$$_freq1i,"d"
	.balign 4
TC_$RETRO$_$SID$LONGINT$$TSAMPLE_$$_FREQ1I:
	.long	0
# [1146] freq1ni:integer=0;

.section .data.n_tc_$retro$_$sid$longint$$tsample_$$_freq1ni,"d"
	.balign 4
TC_$RETRO$_$SID$LONGINT$$TSAMPLE_$$_FREQ1NI:
	.long	0
# [1147] waveform1:word=0;

.section .data.n_tc_$retro$_$sid$longint$$tsample_$$_waveform1,"d"
	.balign 2
TC_$RETRO$_$SID$LONGINT$$TSAMPLE_$$_WAVEFORM1:
	.short	0
# [1148] gate1:byte=0;

.section .data.n_tc_$retro$_$sid$longint$$tsample_$$_gate1,"d"
TC_$RETRO$_$SID$LONGINT$$TSAMPLE_$$_GATE1:
	.byte	0
# [1149] sa1:byte=0;

.section .data.n_tc_$retro$_$sid$longint$$tsample_$$_sa1,"d"
TC_$RETRO$_$SID$LONGINT$$TSAMPLE_$$_SA1:
	.byte	0
# [1150] sd1:byte=0;

.section .data.n_tc_$retro$_$sid$longint$$tsample_$$_sd1,"d"
TC_$RETRO$_$SID$LONGINT$$TSAMPLE_$$_SD1:
	.byte	0
# [1151] ss1:byte=0;

.section .data.n_tc_$retro$_$sid$longint$$tsample_$$_ss1,"d"
TC_$RETRO$_$SID$LONGINT$$TSAMPLE_$$_SS1:
	.byte	0
# [1152] sr1:byte=0;

.section .data.n_tc_$retro$_$sid$longint$$tsample_$$_sr1,"d"
TC_$RETRO$_$SID$LONGINT$$TSAMPLE_$$_SR1:
	.byte	0
# [1153] pw1i:integer=0;

.section .data.n_tc_$retro$_$sid$longint$$tsample_$$_pw1i,"d"
	.balign 4
TC_$RETRO$_$SID$LONGINT$$TSAMPLE_$$_PW1I:
	.long	0
# [1154] test1:byte=0;

.section .data.n_tc_$retro$_$sid$longint$$tsample_$$_test1,"d"
TC_$RETRO$_$SID$LONGINT$$TSAMPLE_$$_TEST1:
	.byte	0
# [1155] sync1:integer=0;

.section .data.n_tc_$retro$_$sid$longint$$tsample_$$_sync1,"d"
	.balign 4
TC_$RETRO$_$SID$LONGINT$$TSAMPLE_$$_SYNC1:
	.long	0
# [1156] ring1:byte=0;

.section .data.n_tc_$retro$_$sid$longint$$tsample_$$_ring1,"d"
TC_$RETRO$_$SID$LONGINT$$TSAMPLE_$$_RING1:
	.byte	0
# [1157] f1:boolean=false;

.section .data.n_tc_$retro$_$sid$longint$$tsample_$$_f1,"d"
TC_$RETRO$_$SID$LONGINT$$TSAMPLE_$$_F1:
	.byte	0
# [1159] freq2:double=0;

.section .data.n_tc_$retro$_$sid$longint$$tsample_$$_freq2,"d"
	.balign 8
TC_$RETRO$_$SID$LONGINT$$TSAMPLE_$$_FREQ2:
# value: 0d+0.0000000000000000E+000
	.byte	0,0,0,0,0,0,0,0
# [1160] freq2n:double=0;

.section .data.n_tc_$retro$_$sid$longint$$tsample_$$_freq2n,"d"
	.balign 8
TC_$RETRO$_$SID$LONGINT$$TSAMPLE_$$_FREQ2N:
# value: 0d+0.0000000000000000E+000
	.byte	0,0,0,0,0,0,0,0
# [1161] freq2i:integer=0;

.section .data.n_tc_$retro$_$sid$longint$$tsample_$$_freq2i,"d"
	.balign 4
TC_$RETRO$_$SID$LONGINT$$TSAMPLE_$$_FREQ2I:
	.long	0
# [1162] freq2ni:integer=0;

.section .data.n_tc_$retro$_$sid$longint$$tsample_$$_freq2ni,"d"
	.balign 4
TC_$RETRO$_$SID$LONGINT$$TSAMPLE_$$_FREQ2NI:
	.long	0
# [1163] waveform2:word=0;

.section .data.n_tc_$retro$_$sid$longint$$tsample_$$_waveform2,"d"
	.balign 2
TC_$RETRO$_$SID$LONGINT$$TSAMPLE_$$_WAVEFORM2:
	.short	0
# [1164] gate2:byte=0;

.section .data.n_tc_$retro$_$sid$longint$$tsample_$$_gate2,"d"
TC_$RETRO$_$SID$LONGINT$$TSAMPLE_$$_GATE2:
	.byte	0
# [1165] sa2:byte=0;

.section .data.n_tc_$retro$_$sid$longint$$tsample_$$_sa2,"d"
TC_$RETRO$_$SID$LONGINT$$TSAMPLE_$$_SA2:
	.byte	0
# [1166] sd2:byte=0;

.section .data.n_tc_$retro$_$sid$longint$$tsample_$$_sd2,"d"
TC_$RETRO$_$SID$LONGINT$$TSAMPLE_$$_SD2:
	.byte	0
# [1167] ss2:byte=0;

.section .data.n_tc_$retro$_$sid$longint$$tsample_$$_ss2,"d"
TC_$RETRO$_$SID$LONGINT$$TSAMPLE_$$_SS2:
	.byte	0
# [1168] sr2:byte=0;

.section .data.n_tc_$retro$_$sid$longint$$tsample_$$_sr2,"d"
TC_$RETRO$_$SID$LONGINT$$TSAMPLE_$$_SR2:
	.byte	0
# [1169] pw2i:integer=0;

.section .data.n_tc_$retro$_$sid$longint$$tsample_$$_pw2i,"d"
	.balign 4
TC_$RETRO$_$SID$LONGINT$$TSAMPLE_$$_PW2I:
	.long	0
# [1170] test2:byte=0;

.section .data.n_tc_$retro$_$sid$longint$$tsample_$$_test2,"d"
TC_$RETRO$_$SID$LONGINT$$TSAMPLE_$$_TEST2:
	.byte	0
# [1171] sync2:integer=0;

.section .data.n_tc_$retro$_$sid$longint$$tsample_$$_sync2,"d"
	.balign 4
TC_$RETRO$_$SID$LONGINT$$TSAMPLE_$$_SYNC2:
	.long	0
# [1172] ring2:byte=0;

.section .data.n_tc_$retro$_$sid$longint$$tsample_$$_ring2,"d"
TC_$RETRO$_$SID$LONGINT$$TSAMPLE_$$_RING2:
	.byte	0
# [1173] f2:boolean=false;

.section .data.n_tc_$retro$_$sid$longint$$tsample_$$_f2,"d"
TC_$RETRO$_$SID$LONGINT$$TSAMPLE_$$_F2:
	.byte	0
# [1175] freq3:double=0;

.section .data.n_tc_$retro$_$sid$longint$$tsample_$$_freq3,"d"
	.balign 8
TC_$RETRO$_$SID$LONGINT$$TSAMPLE_$$_FREQ3:
# value: 0d+0.0000000000000000E+000
	.byte	0,0,0,0,0,0,0,0
# [1176] freq3n:double=0;

.section .data.n_tc_$retro$_$sid$longint$$tsample_$$_freq3n,"d"
	.balign 8
TC_$RETRO$_$SID$LONGINT$$TSAMPLE_$$_FREQ3N:
# value: 0d+0.0000000000000000E+000
	.byte	0,0,0,0,0,0,0,0
# [1177] freq3i:integer=0;

.section .data.n_tc_$retro$_$sid$longint$$tsample_$$_freq3i,"d"
	.balign 4
TC_$RETRO$_$SID$LONGINT$$TSAMPLE_$$_FREQ3I:
	.long	0
# [1178] freq3ni:integer=0;

.section .data.n_tc_$retro$_$sid$longint$$tsample_$$_freq3ni,"d"
	.balign 4
TC_$RETRO$_$SID$LONGINT$$TSAMPLE_$$_FREQ3NI:
	.long	0
# [1179] waveform3:word=0;

.section .data.n_tc_$retro$_$sid$longint$$tsample_$$_waveform3,"d"
	.balign 2
TC_$RETRO$_$SID$LONGINT$$TSAMPLE_$$_WAVEFORM3:
	.short	0
# [1180] gate3:byte=0;

.section .data.n_tc_$retro$_$sid$longint$$tsample_$$_gate3,"d"
TC_$RETRO$_$SID$LONGINT$$TSAMPLE_$$_GATE3:
	.byte	0
# [1181] sa3:byte=0;

.section .data.n_tc_$retro$_$sid$longint$$tsample_$$_sa3,"d"
TC_$RETRO$_$SID$LONGINT$$TSAMPLE_$$_SA3:
	.byte	0
# [1182] sd3:byte=0;

.section .data.n_tc_$retro$_$sid$longint$$tsample_$$_sd3,"d"
TC_$RETRO$_$SID$LONGINT$$TSAMPLE_$$_SD3:
	.byte	0
# [1183] ss3:byte=0;

.section .data.n_tc_$retro$_$sid$longint$$tsample_$$_ss3,"d"
TC_$RETRO$_$SID$LONGINT$$TSAMPLE_$$_SS3:
	.byte	0
# [1184] sr3:byte=0;

.section .data.n_tc_$retro$_$sid$longint$$tsample_$$_sr3,"d"
TC_$RETRO$_$SID$LONGINT$$TSAMPLE_$$_SR3:
	.byte	0
# [1185] pw3i:integer=0;

.section .data.n_tc_$retro$_$sid$longint$$tsample_$$_pw3i,"d"
	.balign 4
TC_$RETRO$_$SID$LONGINT$$TSAMPLE_$$_PW3I:
	.long	0
# [1186] test3:byte=0;

.section .data.n_tc_$retro$_$sid$longint$$tsample_$$_test3,"d"
TC_$RETRO$_$SID$LONGINT$$TSAMPLE_$$_TEST3:
	.byte	0
# [1187] sync3:integer=0;

.section .data.n_tc_$retro$_$sid$longint$$tsample_$$_sync3,"d"
	.balign 4
TC_$RETRO$_$SID$LONGINT$$TSAMPLE_$$_SYNC3:
	.long	0
# [1188] ring3:byte=0;

.section .data.n_tc_$retro$_$sid$longint$$tsample_$$_ring3,"d"
TC_$RETRO$_$SID$LONGINT$$TSAMPLE_$$_RING3:
	.byte	0
# [1189] f3:boolean=false;

.section .data.n_tc_$retro$_$sid$longint$$tsample_$$_f3,"d"
TC_$RETRO$_$SID$LONGINT$$TSAMPLE_$$_F3:
	.byte	0
# [1191] ff:word=0;

.section .data.n_tc_$retro$_$sid$longint$$tsample_$$_ff,"d"
	.balign 2
TC_$RETRO$_$SID$LONGINT$$TSAMPLE_$$_FF:
	.short	0
# [1192] filter_resonance2:double=0;

.section .data.n_tc_$retro$_$sid$longint$$tsample_$$_filter_resonance2,"d"
	.balign 8
TC_$RETRO$_$SID$LONGINT$$TSAMPLE_$$_FILTER_RESONANCE2:
# value: 0d+0.0000000000000000E+000
	.byte	0,0,0,0,0,0,0,0
# [1193] filter_freq:double=0;

.section .data.n_tc_$retro$_$sid$longint$$tsample_$$_filter_freq,"d"
	.balign 8
TC_$RETRO$_$SID$LONGINT$$TSAMPLE_$$_FILTER_FREQ:
# value: 0d+0.0000000000000000E+000
	.byte	0,0,0,0,0,0,0,0
# [1194] filter_resonance2i:integer=0;

.section .data.n_tc_$retro$_$sid$longint$$tsample_$$_filter_resonance2i,"d"
	.balign 4
TC_$RETRO$_$SID$LONGINT$$TSAMPLE_$$_FILTER_RESONANCE2I:
	.long	0
# [1195] filter_freqi:integer=0;

.section .data.n_tc_$retro$_$sid$longint$$tsample_$$_filter_freqi,"d"
	.balign 4
TC_$RETRO$_$SID$LONGINT$$TSAMPLE_$$_FILTER_FREQI:
	.long	0
# [1196] volume:integer=0;

.section .data.n_tc_$retro$_$sid$longint$$tsample_$$_volume,"d"
	.balign 4
TC_$RETRO$_$SID$LONGINT$$TSAMPLE_$$_VOLUME:
	.long	0
# [1197] c3off:double=0;

.section .data.n_tc_$retro$_$sid$longint$$tsample_$$_c3off,"d"
	.balign 8
TC_$RETRO$_$SID$LONGINT$$TSAMPLE_$$_C3OFF:
# value: 0d+0.0000000000000000E+000
	.byte	0,0,0,0,0,0,0,0
# [1199] fu:integer=0;

.section .data.n_tc_$retro$_$sid$longint$$tsample_$$_fu,"d"
	.balign 4
TC_$RETRO$_$SID$LONGINT$$TSAMPLE_$$_FU:
	.long	0
# [1200] fl:integer=0;

.section .data.n_tc_$retro$_$sid$longint$$tsample_$$_fl,"d"
	.balign 4
TC_$RETRO$_$SID$LONGINT$$TSAMPLE_$$_FL:
	.long	0
# [1201] fb:integer=0;

.section .data.n_tc_$retro$_$sid$longint$$tsample_$$_fb,"d"
	.balign 4
TC_$RETRO$_$SID$LONGINT$$TSAMPLE_$$_FB:
	.long	0
# [1202] wv1i:integer=0;

.section .data.n_tc_$retro$_$sid$longint$$tsample_$$_wv1i,"d"
	.balign 4
TC_$RETRO$_$SID$LONGINT$$TSAMPLE_$$_WV1I:
	.long	0
# [1203] wv2i:integer=0;

.section .data.n_tc_$retro$_$sid$longint$$tsample_$$_wv2i,"d"
	.balign 4
TC_$RETRO$_$SID$LONGINT$$TSAMPLE_$$_WV2I:
	.long	0
# [1204] wv3i:integer=0;

.section .data.n_tc_$retro$_$sid$longint$$tsample_$$_wv3i,"d"
	.balign 4
TC_$RETRO$_$SID$LONGINT$$TSAMPLE_$$_WV3I:
	.long	0
# [1206] var i,sid1,sid1l,ind:integer;

.section .rodata.n__$RETRO$_Ld14,"d"
	.balign 4
.globl	_$RETRO$_Ld14
_$RETRO$_Ld14:
# value: 0d+2.560000000E+02
	.byte	0,0,128,67

.section .rodata.n__$RETRO$_Ld15,"d"
	.balign 4
.globl	_$RETRO$_Ld15
_$RETRO$_Ld15:
# value: 0d+5.000000000E-01
	.byte	0,0,0,63

.section .rodata.n__$RETRO$_Ld17,"d"
	.balign 8
.globl	_$RETRO$_Ld17
_$RETRO$_Ld17:
# value: 0d+0.0000000000000000E+000
	.byte	0,0,0,0,0,0,0,0

.section .rodata.n__$RETRO$_Ld20,"d"
	.balign 8
.globl	_$RETRO$_Ld20
_$RETRO$_Ld20:
# value: 0d+1.6351597831287418E+001
	.byte	87,185,194,80,2,90,48,64

.section .rodata.n__$RETRO$_Ld21,"d"
	.balign 8
.globl	_$RETRO$_Ld21
_$RETRO$_Ld21:
# value: 0d+6.8157440000000000E-002
	.byte	239,113,199,23,196,114,177,63

.section .rodata.n__$RETRO$_Ld22,"d"
	.balign 8
.globl	_$RETRO$_Ld22
_$RETRO$_Ld22:
# value: 0d+6.5536000000000000E+004
	.byte	0,0,0,0,0,0,240,64

.section .rodata.n__$RETRO$_Ld23,"d"
	.balign 8
.globl	_$RETRO$_Ld23
_$RETRO$_Ld23:
# value: 0d+1.0594630943592953E+000
	.byte	99,121,217,146,143,243,240,63

.section .rodata.n__$RETRO$_Ld24,"d"
	.balign 8
.globl	_$RETRO$_Ld24
_$RETRO$_Ld24:
# value: 0d+8.3886070000000000E+006
	.byte	0,0,0,192,255,255,95,65

.section .rodata.n__$RETRO$_Ld25,"d"
	.balign 8
.globl	_$RETRO$_Ld25
_$RETRO$_Ld25:
# value: 0d+6.2831853071795862E+000
	.byte	24,45,68,84,251,33,25,64

.section .rodata.n__$RETRO$_Ld26,"d"
	.balign 8
.globl	_$RETRO$_Ld26
_$RETRO$_Ld26:
# value: 0d+1.5258789062500000E-005
	.byte	0,0,0,0,0,0,240,62

.section .rodata.n__$RETRO$_Ld27,"d"
	.balign 8
.globl	_$RETRO$_Ld27
_$RETRO$_Ld27:
# value: 0d+4.2949672960000000E+009
	.byte	0,0,0,0,0,0,240,65

.section .rodata.n__$RETRO$_Ld28,"d"
	.balign 8
.globl	_$RETRO$_Ld28
_$RETRO$_Ld28:
# value: 0d+9.9984136378479382E-001
	.byte	108,153,212,80,179,254,239,63

.section .data.n_tc_$retro$_$antialias6$double$tfiltertable$$double_$$_gain,"d"
	.balign 8
TC_$RETRO$_$ANTIALIAS6$DOUBLE$TFILTERTABLE$$DOUBLE_$$_GAIN:
# value: 0d+6.8555321079999998E+007
	.byte	133,235,81,228,72,88,144,65

.section .rodata.n__$RETRO$_Ld29,"d"
	.balign 8
.globl	_$RETRO$_Ld29
_$RETRO$_Ld29:
# value: 0d+6.0000000000000000E+000
	.byte	0,0,0,0,0,0,24,64

.section .rodata.n__$RETRO$_Ld30,"d"
	.balign 8
.globl	_$RETRO$_Ld30
_$RETRO$_Ld30:
# value: 0d+1.5000000000000000E+001
	.byte	0,0,0,0,0,0,46,64

.section .rodata.n__$RETRO$_Ld31,"d"
	.balign 8
.globl	_$RETRO$_Ld31
_$RETRO$_Ld31:
# value: 0d+2.0000000000000000E+001
	.byte	0,0,0,0,0,0,52,64

.section .rodata.n__$RETRO$_Ld32,"d"
	.balign 8
.globl	_$RETRO$_Ld32
_$RETRO$_Ld32:
# value: 0d-7.9924224560000001E-001
	.byte	13,224,77,121,100,147,233,191

.section .rodata.n__$RETRO$_Ld33,"d"
	.balign 8
.globl	_$RETRO$_Ld33
_$RETRO$_Ld33:
# value: 0d+4.9534616898000001E+000
	.byte	55,184,222,66,88,208,19,64

.section .rodata.n__$RETRO$_Ld34,"d"
	.balign 8
.globl	_$RETRO$_Ld34
_$RETRO$_Ld34:
# value: 0d-1.2816370553000000E+001
	.byte	217,26,53,82,251,161,41,192

.section .rodata.n__$RETRO$_Ld35,"d"
	.balign 8
.globl	_$RETRO$_Ld35
_$RETRO$_Ld35:
# value: 0d+1.7720271720000000E+001
	.byte	56,162,57,186,99,184,49,64

.section .rodata.n__$RETRO$_Ld36,"d"
	.balign 8
.globl	_$RETRO$_Ld36
_$RETRO$_Ld36:
# value: 0d-1.3809038175000000E+001
	.byte	89,174,109,64,58,158,43,192

.section .rodata.n__$RETRO$_Ld37,"d"
	.balign 8
.globl	_$RETRO$_Ld37
_$RETRO$_Ld37:
# value: 0d+5.7509166298999999E+000
	.byte	171,197,253,73,240,0,23,64

.section .data.n_tc_$retro$_$audiocallback$pointer$pbyte$longint_$$_aa,"d"
	.balign 4
TC_$RETRO$_$AUDIOCALLBACK$POINTER$PBYTE$LONGINT_$$_AA:
	.long	0

.section .rodata.n__$RETRO$_Ld38,"d"
	.balign 8
.globl	_$RETRO$_Ld38
_$RETRO$_Ld38:
# value: 0d+1.6384000000000000E+004
	.byte	0,0,0,0,0,0,208,64

.section .data.n_tc_$retro$_$reverb1$tsample$$tsample_$$_sart,"d"
	.balign 4
TC_$RETRO$_$REVERB1$TSAMPLE$$TSAMPLE_$$_SART:
	.long	1
# End asmlist al_typedconsts
# Begin asmlist al_rtti

.section .data.n_RTTI_$RETRO_$$_TRAM,"d"
	.balign 8
.globl	RTTI_$RETRO_$$_TRAM
RTTI_$RETRO_$$_TRAM:
	.byte	12
	.ascii	"\004tram"
	.quad	268435456,67108864
	.quad	RTTI_$SYSTEM_$$_LONGINT
	.byte	1
	.quad	RTTI_$SYSTEM_$$_LONGINT

.section .data.n_RTTI_$RETRO_$$_TRAMW,"d"
	.balign 8
.globl	RTTI_$RETRO_$$_TRAMW
RTTI_$RETRO_$$_TRAMW:
	.byte	12
	.ascii	"\005tramw"
	.quad	268435456,134217728
	.quad	RTTI_$SYSTEM_$$_WORD
	.byte	1
	.quad	RTTI_$SYSTEM_$$_LONGINT

.section .data.n_RTTI_$RETRO_$$_TRAMB,"d"
	.balign 8
.globl	RTTI_$RETRO_$$_TRAMB
RTTI_$RETRO_$$_TRAMB:
	.byte	12
	.ascii	"\005tramb"
	.quad	268435456,268435456
	.quad	RTTI_$SYSTEM_$$_BYTE
	.byte	1
	.quad	RTTI_$SYSTEM_$$_LONGINT

.section .data.n_RTTI_$RETRO_$$_TSAMPLE,"d"
	.balign 8
.globl	RTTI_$RETRO_$$_TSAMPLE
RTTI_$RETRO_$$_TSAMPLE:
	.byte	12
	.ascii	"\007tsample"
	.quad	4,2
	.quad	RTTI_$SYSTEM_$$_SMALLINT
	.byte	1
	.quad	RTTI_$SYSTEM_$$_SHORTINT

.section .data.n_INIT_$RETRO_$$_TRETRO,"d"
	.balign 8
.globl	INIT_$RETRO_$$_TRETRO
INIT_$RETRO_$$_TRETRO:
	.byte	15,6
	.ascii	"TRetro"
	.long	8,0

.section .data.n_RTTI_$RETRO_$$_TRETRO,"d"
	.balign 8
.globl	RTTI_$RETRO_$$_TRETRO
RTTI_$RETRO_$$_TRETRO:
	.byte	15,6
	.ascii	"TRetro"
	.quad	VMT_$RETRO_$$_TRETRO
	.quad	RTTI_$CLASSES_$$_TTHREAD
	.short	0
	.byte	5
	.ascii	"retro"
	.short	0

.section .data.n_RTTI_$RETRO_$$_TFILTERTABLE,"d"
	.balign 8
.globl	RTTI_$RETRO_$$_TFILTERTABLE
RTTI_$RETRO_$$_TFILTERTABLE:
	.byte	12
	.ascii	"\014TFiltertable"
	.quad	112,14
	.quad	RTTI_$SYSTEM_$$_DOUBLE
	.byte	1
	.quad	RTTI_$SYSTEM_$$_SHORTINT
# End asmlist al_rtti
# Begin asmlist al_dwarf_frame

.section .debug_frame
.Lc143:
	.long	.Lc145-.Lc144
.Lc144:
	.long	-1
	.byte	1
	.byte	0
	.uleb128	1
	.sleb128	-4
	.byte	16
	.byte	12
	.uleb128	7
	.uleb128	8
	.byte	5
	.uleb128	16
	.uleb128	2
	.balign 4,0
.Lc145:
	.long	.Lc147-.Lc146
.Lc146:
	.secrel32	.Lc143
	.quad	.Lc1
	.quad	.Lc2-.Lc1
	.byte	4
	.long	.Lc3-.Lc1
	.byte	14
	.uleb128	16
	.byte	4
	.long	.Lc4-.Lc3
	.byte	5
	.uleb128	6
	.uleb128	4
	.byte	4
	.long	.Lc5-.Lc4
	.byte	13
	.uleb128	6
	.balign 4,0
.Lc147:
	.long	.Lc149-.Lc148
.Lc148:
	.secrel32	.Lc143
	.quad	.Lc6
	.quad	.Lc7-.Lc6
	.byte	4
	.long	.Lc8-.Lc6
	.byte	14
	.uleb128	56
	.balign 4,0
.Lc149:
	.long	.Lc151-.Lc150
.Lc150:
	.secrel32	.Lc143
	.quad	.Lc9
	.quad	.Lc10-.Lc9
	.byte	4
	.long	.Lc11-.Lc9
	.byte	14
	.uleb128	72
	.balign 4,0
.Lc151:
	.long	.Lc153-.Lc152
.Lc152:
	.secrel32	.Lc143
	.quad	.Lc12
	.quad	.Lc13-.Lc12
	.byte	4
	.long	.Lc14-.Lc12
	.byte	14
	.uleb128	48
	.balign 4,0
.Lc153:
	.long	.Lc155-.Lc154
.Lc154:
	.secrel32	.Lc143
	.quad	.Lc15
	.quad	.Lc16-.Lc15
	.balign 4,0
.Lc155:
	.long	.Lc157-.Lc156
.Lc156:
	.secrel32	.Lc143
	.quad	.Lc17
	.quad	.Lc18-.Lc17
	.balign 4,0
.Lc157:
	.long	.Lc159-.Lc158
.Lc158:
	.secrel32	.Lc143
	.quad	.Lc19
	.quad	.Lc20-.Lc19
	.balign 4,0
.Lc159:
	.long	.Lc161-.Lc160
.Lc160:
	.secrel32	.Lc143
	.quad	.Lc21
	.quad	.Lc22-.Lc21
	.balign 4,0
.Lc161:
	.long	.Lc163-.Lc162
.Lc162:
	.secrel32	.Lc143
	.quad	.Lc23
	.quad	.Lc24-.Lc23
	.balign 4,0
.Lc163:
	.long	.Lc165-.Lc164
.Lc164:
	.secrel32	.Lc143
	.quad	.Lc25
	.quad	.Lc26-.Lc25
	.balign 4,0
.Lc165:
	.long	.Lc167-.Lc166
.Lc166:
	.secrel32	.Lc143
	.quad	.Lc27
	.quad	.Lc28-.Lc27
	.balign 4,0
.Lc167:
	.long	.Lc169-.Lc168
.Lc168:
	.secrel32	.Lc143
	.quad	.Lc29
	.quad	.Lc30-.Lc29
	.balign 4,0
.Lc169:
	.long	.Lc171-.Lc170
.Lc170:
	.secrel32	.Lc143
	.quad	.Lc31
	.quad	.Lc32-.Lc31
	.byte	4
	.long	.Lc33-.Lc31
	.byte	14
	.uleb128	64
	.balign 4,0
.Lc171:
	.long	.Lc173-.Lc172
.Lc172:
	.secrel32	.Lc143
	.quad	.Lc34
	.quad	.Lc35-.Lc34
	.balign 4,0
.Lc173:
	.long	.Lc175-.Lc174
.Lc174:
	.secrel32	.Lc143
	.quad	.Lc36
	.quad	.Lc37-.Lc36
	.balign 4,0
.Lc175:
	.long	.Lc177-.Lc176
.Lc176:
	.secrel32	.Lc143
	.quad	.Lc38
	.quad	.Lc39-.Lc38
	.byte	4
	.long	.Lc40-.Lc38
	.byte	14
	.uleb128	96
	.balign 4,0
.Lc177:
	.long	.Lc179-.Lc178
.Lc178:
	.secrel32	.Lc143
	.quad	.Lc41
	.quad	.Lc42-.Lc41
	.byte	4
	.long	.Lc43-.Lc41
	.byte	14
	.uleb128	16
	.byte	4
	.long	.Lc44-.Lc43
	.byte	5
	.uleb128	6
	.uleb128	4
	.byte	4
	.long	.Lc45-.Lc44
	.byte	13
	.uleb128	6
	.balign 4,0
.Lc179:
	.long	.Lc181-.Lc180
.Lc180:
	.secrel32	.Lc143
	.quad	.Lc46
	.quad	.Lc47-.Lc46
	.byte	4
	.long	.Lc48-.Lc46
	.byte	14
	.uleb128	48
	.balign 4,0
.Lc181:
	.long	.Lc183-.Lc182
.Lc182:
	.secrel32	.Lc143
	.quad	.Lc49
	.quad	.Lc50-.Lc49
	.byte	4
	.long	.Lc51-.Lc49
	.byte	14
	.uleb128	48
	.balign 4,0
.Lc183:
	.long	.Lc185-.Lc184
.Lc184:
	.secrel32	.Lc143
	.quad	.Lc52
	.quad	.Lc53-.Lc52
	.byte	4
	.long	.Lc54-.Lc52
	.byte	14
	.uleb128	144
	.balign 4,0
.Lc185:
	.long	.Lc187-.Lc186
.Lc186:
	.secrel32	.Lc143
	.quad	.Lc55
	.quad	.Lc56-.Lc55
	.byte	4
	.long	.Lc57-.Lc55
	.byte	14
	.uleb128	48
	.balign 4,0
.Lc187:
	.long	.Lc189-.Lc188
.Lc188:
	.secrel32	.Lc143
	.quad	.Lc58
	.quad	.Lc59-.Lc58
	.balign 4,0
.Lc189:
	.long	.Lc191-.Lc190
.Lc190:
	.secrel32	.Lc143
	.quad	.Lc60
	.quad	.Lc61-.Lc60
	.balign 4,0
.Lc191:
	.long	.Lc193-.Lc192
.Lc192:
	.secrel32	.Lc143
	.quad	.Lc62
	.quad	.Lc63-.Lc62
	.balign 4,0
.Lc193:
	.long	.Lc195-.Lc194
.Lc194:
	.secrel32	.Lc143
	.quad	.Lc64
	.quad	.Lc65-.Lc64
	.byte	4
	.long	.Lc66-.Lc64
	.byte	14
	.uleb128	16
	.byte	4
	.long	.Lc67-.Lc66
	.byte	5
	.uleb128	6
	.uleb128	4
	.byte	4
	.long	.Lc68-.Lc67
	.byte	13
	.uleb128	6
	.balign 4,0
.Lc195:
	.long	.Lc197-.Lc196
.Lc196:
	.secrel32	.Lc143
	.quad	.Lc69
	.quad	.Lc70-.Lc69
	.byte	4
	.long	.Lc71-.Lc69
	.byte	14
	.uleb128	16
	.byte	4
	.long	.Lc72-.Lc71
	.byte	5
	.uleb128	6
	.uleb128	4
	.byte	4
	.long	.Lc73-.Lc72
	.byte	13
	.uleb128	6
	.balign 4,0
.Lc197:
	.long	.Lc199-.Lc198
.Lc198:
	.secrel32	.Lc143
	.quad	.Lc74
	.quad	.Lc75-.Lc74
	.byte	4
	.long	.Lc76-.Lc74
	.byte	14
	.uleb128	40
	.balign 4,0
.Lc199:
	.long	.Lc201-.Lc200
.Lc200:
	.secrel32	.Lc143
	.quad	.Lc77
	.quad	.Lc78-.Lc77
	.byte	4
	.long	.Lc79-.Lc77
	.byte	14
	.uleb128	16
	.byte	4
	.long	.Lc80-.Lc79
	.byte	5
	.uleb128	6
	.uleb128	4
	.byte	4
	.long	.Lc81-.Lc80
	.byte	13
	.uleb128	6
	.balign 4,0
.Lc201:
	.long	.Lc203-.Lc202
.Lc202:
	.secrel32	.Lc143
	.quad	.Lc82
	.quad	.Lc83-.Lc82
	.byte	4
	.long	.Lc84-.Lc82
	.byte	14
	.uleb128	16
	.byte	4
	.long	.Lc85-.Lc84
	.byte	5
	.uleb128	6
	.uleb128	4
	.byte	4
	.long	.Lc86-.Lc85
	.byte	13
	.uleb128	6
	.balign 4,0
.Lc203:
	.long	.Lc205-.Lc204
.Lc204:
	.secrel32	.Lc143
	.quad	.Lc87
	.quad	.Lc88-.Lc87
	.byte	4
	.long	.Lc89-.Lc87
	.byte	14
	.uleb128	16
	.byte	4
	.long	.Lc90-.Lc89
	.byte	5
	.uleb128	6
	.uleb128	4
	.byte	4
	.long	.Lc91-.Lc90
	.byte	13
	.uleb128	6
	.balign 4,0
.Lc205:
	.long	.Lc207-.Lc206
.Lc206:
	.secrel32	.Lc143
	.quad	.Lc92
	.quad	.Lc93-.Lc92
	.byte	4
	.long	.Lc94-.Lc92
	.byte	14
	.uleb128	16
	.byte	4
	.long	.Lc95-.Lc94
	.byte	5
	.uleb128	6
	.uleb128	4
	.byte	4
	.long	.Lc96-.Lc95
	.byte	13
	.uleb128	6
	.balign 4,0
.Lc207:
	.long	.Lc209-.Lc208
.Lc208:
	.secrel32	.Lc143
	.quad	.Lc97
	.quad	.Lc98-.Lc97
	.byte	4
	.long	.Lc99-.Lc97
	.byte	14
	.uleb128	16
	.byte	4
	.long	.Lc100-.Lc99
	.byte	5
	.uleb128	6
	.uleb128	4
	.byte	4
	.long	.Lc101-.Lc100
	.byte	13
	.uleb128	6
	.balign 4,0
.Lc209:
	.long	.Lc211-.Lc210
.Lc210:
	.secrel32	.Lc143
	.quad	.Lc102
	.quad	.Lc103-.Lc102
	.balign 4,0
.Lc211:
	.long	.Lc213-.Lc212
.Lc212:
	.secrel32	.Lc143
	.quad	.Lc104
	.quad	.Lc105-.Lc104
	.balign 4,0
.Lc213:
	.long	.Lc215-.Lc214
.Lc214:
	.secrel32	.Lc143
	.quad	.Lc106
	.quad	.Lc107-.Lc106
	.balign 4,0
.Lc215:
	.long	.Lc217-.Lc216
.Lc216:
	.secrel32	.Lc143
	.quad	.Lc108
	.quad	.Lc109-.Lc108
	.balign 4,0
.Lc217:
	.long	.Lc219-.Lc218
.Lc218:
	.secrel32	.Lc143
	.quad	.Lc110
	.quad	.Lc111-.Lc110
	.byte	4
	.long	.Lc112-.Lc110
	.byte	14
	.uleb128	96
	.balign 4,0
.Lc219:
	.long	.Lc221-.Lc220
.Lc220:
	.secrel32	.Lc143
	.quad	.Lc113
	.quad	.Lc114-.Lc113
	.balign 4,0
.Lc221:
	.long	.Lc223-.Lc222
.Lc222:
	.secrel32	.Lc143
	.quad	.Lc115
	.quad	.Lc116-.Lc115
	.byte	4
	.long	.Lc117-.Lc115
	.byte	14
	.uleb128	40
	.balign 4,0
.Lc223:
	.long	.Lc225-.Lc224
.Lc224:
	.secrel32	.Lc143
	.quad	.Lc118
	.quad	.Lc119-.Lc118
	.balign 4,0
.Lc225:
	.long	.Lc227-.Lc226
.Lc226:
	.secrel32	.Lc143
	.quad	.Lc120
	.quad	.Lc121-.Lc120
	.byte	4
	.long	.Lc122-.Lc120
	.byte	14
	.uleb128	40
	.balign 4,0
.Lc227:
	.long	.Lc229-.Lc228
.Lc228:
	.secrel32	.Lc143
	.quad	.Lc123
	.quad	.Lc124-.Lc123
	.balign 4,0
.Lc229:
	.long	.Lc231-.Lc230
.Lc230:
	.secrel32	.Lc143
	.quad	.Lc125
	.quad	.Lc126-.Lc125
	.byte	4
	.long	.Lc127-.Lc125
	.byte	14
	.uleb128	40
	.balign 4,0
.Lc231:
	.long	.Lc233-.Lc232
.Lc232:
	.secrel32	.Lc143
	.quad	.Lc128
	.quad	.Lc129-.Lc128
	.byte	4
	.long	.Lc130-.Lc128
	.byte	14
	.uleb128	88
	.balign 4,0
.Lc233:
	.long	.Lc235-.Lc234
.Lc234:
	.secrel32	.Lc143
	.quad	.Lc131
	.quad	.Lc132-.Lc131
	.byte	4
	.long	.Lc133-.Lc131
	.byte	14
	.uleb128	32
	.balign 4,0
.Lc235:
	.long	.Lc237-.Lc236
.Lc236:
	.secrel32	.Lc143
	.quad	.Lc134
	.quad	.Lc135-.Lc134
	.byte	4
	.long	.Lc136-.Lc134
	.byte	14
	.uleb128	32
	.balign 4,0
.Lc237:
	.long	.Lc239-.Lc238
.Lc238:
	.secrel32	.Lc143
	.quad	.Lc137
	.quad	.Lc138-.Lc137
	.byte	4
	.long	.Lc139-.Lc137
	.byte	14
	.uleb128	72
	.balign 4,0
.Lc239:
	.long	.Lc241-.Lc240
.Lc240:
	.secrel32	.Lc143
	.quad	.Lc140
	.quad	.Lc141-.Lc140
	.byte	4
	.long	.Lc142-.Lc140
	.byte	14
	.uleb128	272
	.balign 4,0
.Lc241:
# End asmlist al_dwarf_frame
# Begin asmlist al_dwarf_info

.section .text.z_DEBUGEND_$RETRO,"x"
.globl	DEBUGEND_$RETRO
DEBUGEND_$RETRO:
# End asmlist al_end

