	.file "sdl2.pas"
# Begin asmlist al_begin

.section .text.b_DEBUGSTART_$SDL2,"x"
.globl	DEBUGSTART_$SDL2
DEBUGSTART_$SDL2:
# End asmlist al_begin
# Begin asmlist al_procedures

.section .text.n_sdl2_$$_sdl_iconv_utf8_locale$pchar$$pchar,"x"
	.balign 16,0x90
.globl	SDL2_$$_SDL_ICONV_UTF8_LOCALE$PCHAR$$PCHAR
SDL2_$$_SDL_ICONV_UTF8_LOCALE$PCHAR$$PCHAR:
.Lc1:
.seh_proc SDL2_$$_SDL_ICONV_UTF8_LOCALE$PCHAR$$PCHAR
.Ll1:
# [sdl2.pas]
# [2688] begin
	pushq	%rbp
.seh_pushreg %rbp
.Lc3:
.Lc4:
	movq	%rsp,%rbp
.Lc5:
	leaq	-48(%rsp),%rsp
.seh_stackalloc 48
.seh_endprologue
# Var S located at rbp-8, size=OS_64
# Var $result located at rbp-16, size=OS_64
	movq	%rcx,-8(%rbp)
.Ll2:
# [2689] exit(SDL_iconv_string('', 'UTF-8', S, SDL_strlen(S) + 1));
	movq	-8(%rbp),%rax
	movq	%rax,%rcx
	call	_$dll$sdl2$SDL_strlen
	leaq	1(%rax),%r9
	movq	-8(%rbp),%r8
	leaq	_$SDL2$_Ld1(%rip),%rdx
	leaq	_$SDL2$_Ld2(%rip),%rcx
	call	_$dll$sdl2$SDL_iconv_string
	movq	%rax,-16(%rbp)
.Ll3:
# [2690] end;
	movq	-16(%rbp),%rax
	nop
	leaq	(%rbp),%rsp
	popq	%rbp
	ret
.seh_endproc
.Lc2:
.Lt1:
.Ll4:

.section .text.n_sdl2_$$_sdl_iconv_utf8_ucs2$pchar$$pchar,"x"
	.balign 16,0x90
.globl	SDL2_$$_SDL_ICONV_UTF8_UCS2$PCHAR$$PCHAR
SDL2_$$_SDL_ICONV_UTF8_UCS2$PCHAR$$PCHAR:
.Lc6:
.seh_proc SDL2_$$_SDL_ICONV_UTF8_UCS2$PCHAR$$PCHAR
.Ll5:
# [2693] begin
	pushq	%rbp
.seh_pushreg %rbp
.Lc8:
.Lc9:
	movq	%rsp,%rbp
.Lc10:
	leaq	-48(%rsp),%rsp
.seh_stackalloc 48
.seh_endprologue
# Var S located at rbp-8, size=OS_64
# Var $result located at rbp-16, size=OS_64
	movq	%rcx,-8(%rbp)
.Ll6:
# [2694] exit(SDL_iconv_string('UCS-2-INTERNAL', 'UTF-8', S, SDL_strlen(S) + 1));
	movq	-8(%rbp),%rax
	movq	%rax,%rcx
	call	_$dll$sdl2$SDL_strlen
	leaq	1(%rax),%r9
	movq	-8(%rbp),%r8
	leaq	_$SDL2$_Ld1(%rip),%rdx
	leaq	_$SDL2$_Ld3(%rip),%rcx
	call	_$dll$sdl2$SDL_iconv_string
	movq	%rax,-16(%rbp)
.Ll7:
# [2695] end;
	movq	-16(%rbp),%rax
	nop
	leaq	(%rbp),%rsp
	popq	%rbp
	ret
.seh_endproc
.Lc7:
.Lt2:
.Ll8:

.section .text.n_sdl2_$$_sdl_iconv_utf8_ucs4$pchar$$pchar,"x"
	.balign 16,0x90
.globl	SDL2_$$_SDL_ICONV_UTF8_UCS4$PCHAR$$PCHAR
SDL2_$$_SDL_ICONV_UTF8_UCS4$PCHAR$$PCHAR:
.Lc11:
.seh_proc SDL2_$$_SDL_ICONV_UTF8_UCS4$PCHAR$$PCHAR
.Ll9:
# [2698] begin
	pushq	%rbp
.seh_pushreg %rbp
.Lc13:
.Lc14:
	movq	%rsp,%rbp
.Lc15:
	leaq	-48(%rsp),%rsp
.seh_stackalloc 48
.seh_endprologue
# Var S located at rbp-8, size=OS_64
# Var $result located at rbp-16, size=OS_64
	movq	%rcx,-8(%rbp)
.Ll10:
# [2699] exit(SDL_iconv_string('UCS-4-INTERNAL', 'UTF-8', S, SDL_strlen(S) + 1));
	movq	-8(%rbp),%rax
	movq	%rax,%rcx
	call	_$dll$sdl2$SDL_strlen
	leaq	1(%rax),%r9
	movq	-8(%rbp),%r8
	leaq	_$SDL2$_Ld1(%rip),%rdx
	leaq	_$SDL2$_Ld4(%rip),%rcx
	call	_$dll$sdl2$SDL_iconv_string
	movq	%rax,-16(%rbp)
.Ll11:
# [2700] end;
	movq	-16(%rbp),%rax
	nop
	leaq	(%rbp),%rsp
	popq	%rbp
	ret
.seh_endproc
.Lc12:
.Lt3:
.Ll12:

.section .text.n_sdl2_$$_sdl_mostsignificantbitindex32$longword$$longint,"x"
	.balign 16,0x90
.globl	SDL2_$$_SDL_MOSTSIGNIFICANTBITINDEX32$LONGWORD$$LONGINT
SDL2_$$_SDL_MOSTSIGNIFICANTBITINDEX32$LONGWORD$$LONGINT:
.Lc16:
.seh_proc SDL2_$$_SDL_MOSTSIGNIFICANTBITINDEX32$LONGWORD$$LONGINT
.Ll13:
# [2706] begin
	pushq	%rbp
.seh_pushreg %rbp
.Lc18:
.Lc19:
	movq	%rsp,%rbp
.Lc20:
	leaq	-16(%rsp),%rsp
.seh_stackalloc 16
.seh_endprologue
# Var x located at rbp-8, size=OS_32
# Var $result located at rbp-16, size=OS_S32
	movl	%ecx,-8(%rbp)
.Ll14:
# [2707] if x = 0 then
	cmpl	$0,-8(%rbp)
	jne	.Lj48
.Ll15:
# [2709] else
	movl	$-1,-16(%rbp)
.Ll16:
# [2708] exit(-1)
	jmp	.Lj45
.Lj48:
.Ll17:
# [2710] exit(BsrDword(x));
	movl	-8(%rbp),%eax
	bsrl	%eax,%eax
	jne	.Lj54
	movl	$255,%eax
.Lj54:
	movl	%eax,-16(%rbp)
.Lj45:
.Ll18:
# [2711] end;
	movl	-16(%rbp),%eax
	leaq	(%rbp),%rsp
	popq	%rbp
	ret
.seh_endproc
.Lc17:
.Lt4:
.Ll19:

.section .text.n_sdl2_$$_sdl_version$psdl_version,"x"
	.balign 16,0x90
.globl	SDL2_$$_SDL_VERSION$PSDL_VERSION
SDL2_$$_SDL_VERSION$PSDL_VERSION:
.Lc21:
.seh_proc SDL2_$$_SDL_VERSION$PSDL_VERSION
.Ll20:
# [2717] begin
	pushq	%rbp
.seh_pushreg %rbp
.Lc23:
.Lc24:
	movq	%rsp,%rbp
.Lc25:
	leaq	-16(%rsp),%rsp
.seh_stackalloc 16
.seh_endprologue
# Var x located at rbp-8, size=OS_64
	movq	%rcx,-8(%rbp)
.Ll21:
# [2718] x^.major := SDL_MAJOR_VERSION;
	movq	-8(%rbp),%rax
	movb	$2,(%rax)
.Ll22:
# [2719] x^.minor := SDL_MINOR_VERSION;
	movq	-8(%rbp),%rax
	movb	$0,1(%rax)
.Ll23:
# [2720] x^.patch := SDL_PATCHLEVEL;
	movq	-8(%rbp),%rax
	movb	$3,2(%rax)
.Ll24:
# [2721] end;
	leaq	(%rbp),%rsp
	popq	%rbp
	ret
.seh_endproc
.Lc22:
.Lt5:
.Ll25:

.section .text.n_sdl2_$$_sdl_versionnum$longint$longint$longint$$longint,"x"
	.balign 16,0x90
.globl	SDL2_$$_SDL_VERSIONNUM$LONGINT$LONGINT$LONGINT$$LONGINT
SDL2_$$_SDL_VERSIONNUM$LONGINT$LONGINT$LONGINT$$LONGINT:
.Lc26:
.seh_proc SDL2_$$_SDL_VERSIONNUM$LONGINT$LONGINT$LONGINT$$LONGINT
.Ll26:
# [2724] begin
	pushq	%rbp
.seh_pushreg %rbp
.Lc28:
.Lc29:
	movq	%rsp,%rbp
.Lc30:
	leaq	-32(%rsp),%rsp
.seh_stackalloc 32
.seh_endprologue
# Var X located at rbp-8, size=OS_S32
# Var Y located at rbp-16, size=OS_S32
# Var Z located at rbp-24, size=OS_S32
# Var $result located at rbp-32, size=OS_S32
	movl	%ecx,-8(%rbp)
	movl	%edx,-16(%rbp)
	movl	%r8d,-24(%rbp)
.Ll27:
# [2725] exit(X * 1000 + Y * 100 + Z);
	movl	-8(%rbp),%eax
	imull	$1000,%eax,%edx
	movl	-16(%rbp),%eax
	imull	$100,%eax,%eax
	leal	(%edx,%eax),%edx
	movl	-24(%rbp),%eax
	leal	(%edx,%eax),%eax
	movl	%eax,-32(%rbp)
.Ll28:
# [2726] end;
	movl	-32(%rbp),%eax
	leaq	(%rbp),%rsp
	popq	%rbp
	ret
.seh_endproc
.Lc27:
.Lt6:
.Ll29:

.section .text.n_sdl2_$$_sdl_compiledversion$$longint,"x"
	.balign 16,0x90
.globl	SDL2_$$_SDL_COMPILEDVERSION$$LONGINT
SDL2_$$_SDL_COMPILEDVERSION$$LONGINT:
.Lc31:
.seh_proc SDL2_$$_SDL_COMPILEDVERSION$$LONGINT
.Ll30:
# [2729] begin
	pushq	%rbp
.seh_pushreg %rbp
.Lc33:
.Lc34:
	movq	%rsp,%rbp
.Lc35:
	leaq	-16(%rsp),%rsp
.seh_stackalloc 16
.seh_endprologue
# Var $result located at rbp-8, size=OS_S32
.Ll31:
# [2730] exit(SDL_VERSIONNUM(SDL_MAJOR_VERSION, SDL_MINOR_VERSION, SDL_PATCHLEVEL));
	movl	$2003,%eax
	movl	%eax,-8(%rbp)
.Ll32:
# [2731] end;
	movl	-8(%rbp),%eax
	leaq	(%rbp),%rsp
	popq	%rbp
	ret
.seh_endproc
.Lc32:
.Lt7:
.Ll33:

.section .text.n_sdl2_$$_sdl_version_atleast$longint$longint$longint$$boolean,"x"
	.balign 16,0x90
.globl	SDL2_$$_SDL_VERSION_ATLEAST$LONGINT$LONGINT$LONGINT$$BOOLEAN
SDL2_$$_SDL_VERSION_ATLEAST$LONGINT$LONGINT$LONGINT$$BOOLEAN:
.Lc36:
.seh_proc SDL2_$$_SDL_VERSION_ATLEAST$LONGINT$LONGINT$LONGINT$$BOOLEAN
.Ll34:
# [2734] begin
	pushq	%rbp
.seh_pushreg %rbp
.Lc38:
.Lc39:
	movq	%rsp,%rbp
.Lc40:
	leaq	-32(%rsp),%rsp
.seh_stackalloc 32
.seh_endprologue
# Var X located at rbp-8, size=OS_S32
# Var Y located at rbp-16, size=OS_S32
# Var Z located at rbp-24, size=OS_S32
# Var $result located at rbp-32, size=OS_8
	movl	%ecx,-8(%rbp)
	movl	%edx,-16(%rbp)
	movl	%r8d,-24(%rbp)
.Ll35:
# [2735] exit(SDL_COMPILEDVERSION >= SDL_VERSIONNUM(X, Y, Z));
	movl	-8(%rbp),%eax
	imull	$1000,%eax,%edx
	movl	-16(%rbp),%eax
	imull	$100,%eax,%eax
	leal	(%edx,%eax),%edx
	movl	-24(%rbp),%eax
	leal	(%edx,%eax),%eax
	movl	$2003,%edx
	cmpl	%edx,%eax
	setleb	-32(%rbp)
.Ll36:
# [2736] end;
	movzbl	-32(%rbp),%eax
	leaq	(%rbp),%rsp
	popq	%rbp
	ret
.seh_endproc
.Lc37:
.Lt8:
.Ll37:

.section .text.n_sdl2_$$_sdl_outofmemory$$longint,"x"
	.balign 16,0x90
.globl	SDL2_$$_SDL_OUTOFMEMORY$$LONGINT
SDL2_$$_SDL_OUTOFMEMORY$$LONGINT:
.Lc41:
.seh_proc SDL2_$$_SDL_OUTOFMEMORY$$LONGINT
.Ll38:
# [2742] begin
	pushq	%rbp
.seh_pushreg %rbp
.Lc43:
.Lc44:
	movq	%rsp,%rbp
.Lc45:
	leaq	-48(%rsp),%rsp
.seh_stackalloc 48
.seh_endprologue
# Var $result located at rbp-8, size=OS_S32
.Ll39:
# [2743] exit(SDL_Error(SDL_ENOMEM));
	movl	$0,%eax
	movl	%eax,%ecx
	call	_$dll$sdl2$SDL_Error
	movl	%eax,-8(%rbp)
.Ll40:
# [2744] end;
	movl	-8(%rbp),%eax
	nop
	leaq	(%rbp),%rsp
	popq	%rbp
	ret
.seh_endproc
.Lc42:
.Lt9:
.Ll41:

.section .text.n_sdl2_$$_sdl_unsupported$$longint,"x"
	.balign 16,0x90
.globl	SDL2_$$_SDL_UNSUPPORTED$$LONGINT
SDL2_$$_SDL_UNSUPPORTED$$LONGINT:
.Lc46:
.seh_proc SDL2_$$_SDL_UNSUPPORTED$$LONGINT
.Ll42:
# [2747] begin
	pushq	%rbp
.seh_pushreg %rbp
.Lc48:
.Lc49:
	movq	%rsp,%rbp
.Lc50:
	leaq	-48(%rsp),%rsp
.seh_stackalloc 48
.seh_endprologue
# Var $result located at rbp-8, size=OS_S32
.Ll43:
# [2748] exit(SDL_Error(SDL_UNSUPPORTED_));
	movl	$4,%eax
	movl	%eax,%ecx
	call	_$dll$sdl2$SDL_Error
	movl	%eax,-8(%rbp)
.Ll44:
# [2749] end;
	movl	-8(%rbp),%eax
	nop
	leaq	(%rbp),%rsp
	popq	%rbp
	ret
.seh_endproc
.Lc47:
.Lt10:
.Ll45:

.section .text.n_sdl2_$$_sdl_invalidparamerror$pchar$$longint,"x"
	.balign 16,0x90
.globl	SDL2_$$_SDL_INVALIDPARAMERROR$PCHAR$$LONGINT
SDL2_$$_SDL_INVALIDPARAMERROR$PCHAR$$LONGINT:
.Lc51:
.seh_proc SDL2_$$_SDL_INVALIDPARAMERROR$PCHAR$$LONGINT
.Ll46:
# [2752] begin
	pushq	%rbp
.seh_pushreg %rbp
.Lc53:
.Lc54:
	movq	%rsp,%rbp
.Lc55:
	leaq	-48(%rsp),%rsp
.seh_stackalloc 48
.seh_endprologue
# Var param located at rbp-8, size=OS_64
# Var $result located at rbp-16, size=OS_S32
	movq	%rcx,-8(%rbp)
.Ll47:
# [2753] exit(SDL_SetError('Parameter ''%s'' is invalid', (param)));
	movq	-8(%rbp),%rax
	leaq	_$SDL2$_Ld5(%rip),%rcx
	movq	%rax,%rdx
	call	_$dll$sdl2$SDL_SetError
	movl	%eax,-16(%rbp)
.Ll48:
# [2754] end;
	movl	-16(%rbp),%eax
	nop
	leaq	(%rbp),%rsp
	popq	%rbp
	ret
.seh_endproc
.Lc52:
.Lt11:
.Ll49:

.section .text.n_sdl2_$$_sdl_ticks_passed$longword$longword$$longbool,"x"
	.balign 16,0x90
.globl	SDL2_$$_SDL_TICKS_PASSED$LONGWORD$LONGWORD$$LONGBOOL
SDL2_$$_SDL_TICKS_PASSED$LONGWORD$LONGWORD$$LONGBOOL:
.Lc56:
.seh_proc SDL2_$$_SDL_TICKS_PASSED$LONGWORD$LONGWORD$$LONGBOOL
.Ll50:
# [2760] begin
	pushq	%rbp
.seh_pushreg %rbp
.Lc58:
.Lc59:
	movq	%rsp,%rbp
.Lc60:
	leaq	-32(%rsp),%rsp
.seh_stackalloc 32
.seh_endprologue
# Var a located at rbp-8, size=OS_32
# Var b located at rbp-16, size=OS_32
# Var $result located at rbp-24, size=OS_S32
	movl	%ecx,-8(%rbp)
	movl	%edx,-16(%rbp)
.Ll51:
# [2761] exit((b - a) <= 0);
	movl	-16(%rbp),%eax
	movl	-8(%rbp),%edx
	subq	%rdx,%rax
	cmpq	$0,%rax
	setleb	%al
# PeepHole Optimization,var9
	andl	$255,%eax
	negl	%eax
	movl	%eax,-24(%rbp)
.Ll52:
# [2762] end;
	movl	-24(%rbp),%eax
	leaq	(%rbp),%rsp
	popq	%rbp
	ret
.seh_endproc
.Lc57:
.Lt12:
.Ll53:

.section .text.n_sdl2_$$_sdl_mutexp$pointer$$longint,"x"
	.balign 16,0x90
.globl	SDL2_$$_SDL_MUTEXP$POINTER$$LONGINT
SDL2_$$_SDL_MUTEXP$POINTER$$LONGINT:
.Lc61:
.seh_proc SDL2_$$_SDL_MUTEXP$POINTER$$LONGINT
.Ll54:
# [2768] begin
	pushq	%rbp
.seh_pushreg %rbp
.Lc63:
.Lc64:
	movq	%rsp,%rbp
.Lc65:
	leaq	-48(%rsp),%rsp
.seh_stackalloc 48
.seh_endprologue
# Var mutex located at rbp-8, size=OS_64
# Var $result located at rbp-16, size=OS_S32
	movq	%rcx,-8(%rbp)
.Ll55:
# [2769] exit(SDL_LockMutex(mutex));
	movq	-8(%rbp),%rax
	movq	%rax,%rcx
	call	_$dll$sdl2$SDL_LockMutex
	movl	%eax,-16(%rbp)
.Ll56:
# [2770] end;
	movl	-16(%rbp),%eax
	nop
	leaq	(%rbp),%rsp
	popq	%rbp
	ret
.seh_endproc
.Lc62:
.Lt13:
.Ll57:

.section .text.n_sdl2_$$_sdl_mutexv$pointer$$longint,"x"
	.balign 16,0x90
.globl	SDL2_$$_SDL_MUTEXV$POINTER$$LONGINT
SDL2_$$_SDL_MUTEXV$POINTER$$LONGINT:
.Lc66:
.seh_proc SDL2_$$_SDL_MUTEXV$POINTER$$LONGINT
.Ll58:
# [2773] begin
	pushq	%rbp
.seh_pushreg %rbp
.Lc68:
.Lc69:
	movq	%rsp,%rbp
.Lc70:
	leaq	-48(%rsp),%rsp
.seh_stackalloc 48
.seh_endprologue
# Var mutex located at rbp-8, size=OS_64
# Var $result located at rbp-16, size=OS_S32
	movq	%rcx,-8(%rbp)
.Ll59:
# [2774] exit(SDL_UnlockMutex(mutex));
	movq	-8(%rbp),%rax
	movq	%rax,%rcx
	call	_$dll$sdl2$SDL_UnlockMutex
	movl	%eax,-16(%rbp)
.Ll60:
# [2775] end;
	movl	-16(%rbp),%eax
	nop
	leaq	(%rbp),%rsp
	popq	%rbp
	ret
.seh_endproc
.Lc67:
.Lt14:
.Ll61:

.section .text.n_sdl2_$$_sdl_createthread$tsdl_threadfunction$pchar$pointer$$pointer,"x"
	.balign 16,0x90
.globl	SDL2_$$_SDL_CREATETHREAD$TSDL_THREADFUNCTION$PCHAR$POINTER$$POINTER
SDL2_$$_SDL_CREATETHREAD$TSDL_THREADFUNCTION$PCHAR$POINTER$$POINTER:
.Lc71:
.seh_proc SDL2_$$_SDL_CREATETHREAD$TSDL_THREADFUNCTION$PCHAR$POINTER$$POINTER
.Ll62:
# [2782] begin
	pushq	%rbp
.seh_pushreg %rbp
.Lc73:
.Lc74:
	movq	%rsp,%rbp
.Lc75:
	leaq	-80(%rsp),%rsp
.seh_stackalloc 80
.seh_endprologue
# Var fn located at rbp-8, size=OS_64
# Var name located at rbp-16, size=OS_64
# Var data located at rbp-24, size=OS_64
# Var $result located at rbp-32, size=OS_64
	movq	%rcx,-8(%rbp)
	movq	%rdx,-16(%rbp)
	movq	%r8,-24(%rbp)
.Ll63:
# [2783] exit(SDL_CreateThread(fn, name, data, NIL, NIL));
	movq	$0,32(%rsp)
	movq	-24(%rbp),%rax
	movq	-16(%rbp),%rdx
	movq	-8(%rbp),%rcx
	movq	$0,%r9
	movq	%rax,%r8
	call	_$dll$sdl2$SDL_CreateThread
	movq	%rax,-32(%rbp)
.Ll64:
# [2784] end;
	movq	-32(%rbp),%rax
	nop
	leaq	(%rbp),%rsp
	popq	%rbp
	ret
.seh_endproc
.Lc72:
.Lt15:
.Ll65:

.section .text.n_sdl2_$$_sdl_swap16$word$$word,"x"
	.balign 16,0x90
.globl	SDL2_$$_SDL_SWAP16$WORD$$WORD
SDL2_$$_SDL_SWAP16$WORD$$WORD:
.Lc76:
.seh_proc SDL2_$$_SDL_SWAP16$WORD$$WORD
.Ll66:
# [2791] begin
	pushq	%rbp
.seh_pushreg %rbp
.Lc78:
.Lc79:
	movq	%rsp,%rbp
.Lc80:
	leaq	-16(%rsp),%rsp
.seh_stackalloc 16
.seh_endprologue
# Var x located at rbp-8, size=OS_16
# Var $result located at rbp-16, size=OS_16
	movw	%cx,-8(%rbp)
.Ll67:
# [2792] exit(SwapEndian(x));
	movzwl	-8(%rbp),%eax
	shrl	$8,%eax
	movzwl	-8(%rbp),%edx
	shll	$8,%edx
	orl	%eax,%edx
	movw	%dx,-16(%rbp)
.Ll68:
# [2793] end;
	movzwl	-16(%rbp),%eax
	leaq	(%rbp),%rsp
	popq	%rbp
	ret
.seh_endproc
.Lc77:
.Lt16:
.Ll69:

.section .text.n_sdl2_$$_sdl_swap32$longword$$longword,"x"
	.balign 16,0x90
.globl	SDL2_$$_SDL_SWAP32$LONGWORD$$LONGWORD
SDL2_$$_SDL_SWAP32$LONGWORD$$LONGWORD:
.Lc81:
.seh_proc SDL2_$$_SDL_SWAP32$LONGWORD$$LONGWORD
.Ll70:
# [2796] begin
	pushq	%rbp
.seh_pushreg %rbp
.Lc83:
.Lc84:
	movq	%rsp,%rbp
.Lc85:
	leaq	-48(%rsp),%rsp
.seh_stackalloc 48
.seh_endprologue
# Var x located at rbp-8, size=OS_32
# Var $result located at rbp-16, size=OS_32
	movl	%ecx,-8(%rbp)
.Ll71:
# [2797] exit(SwapEndian(x));
	movl	-8(%rbp),%eax
	movl	%eax,%ecx
	call	SYSTEM_$$_SWAPENDIAN$LONGWORD$$LONGWORD
	movl	%eax,-16(%rbp)
.Ll72:
# [2798] end;
	movl	-16(%rbp),%eax
	nop
	leaq	(%rbp),%rsp
	popq	%rbp
	ret
.seh_endproc
.Lc82:
.Lt17:
.Ll73:

.section .text.n_sdl2_$$_sdl_swap64$qword$$qword,"x"
	.balign 16,0x90
.globl	SDL2_$$_SDL_SWAP64$QWORD$$QWORD
SDL2_$$_SDL_SWAP64$QWORD$$QWORD:
.Lc86:
.seh_proc SDL2_$$_SDL_SWAP64$QWORD$$QWORD
.Ll74:
# [2801] begin
	pushq	%rbp
.seh_pushreg %rbp
.Lc88:
.Lc89:
	movq	%rsp,%rbp
.Lc90:
	leaq	-48(%rsp),%rsp
.seh_stackalloc 48
.seh_endprologue
# Var x located at rbp-8, size=OS_64
# Var $result located at rbp-16, size=OS_64
	movq	%rcx,-8(%rbp)
.Ll75:
# [2802] exit(SwapEndian(x));
	movq	-8(%rbp),%rax
	movq	%rax,%rcx
	call	SYSTEM_$$_SWAPENDIAN$QWORD$$QWORD
	movq	%rax,-16(%rbp)
.Ll76:
# [2803] end;
	movq	-16(%rbp),%rax
	nop
	leaq	(%rbp),%rsp
	popq	%rbp
	ret
.seh_endproc
.Lc87:
.Lt18:
.Ll77:

.section .text.n_sdl2_$$_sdl_swapfloat$single$$single,"x"
	.balign 16,0x90
.globl	SDL2_$$_SDL_SWAPFLOAT$SINGLE$$SINGLE
SDL2_$$_SDL_SWAPFLOAT$SINGLE$$SINGLE:
.Lc91:
# Temps allocated between rbp-40 and rbp-24
.seh_proc SDL2_$$_SDL_SWAPFLOAT$SINGLE$$SINGLE
.Ll78:
# [2809] begin
	pushq	%rbp
.seh_pushreg %rbp
.Lc93:
.Lc94:
	movq	%rsp,%rbp
.Lc95:
	leaq	-80(%rsp),%rsp
.seh_stackalloc 80
.seh_endprologue
# Var x located at rbp-8, size=OS_F32
# Var $result located at rbp-16, size=OS_F32
# Var f located at rbp-24, size=OS_F32
	movss	%xmm0,-8(%rbp)
.Ll79:
# [2810] f := x;
	movl	-8(%rbp),%eax
	movl	%eax,-24(%rbp)
.Ll80:
# [2811] ui32 := SwapEndian(ui32);
	movl	-24(%rbp),%ecx
	call	SYSTEM_$$_SWAPENDIAN$LONGWORD$$LONGWORD
	movl	%eax,-24(%rbp)
.Ll81:
# [2812] exit(f);
	movl	-24(%rbp),%eax
	movl	%eax,-16(%rbp)
.Ll82:
# [2813] end;
	movss	-16(%rbp),%xmm0
	leaq	(%rbp),%rsp
	popq	%rbp
	ret
.seh_endproc
.Lc92:
.Lt19:
.Ll83:

.section .text.n_sdl2_$$_sdl_swaple16$word$$word,"x"
	.balign 16,0x90
.globl	SDL2_$$_SDL_SWAPLE16$WORD$$WORD
SDL2_$$_SDL_SWAPLE16$WORD$$WORD:
.Lc96:
.seh_proc SDL2_$$_SDL_SWAPLE16$WORD$$WORD
.Ll84:
# [2816] begin
	pushq	%rbp
.seh_pushreg %rbp
.Lc98:
.Lc99:
	movq	%rsp,%rbp
.Lc100:
	leaq	-16(%rsp),%rsp
.seh_stackalloc 16
.seh_endprologue
# Var x located at rbp-8, size=OS_16
# Var $result located at rbp-16, size=OS_16
	movw	%cx,-8(%rbp)
.Ll85:
# [2817] exit(LEtoN(x));
	movw	-8(%rbp),%ax
	movw	%ax,-16(%rbp)
.Ll86:
# [2818] end;
	movzwl	-16(%rbp),%eax
	leaq	(%rbp),%rsp
	popq	%rbp
	ret
.seh_endproc
.Lc97:
.Lt20:
.Ll87:

.section .text.n_sdl2_$$_sdl_swaple32$longword$$longword,"x"
	.balign 16,0x90
.globl	SDL2_$$_SDL_SWAPLE32$LONGWORD$$LONGWORD
SDL2_$$_SDL_SWAPLE32$LONGWORD$$LONGWORD:
.Lc101:
.seh_proc SDL2_$$_SDL_SWAPLE32$LONGWORD$$LONGWORD
.Ll88:
# [2821] begin
	pushq	%rbp
.seh_pushreg %rbp
.Lc103:
.Lc104:
	movq	%rsp,%rbp
.Lc105:
	leaq	-16(%rsp),%rsp
.seh_stackalloc 16
.seh_endprologue
# Var x located at rbp-8, size=OS_32
# Var $result located at rbp-16, size=OS_32
	movl	%ecx,-8(%rbp)
.Ll89:
# [2822] exit(LEtoN(x));
	movl	-8(%rbp),%eax
	movl	%eax,-16(%rbp)
.Ll90:
# [2823] end;
	movl	-16(%rbp),%eax
	leaq	(%rbp),%rsp
	popq	%rbp
	ret
.seh_endproc
.Lc102:
.Lt21:
.Ll91:

.section .text.n_sdl2_$$_sdl_swaple64$qword$$qword,"x"
	.balign 16,0x90
.globl	SDL2_$$_SDL_SWAPLE64$QWORD$$QWORD
SDL2_$$_SDL_SWAPLE64$QWORD$$QWORD:
.Lc106:
.seh_proc SDL2_$$_SDL_SWAPLE64$QWORD$$QWORD
.Ll92:
# [2826] begin
	pushq	%rbp
.seh_pushreg %rbp
.Lc108:
.Lc109:
	movq	%rsp,%rbp
.Lc110:
	leaq	-16(%rsp),%rsp
.seh_stackalloc 16
.seh_endprologue
# Var x located at rbp-8, size=OS_64
# Var $result located at rbp-16, size=OS_64
	movq	%rcx,-8(%rbp)
.Ll93:
# [2827] exit(LEtoN(x));
	movq	-8(%rbp),%rax
	movq	%rax,-16(%rbp)
.Ll94:
# [2828] end;
	movq	-16(%rbp),%rax
	leaq	(%rbp),%rsp
	popq	%rbp
	ret
.seh_endproc
.Lc107:
.Lt22:
.Ll95:

.section .text.n_sdl2_$$_sdl_swapfloatle$single$$single,"x"
	.balign 16,0x90
.globl	SDL2_$$_SDL_SWAPFLOATLE$SINGLE$$SINGLE
SDL2_$$_SDL_SWAPFLOATLE$SINGLE$$SINGLE:
.Lc111:
# Temps allocated between rbp-32 and rbp-16
.seh_proc SDL2_$$_SDL_SWAPFLOATLE$SINGLE$$SINGLE
.Ll96:
# [2831] begin
	pushq	%rbp
.seh_pushreg %rbp
.Lc113:
.Lc114:
	movq	%rsp,%rbp
.Lc115:
	leaq	-32(%rsp),%rsp
.seh_stackalloc 32
.seh_endprologue
# Var x located at rbp-8, size=OS_F32
# Var $result located at rbp-16, size=OS_F32
	movss	%xmm0,-8(%rbp)
.Ll97:
# [2833] exit(x);
	movl	-8(%rbp),%eax
	movl	%eax,-16(%rbp)
.Ll98:
# [2837] end;
	movss	-16(%rbp),%xmm0
	leaq	(%rbp),%rsp
	popq	%rbp
	ret
.seh_endproc
.Lc112:
.Lt23:
.Ll99:

.section .text.n_sdl2_$$_sdl_swapbe16$word$$word,"x"
	.balign 16,0x90
.globl	SDL2_$$_SDL_SWAPBE16$WORD$$WORD
SDL2_$$_SDL_SWAPBE16$WORD$$WORD:
.Lc116:
.seh_proc SDL2_$$_SDL_SWAPBE16$WORD$$WORD
.Ll100:
# [2840] begin
	pushq	%rbp
.seh_pushreg %rbp
.Lc118:
.Lc119:
	movq	%rsp,%rbp
.Lc120:
	leaq	-16(%rsp),%rsp
.seh_stackalloc 16
.seh_endprologue
# Var x located at rbp-8, size=OS_16
# Var $result located at rbp-16, size=OS_16
	movw	%cx,-8(%rbp)
.Ll101:
# [2841] exit(BEtoN(x));
	movzwl	-8(%rbp),%eax
	shrl	$8,%eax
	movzwl	-8(%rbp),%edx
	shll	$8,%edx
	orl	%eax,%edx
	movw	%dx,-16(%rbp)
.Ll102:
# [2842] end;
	movzwl	-16(%rbp),%eax
	leaq	(%rbp),%rsp
	popq	%rbp
	ret
.seh_endproc
.Lc117:
.Lt24:
.Ll103:

.section .text.n_sdl2_$$_sdl_swapbe32$longword$$longword,"x"
	.balign 16,0x90
.globl	SDL2_$$_SDL_SWAPBE32$LONGWORD$$LONGWORD
SDL2_$$_SDL_SWAPBE32$LONGWORD$$LONGWORD:
.Lc121:
.seh_proc SDL2_$$_SDL_SWAPBE32$LONGWORD$$LONGWORD
.Ll104:
# [2845] begin
	pushq	%rbp
.seh_pushreg %rbp
.Lc123:
.Lc124:
	movq	%rsp,%rbp
.Lc125:
	leaq	-48(%rsp),%rsp
.seh_stackalloc 48
.seh_endprologue
# Var x located at rbp-8, size=OS_32
# Var $result located at rbp-16, size=OS_32
	movl	%ecx,-8(%rbp)
.Ll105:
# [2846] exit(BEtoN(x));
	movl	-8(%rbp),%ecx
	call	SYSTEM_$$_SWAPENDIAN$LONGWORD$$LONGWORD
	movl	%eax,-16(%rbp)
.Ll106:
# [2847] end;
	movl	-16(%rbp),%eax
	nop
	leaq	(%rbp),%rsp
	popq	%rbp
	ret
.seh_endproc
.Lc122:
.Lt25:
.Ll107:

.section .text.n_sdl2_$$_sdl_swapbe64$qword$$qword,"x"
	.balign 16,0x90
.globl	SDL2_$$_SDL_SWAPBE64$QWORD$$QWORD
SDL2_$$_SDL_SWAPBE64$QWORD$$QWORD:
.Lc126:
.seh_proc SDL2_$$_SDL_SWAPBE64$QWORD$$QWORD
.Ll108:
# [2850] begin
	pushq	%rbp
.seh_pushreg %rbp
.Lc128:
.Lc129:
	movq	%rsp,%rbp
.Lc130:
	leaq	-48(%rsp),%rsp
.seh_stackalloc 48
.seh_endprologue
# Var x located at rbp-8, size=OS_64
# Var $result located at rbp-16, size=OS_64
	movq	%rcx,-8(%rbp)
.Ll109:
# [2851] exit(BEtoN(x));
	movq	-8(%rbp),%rcx
	call	SYSTEM_$$_SWAPENDIAN$QWORD$$QWORD
	movq	%rax,-16(%rbp)
.Ll110:
# [2852] end;
	movq	-16(%rbp),%rax
	nop
	leaq	(%rbp),%rsp
	popq	%rbp
	ret
.seh_endproc
.Lc127:
.Lt26:
.Ll111:

.section .text.n_sdl2_$$_sdl_swapfloatbe$single$$single,"x"
	.balign 16,0x90
.globl	SDL2_$$_SDL_SWAPFLOATBE$SINGLE$$SINGLE
SDL2_$$_SDL_SWAPFLOATBE$SINGLE$$SINGLE:
.Lc131:
# Temps allocated between rbp-40 and rbp-16
.seh_proc SDL2_$$_SDL_SWAPFLOATBE$SINGLE$$SINGLE
.Ll112:
# [2855] begin
	pushq	%rbp
.seh_pushreg %rbp
.Lc133:
.Lc134:
	movq	%rsp,%rbp
.Lc135:
	leaq	-80(%rsp),%rsp
.seh_stackalloc 80
.seh_endprologue
# Var x located at rbp-8, size=OS_F32
# Var $result located at rbp-16, size=OS_F32
	movss	%xmm0,-8(%rbp)
.Ll113:
# [2859] exit(SDL_SwapFloat(x));
	movl	-8(%rbp),%eax
	movl	%eax,-24(%rbp)
	movl	-24(%rbp),%ecx
	call	SYSTEM_$$_SWAPENDIAN$LONGWORD$$LONGWORD
	movl	%eax,-24(%rbp)
	movss	-24(%rbp),%xmm0
	movss	%xmm0,-16(%rbp)
.Ll114:
# [2861] end;
	movss	-16(%rbp),%xmm0
	leaq	(%rbp),%rsp
	popq	%rbp
	ret
.seh_endproc
.Lc132:
.Lt27:
.Ll115:

.section .text.n_sdl2_$$_sdl_rwsize$psdl_rwops$$int64,"x"
	.balign 16,0x90
.globl	SDL2_$$_SDL_RWSIZE$PSDL_RWOPS$$INT64
SDL2_$$_SDL_RWSIZE$PSDL_RWOPS$$INT64:
.Lc136:
.seh_proc SDL2_$$_SDL_RWSIZE$PSDL_RWOPS$$INT64
.Ll116:
# [2867] begin
	pushq	%rbp
.seh_pushreg %rbp
.Lc138:
.Lc139:
	movq	%rsp,%rbp
.Lc140:
	leaq	-48(%rsp),%rsp
.seh_stackalloc 48
.seh_endprologue
# Var ctx located at rbp-8, size=OS_64
# Var $result located at rbp-16, size=OS_S64
	movq	%rcx,-8(%rbp)
.Ll117:
# [2868] exit(ctx^.size(ctx));
	movq	-8(%rbp),%rax
	movq	-8(%rbp),%rdx
	movq	%rax,%rcx
	call	*(%rdx)
	movq	%rax,-16(%rbp)
.Ll118:
# [2869] end;
	movq	-16(%rbp),%rax
	nop
	leaq	(%rbp),%rsp
	popq	%rbp
	ret
.seh_endproc
.Lc137:
.Lt28:
.Ll119:

.section .text.n_sdl2_$$_sdl_rwseek$psdl_rwops$int64$longint$$int64,"x"
	.balign 16,0x90
.globl	SDL2_$$_SDL_RWSEEK$PSDL_RWOPS$INT64$LONGINT$$INT64
SDL2_$$_SDL_RWSEEK$PSDL_RWOPS$INT64$LONGINT$$INT64:
.Lc141:
.seh_proc SDL2_$$_SDL_RWSEEK$PSDL_RWOPS$INT64$LONGINT$$INT64
.Ll120:
# [2873] begin
	pushq	%rbp
.seh_pushreg %rbp
.Lc143:
.Lc144:
	movq	%rsp,%rbp
.Lc145:
	leaq	-64(%rsp),%rsp
.seh_stackalloc 64
.seh_endprologue
# Var ctx located at rbp-8, size=OS_64
# Var offset located at rbp-16, size=OS_S64
# Var whence located at rbp-24, size=OS_S32
# Var $result located at rbp-32, size=OS_S64
	movq	%rcx,-8(%rbp)
	movq	%rdx,-16(%rbp)
	movl	%r8d,-24(%rbp)
.Ll121:
# [2874] exit(ctx^.seek(ctx, offset, whence));
	movl	-24(%rbp),%eax
	movq	-16(%rbp),%rdx
	movq	-8(%rbp),%rcx
	movq	-8(%rbp),%r9
	movl	%eax,%r8d
	call	*8(%r9)
	movq	%rax,-32(%rbp)
.Ll122:
# [2875] end;
	movq	-32(%rbp),%rax
	nop
	leaq	(%rbp),%rsp
	popq	%rbp
	ret
.seh_endproc
.Lc142:
.Lt29:
.Ll123:

.section .text.n_sdl2_$$_sdl_rwtell$psdl_rwops$$int64,"x"
	.balign 16,0x90
.globl	SDL2_$$_SDL_RWTELL$PSDL_RWOPS$$INT64
SDL2_$$_SDL_RWTELL$PSDL_RWOPS$$INT64:
.Lc146:
.seh_proc SDL2_$$_SDL_RWTELL$PSDL_RWOPS$$INT64
.Ll124:
# [2878] begin
	pushq	%rbp
.seh_pushreg %rbp
.Lc148:
.Lc149:
	movq	%rsp,%rbp
.Lc150:
	leaq	-48(%rsp),%rsp
.seh_stackalloc 48
.seh_endprologue
# Var ctx located at rbp-8, size=OS_64
# Var $result located at rbp-16, size=OS_S64
	movq	%rcx,-8(%rbp)
.Ll125:
# [2879] exit(ctx^.seek(ctx, 0, RW_SEEK_CUR));
	movq	-8(%rbp),%rax
	movl	$1,%r8d
	movq	$0,%rdx
	movq	-8(%rbp),%r9
	movq	%rax,%rcx
	call	*8(%r9)
	movq	%rax,-16(%rbp)
.Ll126:
# [2880] end;
	movq	-16(%rbp),%rax
	nop
	leaq	(%rbp),%rsp
	popq	%rbp
	ret
.seh_endproc
.Lc147:
.Lt30:
.Ll127:

.section .text.n_sdl2_$$_sdl_rwread$psdl_rwops$pointer$longword$longword$$longword,"x"
	.balign 16,0x90
.globl	SDL2_$$_SDL_RWREAD$PSDL_RWOPS$POINTER$LONGWORD$LONGWORD$$LONGWORD
SDL2_$$_SDL_RWREAD$PSDL_RWOPS$POINTER$LONGWORD$LONGWORD$$LONGWORD:
.Lc151:
.seh_proc SDL2_$$_SDL_RWREAD$PSDL_RWOPS$POINTER$LONGWORD$LONGWORD$$LONGWORD
.Ll128:
# [2883] begin
	pushq	%rbp
.seh_pushreg %rbp
.Lc153:
.Lc154:
	movq	%rsp,%rbp
.Lc155:
	leaq	-80(%rsp),%rsp
.seh_stackalloc 80
.seh_endprologue
# Var ctx located at rbp-8, size=OS_64
# Var ptr located at rbp-16, size=OS_64
# Var size located at rbp-24, size=OS_32
# Var n located at rbp-32, size=OS_32
# Var $result located at rbp-40, size=OS_32
	movq	%rcx,-8(%rbp)
	movq	%rdx,-16(%rbp)
	movl	%r8d,-24(%rbp)
	movl	%r9d,-32(%rbp)
.Ll129:
# [2884] exit(ctx^.read(ctx, ptr, size, n));
	movl	-32(%rbp),%eax
	movq	%rax,%r9
	movl	-24(%rbp),%r8d
	movq	-16(%rbp),%rdx
	movq	-8(%rbp),%rcx
	movq	-8(%rbp),%rax
	call	*16(%rax)
	movl	%eax,-40(%rbp)
.Ll130:
# [2885] end;
	movl	-40(%rbp),%eax
	nop
	leaq	(%rbp),%rsp
	popq	%rbp
	ret
.seh_endproc
.Lc152:
.Lt31:
.Ll131:

.section .text.n_sdl2_$$_sdl_rwwrite$psdl_rwops$pointer$longword$longword$$longword,"x"
	.balign 16,0x90
.globl	SDL2_$$_SDL_RWWRITE$PSDL_RWOPS$POINTER$LONGWORD$LONGWORD$$LONGWORD
SDL2_$$_SDL_RWWRITE$PSDL_RWOPS$POINTER$LONGWORD$LONGWORD$$LONGWORD:
.Lc156:
.seh_proc SDL2_$$_SDL_RWWRITE$PSDL_RWOPS$POINTER$LONGWORD$LONGWORD$$LONGWORD
.Ll132:
# [2888] begin
	pushq	%rbp
.seh_pushreg %rbp
.Lc158:
.Lc159:
	movq	%rsp,%rbp
.Lc160:
	leaq	-80(%rsp),%rsp
.seh_stackalloc 80
.seh_endprologue
# Var ctx located at rbp-8, size=OS_64
# Var ptr located at rbp-16, size=OS_64
# Var size located at rbp-24, size=OS_32
# Var n located at rbp-32, size=OS_32
# Var $result located at rbp-40, size=OS_32
	movq	%rcx,-8(%rbp)
	movq	%rdx,-16(%rbp)
	movl	%r8d,-24(%rbp)
	movl	%r9d,-32(%rbp)
.Ll133:
# [2889] exit(ctx^.write(ctx, ptr, size, n));
	movl	-32(%rbp),%eax
	movq	%rax,%r9
	movl	-24(%rbp),%r8d
	movq	-16(%rbp),%rdx
	movq	-8(%rbp),%rcx
	movq	-8(%rbp),%rax
	call	*24(%rax)
	movl	%eax,-40(%rbp)
.Ll134:
# [2890] end;
	movl	-40(%rbp),%eax
	nop
	leaq	(%rbp),%rsp
	popq	%rbp
	ret
.seh_endproc
.Lc157:
.Lt32:
.Ll135:

.section .text.n_sdl2_$$_sdl_rwclose$psdl_rwops$$longint,"x"
	.balign 16,0x90
.globl	SDL2_$$_SDL_RWCLOSE$PSDL_RWOPS$$LONGINT
SDL2_$$_SDL_RWCLOSE$PSDL_RWOPS$$LONGINT:
.Lc161:
.seh_proc SDL2_$$_SDL_RWCLOSE$PSDL_RWOPS$$LONGINT
.Ll136:
# [2893] begin
	pushq	%rbp
.seh_pushreg %rbp
.Lc163:
.Lc164:
	movq	%rsp,%rbp
.Lc165:
	leaq	-48(%rsp),%rsp
.seh_stackalloc 48
.seh_endprologue
# Var ctx located at rbp-8, size=OS_64
# Var $result located at rbp-16, size=OS_S32
	movq	%rcx,-8(%rbp)
.Ll137:
# [2894] exit(ctx^.close(ctx));
	movq	-8(%rbp),%rax
	movq	-8(%rbp),%rdx
	movq	%rax,%rcx
	call	*32(%rdx)
	movl	%eax,-16(%rbp)
.Ll138:
# [2895] end;
	movl	-16(%rbp),%eax
	nop
	leaq	(%rbp),%rsp
	popq	%rbp
	ret
.seh_endproc
.Lc162:
.Lt33:
.Ll139:

.section .text.n_sdl2_$$_sdl_audio_bitsize$word$$word,"x"
	.balign 16,0x90
.globl	SDL2_$$_SDL_AUDIO_BITSIZE$WORD$$WORD
SDL2_$$_SDL_AUDIO_BITSIZE$WORD$$WORD:
.Lc166:
.seh_proc SDL2_$$_SDL_AUDIO_BITSIZE$WORD$$WORD
.Ll140:
# [2901] begin
	pushq	%rbp
.seh_pushreg %rbp
.Lc168:
.Lc169:
	movq	%rsp,%rbp
.Lc170:
	leaq	-16(%rsp),%rsp
.seh_stackalloc 16
.seh_endprologue
# Var x located at rbp-8, size=OS_16
# Var $result located at rbp-16, size=OS_16
	movw	%cx,-8(%rbp)
.Ll141:
# [2902] exit(x and SDL_AUDIO_MASK_BITSIZE);
	movw	-8(%rbp),%ax
	andw	$255,%ax
	movw	%ax,-16(%rbp)
.Ll142:
# [2903] end;
	movzwl	-16(%rbp),%eax
	leaq	(%rbp),%rsp
	popq	%rbp
	ret
.seh_endproc
.Lc167:
.Lt34:
.Ll143:

.section .text.n_sdl2_$$_sdl_audio_isfloat$word$$boolean,"x"
	.balign 16,0x90
.globl	SDL2_$$_SDL_AUDIO_ISFLOAT$WORD$$BOOLEAN
SDL2_$$_SDL_AUDIO_ISFLOAT$WORD$$BOOLEAN:
.Lc171:
.seh_proc SDL2_$$_SDL_AUDIO_ISFLOAT$WORD$$BOOLEAN
.Ll144:
# [2906] begin
	pushq	%rbp
.seh_pushreg %rbp
.Lc173:
.Lc174:
	movq	%rsp,%rbp
.Lc175:
	leaq	-16(%rsp),%rsp
.seh_stackalloc 16
.seh_endprologue
# Var x located at rbp-8, size=OS_16
# Var $result located at rbp-16, size=OS_8
	movw	%cx,-8(%rbp)
# PeepHole Optimization,var14
.Ll145:
# [2907] exit((x and SDL_AUDIO_MASK_DATATYPE) > 0);
	movl	-8(%rbp),%eax
	andl	$256,%eax
	cmpl	$0,%eax
	setgb	-16(%rbp)
.Ll146:
# [2908] end;
	movzbl	-16(%rbp),%eax
	leaq	(%rbp),%rsp
	popq	%rbp
	ret
.seh_endproc
.Lc172:
.Lt35:
.Ll147:

.section .text.n_sdl2_$$_sdl_audio_isbigendian$word$$boolean,"x"
	.balign 16,0x90
.globl	SDL2_$$_SDL_AUDIO_ISBIGENDIAN$WORD$$BOOLEAN
SDL2_$$_SDL_AUDIO_ISBIGENDIAN$WORD$$BOOLEAN:
.Lc176:
.seh_proc SDL2_$$_SDL_AUDIO_ISBIGENDIAN$WORD$$BOOLEAN
.Ll148:
# [2911] begin
	pushq	%rbp
.seh_pushreg %rbp
.Lc178:
.Lc179:
	movq	%rsp,%rbp
.Lc180:
	leaq	-16(%rsp),%rsp
.seh_stackalloc 16
.seh_endprologue
# Var x located at rbp-8, size=OS_16
# Var $result located at rbp-16, size=OS_8
	movw	%cx,-8(%rbp)
# PeepHole Optimization,var14
.Ll149:
# [2912] exit((x and SDL_AUDIO_MASK_ENDIAN) > 0);
	movl	-8(%rbp),%eax
	andl	$4096,%eax
	cmpl	$0,%eax
	setgb	-16(%rbp)
.Ll150:
# [2913] end;
	movzbl	-16(%rbp),%eax
	leaq	(%rbp),%rsp
	popq	%rbp
	ret
.seh_endproc
.Lc177:
.Lt36:
.Ll151:

.section .text.n_sdl2_$$_sdl_audio_issigned$word$$boolean,"x"
	.balign 16,0x90
.globl	SDL2_$$_SDL_AUDIO_ISSIGNED$WORD$$BOOLEAN
SDL2_$$_SDL_AUDIO_ISSIGNED$WORD$$BOOLEAN:
.Lc181:
.seh_proc SDL2_$$_SDL_AUDIO_ISSIGNED$WORD$$BOOLEAN
.Ll152:
# [2916] begin
	pushq	%rbp
.seh_pushreg %rbp
.Lc183:
.Lc184:
	movq	%rsp,%rbp
.Lc185:
	leaq	-16(%rsp),%rsp
.seh_stackalloc 16
.seh_endprologue
# Var x located at rbp-8, size=OS_16
# Var $result located at rbp-16, size=OS_8
	movw	%cx,-8(%rbp)
.Ll153:
# [2917] exit((x and SDL_AUDIO_MASK_SIGNED) > 0);
	movw	-8(%rbp),%ax
	andw	$32768,%ax
	cmpw	$0,%ax
	setab	-16(%rbp)
.Ll154:
# [2918] end;
	movzbl	-16(%rbp),%eax
	leaq	(%rbp),%rsp
	popq	%rbp
	ret
.seh_endproc
.Lc182:
.Lt37:
.Ll155:

.section .text.n_sdl2_$$_sdl_audio_isint$word$$boolean,"x"
	.balign 16,0x90
.globl	SDL2_$$_SDL_AUDIO_ISINT$WORD$$BOOLEAN
SDL2_$$_SDL_AUDIO_ISINT$WORD$$BOOLEAN:
.Lc186:
.seh_proc SDL2_$$_SDL_AUDIO_ISINT$WORD$$BOOLEAN
.Ll156:
# [2921] begin
	pushq	%rbp
.seh_pushreg %rbp
.Lc188:
.Lc189:
	movq	%rsp,%rbp
.Lc190:
	leaq	-16(%rsp),%rsp
.seh_stackalloc 16
.seh_endprologue
# Var x located at rbp-8, size=OS_16
# Var $result located at rbp-16, size=OS_8
	movw	%cx,-8(%rbp)
# PeepHole Optimization,var14
.Ll157:
# [2922] exit(not SDL_AUDIO_ISFLOAT(x));
	movl	-8(%rbp),%eax
	andl	$256,%eax
	cmpl	$0,%eax
	setgb	%al
	testb	%al,%al
	seteb	-16(%rbp)
.Ll158:
# [2923] end;
	movzbl	-16(%rbp),%eax
	leaq	(%rbp),%rsp
	popq	%rbp
	ret
.seh_endproc
.Lc187:
.Lt38:
.Ll159:

.section .text.n_sdl2_$$_sdl_audio_islittleendian$word$$boolean,"x"
	.balign 16,0x90
.globl	SDL2_$$_SDL_AUDIO_ISLITTLEENDIAN$WORD$$BOOLEAN
SDL2_$$_SDL_AUDIO_ISLITTLEENDIAN$WORD$$BOOLEAN:
.Lc191:
.seh_proc SDL2_$$_SDL_AUDIO_ISLITTLEENDIAN$WORD$$BOOLEAN
.Ll160:
# [2926] begin
	pushq	%rbp
.seh_pushreg %rbp
.Lc193:
.Lc194:
	movq	%rsp,%rbp
.Lc195:
	leaq	-16(%rsp),%rsp
.seh_stackalloc 16
.seh_endprologue
# Var x located at rbp-8, size=OS_16
# Var $result located at rbp-16, size=OS_8
	movw	%cx,-8(%rbp)
# PeepHole Optimization,var14
.Ll161:
# [2927] exit(not SDL_AUDIO_ISBIGENDIAN(x));
	movl	-8(%rbp),%eax
	andl	$4096,%eax
	cmpl	$0,%eax
	setgb	%al
	testb	%al,%al
	seteb	-16(%rbp)
.Ll162:
# [2928] end;
	movzbl	-16(%rbp),%eax
	leaq	(%rbp),%rsp
	popq	%rbp
	ret
.seh_endproc
.Lc192:
.Lt39:
.Ll163:

.section .text.n_sdl2_$$_sdl_audio_isunsigned$word$$boolean,"x"
	.balign 16,0x90
.globl	SDL2_$$_SDL_AUDIO_ISUNSIGNED$WORD$$BOOLEAN
SDL2_$$_SDL_AUDIO_ISUNSIGNED$WORD$$BOOLEAN:
.Lc196:
.seh_proc SDL2_$$_SDL_AUDIO_ISUNSIGNED$WORD$$BOOLEAN
.Ll164:
# [2931] begin
	pushq	%rbp
.seh_pushreg %rbp
.Lc198:
.Lc199:
	movq	%rsp,%rbp
.Lc200:
	leaq	-16(%rsp),%rsp
.seh_stackalloc 16
.seh_endprologue
# Var x located at rbp-8, size=OS_16
# Var $result located at rbp-16, size=OS_8
	movw	%cx,-8(%rbp)
.Ll165:
# [2932] exit(not SDL_AUDIO_ISSIGNED(x));
	movw	-8(%rbp),%ax
	andw	$32768,%ax
	cmpw	$0,%ax
	setab	%al
	testb	%al,%al
	seteb	-16(%rbp)
.Ll166:
# [2933] end;
	movzbl	-16(%rbp),%eax
	leaq	(%rbp),%rsp
	popq	%rbp
	ret
.seh_endproc
.Lc197:
.Lt40:
.Ll167:

.section .text.n_sdl2_$$_sdl_loadwav$pchar$psdl_audiospec$ppbyte$pdword$$psdl_audiospec,"x"
	.balign 16,0x90
.globl	SDL2_$$_SDL_LOADWAV$PCHAR$PSDL_AUDIOSPEC$PPBYTE$PDWORD$$PSDL_AUDIOSPEC
SDL2_$$_SDL_LOADWAV$PCHAR$PSDL_AUDIOSPEC$PPBYTE$PDWORD$$PSDL_AUDIOSPEC:
.Lc201:
.seh_proc SDL2_$$_SDL_LOADWAV$PCHAR$PSDL_AUDIOSPEC$PPBYTE$PDWORD$$PSDL_AUDIOSPEC
.Ll168:
# [2937] begin
	pushq	%rbp
.seh_pushreg %rbp
.Lc203:
.Lc204:
	movq	%rsp,%rbp
.Lc205:
	leaq	-96(%rsp),%rsp
.seh_stackalloc 96
.seh_endprologue
# Var file_ located at rbp-8, size=OS_64
# Var spec located at rbp-16, size=OS_64
# Var audio_buf located at rbp-24, size=OS_64
# Var audio_len located at rbp-32, size=OS_64
# Var $result located at rbp-40, size=OS_64
	movq	%rcx,-8(%rbp)
	movq	%rdx,-16(%rbp)
	movq	%r8,-24(%rbp)
	movq	%r9,-32(%rbp)
.Ll169:
# [2938] exit(SDL_LoadWAV_RW(SDL_RWFromFile(file_, 'rb'), 1, spec, audio_buf, audio_len));
	movq	-32(%rbp),%rax
	movq	%rax,32(%rsp)
	leaq	_$SDL2$_Ld6(%rip),%rdx
	movq	-8(%rbp),%rcx
	call	_$dll$sdl2$SDL_RWFromFile
	movq	%rax,%rcx
	movq	-24(%rbp),%r9
	movq	-16(%rbp),%r8
	movl	$1,%edx
	call	_$dll$sdl2$SDL_LoadWAV_RW
	movq	%rax,-40(%rbp)
.Ll170:
# [2939] end;
	movq	-40(%rbp),%rax
	nop
	leaq	(%rbp),%rsp
	popq	%rbp
	ret
.seh_endproc
.Lc202:
.Lt41:
.Ll171:

.section .text.n_sdl2_$$_sdl_pixelflag$longword$$longword,"x"
	.balign 16,0x90
.globl	SDL2_$$_SDL_PIXELFLAG$LONGWORD$$LONGWORD
SDL2_$$_SDL_PIXELFLAG$LONGWORD$$LONGWORD:
.Lc206:
.seh_proc SDL2_$$_SDL_PIXELFLAG$LONGWORD$$LONGWORD
.Ll172:
# [2945] begin
	pushq	%rbp
.seh_pushreg %rbp
.Lc208:
.Lc209:
	movq	%rsp,%rbp
.Lc210:
	leaq	-16(%rsp),%rsp
.seh_stackalloc 16
.seh_endprologue
# Var X located at rbp-8, size=OS_32
# Var $result located at rbp-16, size=OS_32
	movl	%ecx,-8(%rbp)
.Ll173:
# [2946] exit((X shr 28) and $0F);
	movl	-8(%rbp),%eax
	shrl	$28,%eax
	andl	$15,%eax
	movl	%eax,-16(%rbp)
.Ll174:
# [2947] end;
	movl	-16(%rbp),%eax
	leaq	(%rbp),%rsp
	popq	%rbp
	ret
.seh_endproc
.Lc207:
.Lt42:
.Ll175:

.section .text.n_sdl2_$$_sdl_pixeltype$longword$$longword,"x"
	.balign 16,0x90
.globl	SDL2_$$_SDL_PIXELTYPE$LONGWORD$$LONGWORD
SDL2_$$_SDL_PIXELTYPE$LONGWORD$$LONGWORD:
.Lc211:
.seh_proc SDL2_$$_SDL_PIXELTYPE$LONGWORD$$LONGWORD
.Ll176:
# [2950] begin
	pushq	%rbp
.seh_pushreg %rbp
.Lc213:
.Lc214:
	movq	%rsp,%rbp
.Lc215:
	leaq	-16(%rsp),%rsp
.seh_stackalloc 16
.seh_endprologue
# Var X located at rbp-8, size=OS_32
# Var $result located at rbp-16, size=OS_32
	movl	%ecx,-8(%rbp)
.Ll177:
# [2951] exit((X shr 24) and $0F);
	movl	-8(%rbp),%eax
	shrl	$24,%eax
	andl	$15,%eax
	movl	%eax,-16(%rbp)
.Ll178:
# [2952] end;
	movl	-16(%rbp),%eax
	leaq	(%rbp),%rsp
	popq	%rbp
	ret
.seh_endproc
.Lc212:
.Lt43:
.Ll179:

.section .text.n_sdl2_$$_sdl_pixelorder$longword$$longword,"x"
	.balign 16,0x90
.globl	SDL2_$$_SDL_PIXELORDER$LONGWORD$$LONGWORD
SDL2_$$_SDL_PIXELORDER$LONGWORD$$LONGWORD:
.Lc216:
.seh_proc SDL2_$$_SDL_PIXELORDER$LONGWORD$$LONGWORD
.Ll180:
# [2955] begin
	pushq	%rbp
.seh_pushreg %rbp
.Lc218:
.Lc219:
	movq	%rsp,%rbp
.Lc220:
	leaq	-16(%rsp),%rsp
.seh_stackalloc 16
.seh_endprologue
# Var X located at rbp-8, size=OS_32
# Var $result located at rbp-16, size=OS_32
	movl	%ecx,-8(%rbp)
.Ll181:
# [2956] exit((X shr 20) and $0F);
	movl	-8(%rbp),%eax
	shrl	$20,%eax
	andl	$15,%eax
	movl	%eax,-16(%rbp)
.Ll182:
# [2957] end;
	movl	-16(%rbp),%eax
	leaq	(%rbp),%rsp
	popq	%rbp
	ret
.seh_endproc
.Lc217:
.Lt44:
.Ll183:

.section .text.n_sdl2_$$_sdl_pixellayout$longword$$longword,"x"
	.balign 16,0x90
.globl	SDL2_$$_SDL_PIXELLAYOUT$LONGWORD$$LONGWORD
SDL2_$$_SDL_PIXELLAYOUT$LONGWORD$$LONGWORD:
.Lc221:
.seh_proc SDL2_$$_SDL_PIXELLAYOUT$LONGWORD$$LONGWORD
.Ll184:
# [2960] begin
	pushq	%rbp
.seh_pushreg %rbp
.Lc223:
.Lc224:
	movq	%rsp,%rbp
.Lc225:
	leaq	-16(%rsp),%rsp
.seh_stackalloc 16
.seh_endprologue
# Var X located at rbp-8, size=OS_32
# Var $result located at rbp-16, size=OS_32
	movl	%ecx,-8(%rbp)
.Ll185:
# [2961] exit((X shr 16) and $0F);
	movl	-8(%rbp),%eax
	shrl	$16,%eax
	andl	$15,%eax
	movl	%eax,-16(%rbp)
.Ll186:
# [2962] end;
	movl	-16(%rbp),%eax
	leaq	(%rbp),%rsp
	popq	%rbp
	ret
.seh_endproc
.Lc222:
.Lt45:
.Ll187:

.section .text.n_sdl2_$$_sdl_bitsperpixel$longword$$longword,"x"
	.balign 16,0x90
.globl	SDL2_$$_SDL_BITSPERPIXEL$LONGWORD$$LONGWORD
SDL2_$$_SDL_BITSPERPIXEL$LONGWORD$$LONGWORD:
.Lc226:
.seh_proc SDL2_$$_SDL_BITSPERPIXEL$LONGWORD$$LONGWORD
.Ll188:
# [2965] begin
	pushq	%rbp
.seh_pushreg %rbp
.Lc228:
.Lc229:
	movq	%rsp,%rbp
.Lc230:
	leaq	-16(%rsp),%rsp
.seh_stackalloc 16
.seh_endprologue
# Var X located at rbp-8, size=OS_32
# Var $result located at rbp-16, size=OS_32
	movl	%ecx,-8(%rbp)
.Ll189:
# [2966] exit((X shr 8) and $FF);
	movl	-8(%rbp),%eax
	shrl	$8,%eax
	andl	$255,%eax
	movl	%eax,-16(%rbp)
.Ll190:
# [2967] end;
	movl	-16(%rbp),%eax
	leaq	(%rbp),%rsp
	popq	%rbp
	ret
.seh_endproc
.Lc227:
.Lt46:
.Ll191:

.section .text.n_sdl2_$$_sdl_bytesperpixel$longword$$longword,"x"
	.balign 16,0x90
.globl	SDL2_$$_SDL_BYTESPERPIXEL$LONGWORD$$LONGWORD
SDL2_$$_SDL_BYTESPERPIXEL$LONGWORD$$LONGWORD:
.Lc231:
.seh_proc SDL2_$$_SDL_BYTESPERPIXEL$LONGWORD$$LONGWORD
.Ll192:
# [2970] begin
	pushq	%rbp
.seh_pushreg %rbp
.Lc233:
.Lc234:
	movq	%rsp,%rbp
.Lc235:
	leaq	-48(%rsp),%rsp
.seh_stackalloc 48
.seh_endprologue
# Var X located at rbp-8, size=OS_32
# Var $result located at rbp-16, size=OS_32
	movl	%ecx,-8(%rbp)
.Ll193:
# [2971] if SDL_ISPIXELFORMAT_FOURCC(X) then
	movl	-8(%rbp),%eax
	movl	%eax,%ecx
	call	SDL2_$$_SDL_ISPIXELFORMAT_FOURCC$LONGWORD$$BOOLEAN
	testb	%al,%al
	je	.Lj360
.Ll194:
# [2973] if (X = SDL_PIXELFORMAT_YUY2) or
	cmpl	$844715353,-8(%rbp)
	je	.Lj363
.Ll195:
# [2974] (X = SDL_PIXELFORMAT_UYVY) or
	cmpl	$1498831189,-8(%rbp)
	je	.Lj363
.Ll196:
# [2975] (X = SDL_PIXELFORMAT_YVYU) then
	cmpl	$1431918169,-8(%rbp)
	jne	.Lj364
.Lj363:
.Ll197:
# [2977] else
	movl	$2,-16(%rbp)
.Ll198:
# [2976] exit(2)
	jmp	.Lj357
.Lj364:
.Ll199:
# [2978] exit(1);
	movl	$1,-16(%rbp)
	jmp	.Lj357
.Lj360:
.Ll200:
# [2981] exit((X shr 0) and $FF);
	movl	-8(%rbp),%eax
	andl	$255,%eax
	movl	%eax,-16(%rbp)
.Lj357:
.Ll201:
# [2982] end;
	movl	-16(%rbp),%eax
	nop
	leaq	(%rbp),%rsp
	popq	%rbp
	ret
.seh_endproc
.Lc232:
.Lt47:
.Ll202:

.section .text.n_sdl2_$$_sdl_ispixelformat_indexed$longword$$boolean,"x"
	.balign 16,0x90
.globl	SDL2_$$_SDL_ISPIXELFORMAT_INDEXED$LONGWORD$$BOOLEAN
SDL2_$$_SDL_ISPIXELFORMAT_INDEXED$LONGWORD$$BOOLEAN:
.Lc236:
.seh_proc SDL2_$$_SDL_ISPIXELFORMAT_INDEXED$LONGWORD$$BOOLEAN
.Ll203:
# [2985] begin
	pushq	%rbp
.seh_pushreg %rbp
.Lc238:
.Lc239:
	movq	%rsp,%rbp
.Lc240:
	leaq	-48(%rsp),%rsp
.seh_stackalloc 48
.seh_endprologue
# Var format located at rbp-8, size=OS_32
# Var $result located at rbp-16, size=OS_8
	movl	%ecx,-8(%rbp)
.Ll204:
# [2986] exit((not SDL_ISPIXELFORMAT_FOURCC(format)) and
	movl	-8(%rbp),%eax
	movl	%eax,%ecx
	call	SDL2_$$_SDL_ISPIXELFORMAT_FOURCC$LONGWORD$$BOOLEAN
	testb	%al,%al
	jne	.Lj378
.Ll205:
# [2987] ((SDL_PIXELTYPE(format) = SDL_PIXELTYPE_INDEX1) or
	movl	-8(%rbp),%eax
	shrl	$24,%eax
	andl	$15,%eax
	cmpl	$1,%eax
	je	.Lj377
.Ll206:
# [2988] (SDL_PIXELTYPE(format) = SDL_PIXELTYPE_INDEX4) or
	movl	-8(%rbp),%eax
	shrl	$24,%eax
	andl	$15,%eax
	cmpl	$2,%eax
	je	.Lj377
.Ll207:
# [2989] (SDL_PIXELTYPE(format) = SDL_PIXELTYPE_INDEX8)));
	movl	-8(%rbp),%eax
	shrl	$24,%eax
	andl	$15,%eax
	cmpl	$3,%eax
	jne	.Lj378
.Lj377:
	movb	$1,-16(%rbp)
	jmp	.Lj375
.Lj378:
	movb	$0,-16(%rbp)
.Lj375:
.Ll208:
# [2990] end;
	movzbl	-16(%rbp),%eax
	nop
	leaq	(%rbp),%rsp
	popq	%rbp
	ret
.seh_endproc
.Lc237:
.Lt48:
.Ll209:

.section .text.n_sdl2_$$_sdl_ispixelformat_alpha$longword$$boolean,"x"
	.balign 16,0x90
.globl	SDL2_$$_SDL_ISPIXELFORMAT_ALPHA$LONGWORD$$BOOLEAN
SDL2_$$_SDL_ISPIXELFORMAT_ALPHA$LONGWORD$$BOOLEAN:
.Lc241:
.seh_proc SDL2_$$_SDL_ISPIXELFORMAT_ALPHA$LONGWORD$$BOOLEAN
.Ll210:
# [2993] begin
	pushq	%rbp
.seh_pushreg %rbp
.Lc243:
.Lc244:
	movq	%rsp,%rbp
.Lc245:
	leaq	-48(%rsp),%rsp
.seh_stackalloc 48
.seh_endprologue
# Var format located at rbp-8, size=OS_32
# Var $result located at rbp-16, size=OS_8
	movl	%ecx,-8(%rbp)
.Ll211:
# [2994] exit((not SDL_ISPIXELFORMAT_FOURCC(format)) and
	movl	-8(%rbp),%eax
	movl	%eax,%ecx
	call	SDL2_$$_SDL_ISPIXELFORMAT_FOURCC$LONGWORD$$BOOLEAN
	testb	%al,%al
	jne	.Lj397
.Ll212:
# [2995] ((SDL_PIXELORDER(format) = SDL_PACKEDORDER_ARGB) or
	movl	-8(%rbp),%eax
	shrl	$20,%eax
	andl	$15,%eax
	cmpl	$3,%eax
	je	.Lj396
.Ll213:
# [2996] (SDL_PIXELORDER(format) = SDL_PACKEDORDER_RGBA) or
	movl	-8(%rbp),%eax
	shrl	$20,%eax
	andl	$15,%eax
	cmpl	$4,%eax
	je	.Lj396
.Ll214:
# [2997] (SDL_PIXELORDER(format) = SDL_PACKEDORDER_ABGR) or
	movl	-8(%rbp),%eax
	shrl	$20,%eax
	andl	$15,%eax
	cmpl	$7,%eax
	je	.Lj396
.Ll215:
# [2998] (SDL_PIXELORDER(format) = SDL_PACKEDORDER_BGRA)));
	movl	-8(%rbp),%eax
	shrl	$20,%eax
	andl	$15,%eax
	cmpl	$8,%eax
	jne	.Lj397
.Lj396:
	movb	$1,-16(%rbp)
	jmp	.Lj394
.Lj397:
	movb	$0,-16(%rbp)
.Lj394:
.Ll216:
# [2999] end;
	movzbl	-16(%rbp),%eax
	nop
	leaq	(%rbp),%rsp
	popq	%rbp
	ret
.seh_endproc
.Lc242:
.Lt49:
.Ll217:

.section .text.n_sdl2_$$_sdl_ispixelformat_fourcc$longword$$boolean,"x"
	.balign 16,0x90
.globl	SDL2_$$_SDL_ISPIXELFORMAT_FOURCC$LONGWORD$$BOOLEAN
SDL2_$$_SDL_ISPIXELFORMAT_FOURCC$LONGWORD$$BOOLEAN:
.Lc246:
.seh_proc SDL2_$$_SDL_ISPIXELFORMAT_FOURCC$LONGWORD$$BOOLEAN
.Ll218:
# [3002] begin
	pushq	%rbp
.seh_pushreg %rbp
.Lc248:
.Lc249:
	movq	%rsp,%rbp
.Lc250:
	leaq	-16(%rsp),%rsp
.seh_stackalloc 16
.seh_endprologue
# Var format located at rbp-8, size=OS_32
# Var $result located at rbp-16, size=OS_8
	movl	%ecx,-8(%rbp)
.Ll219:
# [3003] exit((format and SDL_PIXELFLAG(format)) <> 1);
	movl	-8(%rbp),%eax
	shrl	$28,%eax
	andl	$15,%eax
	movl	-8(%rbp),%edx
	andl	%eax,%edx
	cmpl	$1,%edx
	setneb	-16(%rbp)
.Ll220:
# [3004] end;
	movzbl	-16(%rbp),%eax
	leaq	(%rbp),%rsp
	popq	%rbp
	ret
.seh_endproc
.Lc247:
.Lt50:
.Ll221:

.section .text.n_sdl2_$$_sdl_rectempty$psdl_rect$$longbool,"x"
	.balign 16,0x90
.globl	SDL2_$$_SDL_RECTEMPTY$PSDL_RECT$$LONGBOOL
SDL2_$$_SDL_RECTEMPTY$PSDL_RECT$$LONGBOOL:
.Lc251:
.seh_proc SDL2_$$_SDL_RECTEMPTY$PSDL_RECT$$LONGBOOL
.Ll222:
# [3010] begin
	pushq	%rbp
.seh_pushreg %rbp
.Lc253:
.Lc254:
	movq	%rsp,%rbp
.Lc255:
	leaq	-16(%rsp),%rsp
.seh_stackalloc 16
.seh_endprologue
# Var x located at rbp-8, size=OS_64
# Var $result located at rbp-16, size=OS_S32
	movq	%rcx,-8(%rbp)
.Ll223:
# [3011] exit((x = NIL) or (x^.w <= 0) or (x^.h <= 0));
	cmpq	$0,-8(%rbp)
	je	.Lj428
	movq	-8(%rbp),%rax
	cmpl	$0,8(%rax)
	jle	.Lj428
	movq	-8(%rbp),%rax
	cmpl	$0,12(%rax)
	jnle	.Lj429
.Lj428:
	movl	$-1,%eax
	jmp	.Lj432
.Lj429:
	movl	$0,%eax
.Lj432:
	movl	%eax,-16(%rbp)
.Ll224:
# [3012] end;
	movl	-16(%rbp),%eax
	leaq	(%rbp),%rsp
	popq	%rbp
	ret
.seh_endproc
.Lc252:
.Lt51:
.Ll225:

.section .text.n_sdl2_$$_sdl_rectequals$psdl_rect$psdl_rect$$longbool,"x"
	.balign 16,0x90
.globl	SDL2_$$_SDL_RECTEQUALS$PSDL_RECT$PSDL_RECT$$LONGBOOL
SDL2_$$_SDL_RECTEQUALS$PSDL_RECT$PSDL_RECT$$LONGBOOL:
.Lc256:
.seh_proc SDL2_$$_SDL_RECTEQUALS$PSDL_RECT$PSDL_RECT$$LONGBOOL
.Ll226:
# [3015] begin
	pushq	%rbp
.seh_pushreg %rbp
.Lc258:
.Lc259:
	movq	%rsp,%rbp
.Lc260:
	leaq	-32(%rsp),%rsp
.seh_stackalloc 32
.seh_endprologue
# Var a located at rbp-8, size=OS_64
# Var b located at rbp-16, size=OS_64
# Var $result located at rbp-24, size=OS_S32
	movq	%rcx,-8(%rbp)
	movq	%rdx,-16(%rbp)
.Ll227:
# [3016] exit((a <> NIL) and (b <> NIL) and (a^.x = b^.x) and (a^.y = b^.y) and (a^.w = b^.w) and (a^.h = b^.h));
	cmpq	$0,-8(%rbp)
	je	.Lj438
	cmpq	$0,-16(%rbp)
	je	.Lj438
	movq	-8(%rbp),%rax
	movq	-16(%rbp),%rdx
	movl	(%rax),%eax
	cmpl	(%rdx),%eax
	jne	.Lj438
	movq	-8(%rbp),%rax
	movq	-16(%rbp),%rdx
	movl	4(%rax),%eax
	cmpl	4(%rdx),%eax
	jne	.Lj438
	movq	-8(%rbp),%rax
	movq	-16(%rbp),%rdx
	movl	8(%rax),%eax
	cmpl	8(%rdx),%eax
	jne	.Lj438
	movq	-8(%rbp),%rax
	movq	-16(%rbp),%rdx
	movl	12(%rax),%eax
	cmpl	12(%rdx),%eax
	jne	.Lj438
	movl	$-1,%eax
	jmp	.Lj444
.Lj438:
	movl	$0,%eax
.Lj444:
	movl	%eax,-24(%rbp)
.Ll228:
# [3017] end;
	movl	-24(%rbp),%eax
	leaq	(%rbp),%rsp
	popq	%rbp
	ret
.seh_endproc
.Lc257:
.Lt52:
.Ll229:

.section .text.n_sdl2_$$_sdl_mustlock$psdl_surface$$boolean,"x"
	.balign 16,0x90
.globl	SDL2_$$_SDL_MUSTLOCK$PSDL_SURFACE$$BOOLEAN
SDL2_$$_SDL_MUSTLOCK$PSDL_SURFACE$$BOOLEAN:
.Lc261:
.seh_proc SDL2_$$_SDL_MUSTLOCK$PSDL_SURFACE$$BOOLEAN
.Ll230:
# [3023] begin
	pushq	%rbp
.seh_pushreg %rbp
.Lc263:
.Lc264:
	movq	%rsp,%rbp
.Lc265:
	leaq	-16(%rsp),%rsp
.seh_stackalloc 16
.seh_endprologue
# Var S located at rbp-8, size=OS_64
# Var $result located at rbp-16, size=OS_8
	movq	%rcx,-8(%rbp)
.Ll231:
# [3024] exit((S^.flags and SDL_RLEACCEL) <> 0);
	movq	-8(%rbp),%rax
	movl	(%rax),%eax
	andl	$2,%eax
	testl	%eax,%eax
	setneb	-16(%rbp)
.Ll232:
# [3025] end;
	movzbl	-16(%rbp),%eax
	leaq	(%rbp),%rsp
	popq	%rbp
	ret
.seh_endproc
.Lc262:
.Lt53:
.Ll233:

.section .text.n_sdl2_$$_sdl_loadbmp$pchar$$psdl_surface,"x"
	.balign 16,0x90
.globl	SDL2_$$_SDL_LOADBMP$PCHAR$$PSDL_SURFACE
SDL2_$$_SDL_LOADBMP$PCHAR$$PSDL_SURFACE:
.Lc266:
.seh_proc SDL2_$$_SDL_LOADBMP$PCHAR$$PSDL_SURFACE
.Ll234:
# [3028] begin
	pushq	%rbp
.seh_pushreg %rbp
.Lc268:
.Lc269:
	movq	%rsp,%rbp
.Lc270:
	leaq	-48(%rsp),%rsp
.seh_stackalloc 48
.seh_endprologue
# Var file_ located at rbp-8, size=OS_64
# Var $result located at rbp-16, size=OS_64
	movq	%rcx,-8(%rbp)
.Ll235:
# [3029] exit(SDL_LoadBMP_RW(SDL_RWFromFile(file_, 'rb'), 1));
	leaq	_$SDL2$_Ld6(%rip),%rax
	movq	%rax,%rdx
	movq	-8(%rbp),%rcx
	call	_$dll$sdl2$SDL_RWFromFile
	movq	%rax,%rcx
	movl	$1,%edx
	call	_$dll$sdl2$SDL_LoadBMP_RW
	movq	%rax,-16(%rbp)
.Ll236:
# [3030] end;
	movq	-16(%rbp),%rax
	nop
	leaq	(%rbp),%rsp
	popq	%rbp
	ret
.seh_endproc
.Lc267:
.Lt54:
.Ll237:

.section .text.n_sdl2_$$_sdl_savebmp$psdl_surface$pchar$$longint,"x"
	.balign 16,0x90
.globl	SDL2_$$_SDL_SAVEBMP$PSDL_SURFACE$PCHAR$$LONGINT
SDL2_$$_SDL_SAVEBMP$PSDL_SURFACE$PCHAR$$LONGINT:
.Lc271:
.seh_proc SDL2_$$_SDL_SAVEBMP$PSDL_SURFACE$PCHAR$$LONGINT
.Ll238:
# [3033] begin
	pushq	%rbp
.seh_pushreg %rbp
.Lc273:
.Lc274:
	movq	%rsp,%rbp
.Lc275:
	leaq	-64(%rsp),%rsp
.seh_stackalloc 64
.seh_endprologue
# Var surface located at rbp-8, size=OS_64
# Var file_ located at rbp-16, size=OS_64
# Var $result located at rbp-24, size=OS_S32
	movq	%rcx,-8(%rbp)
	movq	%rdx,-16(%rbp)
.Ll239:
# [3034] exit(SDL_SaveBMP_RW(surface, SDL_RWFromFile(file_, 'wb'), 1));
	leaq	_$SDL2$_Ld7(%rip),%rax
	movq	%rax,%rdx
	movq	-16(%rbp),%rcx
	call	_$dll$sdl2$SDL_RWFromFile
	movq	%rax,%rdx
	movq	-8(%rbp),%rcx
	movl	$1,%r8d
	call	_$dll$sdl2$SDL_SaveBMP_RW
	movl	%eax,-24(%rbp)
.Ll240:
# [3035] end;
	movl	-24(%rbp),%eax
	nop
	leaq	(%rbp),%rsp
	popq	%rbp
	ret
.seh_endproc
.Lc272:
.Lt55:
.Ll241:

.section .text.n_sdl2_$$_sdl_blitsurface$psdl_surface$psdl_rect$psdl_surface$psdl_rect$$longint,"x"
	.balign 16,0x90
.globl	SDL2_$$_SDL_BLITSURFACE$PSDL_SURFACE$PSDL_RECT$PSDL_SURFACE$PSDL_RECT$$LONGINT
SDL2_$$_SDL_BLITSURFACE$PSDL_SURFACE$PSDL_RECT$PSDL_SURFACE$PSDL_RECT$$LONGINT:
.Lc276:
.seh_proc SDL2_$$_SDL_BLITSURFACE$PSDL_SURFACE$PSDL_RECT$PSDL_SURFACE$PSDL_RECT$$LONGINT
.Ll242:
# [3038] begin
	pushq	%rbp
.seh_pushreg %rbp
.Lc278:
.Lc279:
	movq	%rsp,%rbp
.Lc280:
	leaq	-80(%rsp),%rsp
.seh_stackalloc 80
.seh_endprologue
# Var src located at rbp-8, size=OS_64
# Var srcrect located at rbp-16, size=OS_64
# Var dst located at rbp-24, size=OS_64
# Var dstrect located at rbp-32, size=OS_64
# Var $result located at rbp-40, size=OS_S32
	movq	%rcx,-8(%rbp)
	movq	%rdx,-16(%rbp)
	movq	%r8,-24(%rbp)
	movq	%r9,-32(%rbp)
.Ll243:
# [3039] exit(SDL_UpperBlit(src, srcrect, dst, dstrect));
	movq	-32(%rbp),%rax
	movq	-24(%rbp),%r8
	movq	-16(%rbp),%rdx
	movq	-8(%rbp),%rcx
	movq	%rax,%r9
	call	_$dll$sdl2$SDL_UpperBlit
	movl	%eax,-40(%rbp)
.Ll244:
# [3040] end;
	movl	-40(%rbp),%eax
	nop
	leaq	(%rbp),%rsp
	popq	%rbp
	ret
.seh_endproc
.Lc277:
.Lt56:
.Ll245:

.section .text.n_sdl2_$$_sdl_blitscaled$psdl_surface$psdl_rect$psdl_surface$psdl_rect$$longint,"x"
	.balign 16,0x90
.globl	SDL2_$$_SDL_BLITSCALED$PSDL_SURFACE$PSDL_RECT$PSDL_SURFACE$PSDL_RECT$$LONGINT
SDL2_$$_SDL_BLITSCALED$PSDL_SURFACE$PSDL_RECT$PSDL_SURFACE$PSDL_RECT$$LONGINT:
.Lc281:
.seh_proc SDL2_$$_SDL_BLITSCALED$PSDL_SURFACE$PSDL_RECT$PSDL_SURFACE$PSDL_RECT$$LONGINT
.Ll246:
# [3043] begin
	pushq	%rbp
.seh_pushreg %rbp
.Lc283:
.Lc284:
	movq	%rsp,%rbp
.Lc285:
	leaq	-80(%rsp),%rsp
.seh_stackalloc 80
.seh_endprologue
# Var src located at rbp-8, size=OS_64
# Var srcrect located at rbp-16, size=OS_64
# Var dst located at rbp-24, size=OS_64
# Var dstrect located at rbp-32, size=OS_64
# Var $result located at rbp-40, size=OS_S32
	movq	%rcx,-8(%rbp)
	movq	%rdx,-16(%rbp)
	movq	%r8,-24(%rbp)
	movq	%r9,-32(%rbp)
.Ll247:
# [3044] exit(SDL_UpperBlitScaled(src, srcrect, dst, dstrect));
	movq	-32(%rbp),%rax
	movq	-24(%rbp),%r8
	movq	-16(%rbp),%rdx
	movq	-8(%rbp),%rcx
	movq	%rax,%r9
	call	_$dll$sdl2$SDL_UpperBlitScaled
	movl	%eax,-40(%rbp)
.Ll248:
# [3045] end;
	movl	-40(%rbp),%eax
	nop
	leaq	(%rbp),%rsp
	popq	%rbp
	ret
.seh_endproc
.Lc282:
.Lt57:
.Ll249:

.section .text.n_sdl2_$$_sdl_gamecontrolleraddmappingsfromfile$pchar$$longint,"x"
	.balign 16,0x90
.globl	SDL2_$$_SDL_GAMECONTROLLERADDMAPPINGSFROMFILE$PCHAR$$LONGINT
SDL2_$$_SDL_GAMECONTROLLERADDMAPPINGSFROMFILE$PCHAR$$LONGINT:
.Lc286:
.seh_proc SDL2_$$_SDL_GAMECONTROLLERADDMAPPINGSFROMFILE$PCHAR$$LONGINT
.Ll250:
# [3051] begin
	pushq	%rbp
.seh_pushreg %rbp
.Lc288:
.Lc289:
	movq	%rsp,%rbp
.Lc290:
	leaq	-48(%rsp),%rsp
.seh_stackalloc 48
.seh_endprologue
# Var file_ located at rbp-8, size=OS_64
# Var $result located at rbp-16, size=OS_S32
	movq	%rcx,-8(%rbp)
.Ll251:
# [3052] exit(SDL_GameControllerAddMappingsFromRW(SDL_RWFromFile(file_, 'rb'), 1));
	leaq	_$SDL2$_Ld6(%rip),%rax
	movq	%rax,%rdx
	movq	-8(%rbp),%rcx
	call	_$dll$sdl2$SDL_RWFromFile
	movq	%rax,%rcx
	movl	$1,%edx
	call	_$dll$sdl2$SDL_GameControllerAddMappingsFromRW
	movl	%eax,-16(%rbp)
.Ll252:
# [3053] end;
	movl	-16(%rbp),%eax
	nop
	leaq	(%rbp),%rsp
	popq	%rbp
	ret
.seh_endproc
.Lc287:
.Lt58:
.Ll253:

.section .text.n_sdl2_$$_sdl_quitrequested$$boolean,"x"
	.balign 16,0x90
.globl	SDL2_$$_SDL_QUITREQUESTED$$BOOLEAN
SDL2_$$_SDL_QUITREQUESTED$$BOOLEAN:
.Lc291:
.seh_proc SDL2_$$_SDL_QUITREQUESTED$$BOOLEAN
.Ll254:
# [3059] begin
	pushq	%rbp
.seh_pushreg %rbp
.Lc293:
.Lc294:
	movq	%rsp,%rbp
.Lc295:
	leaq	-64(%rsp),%rsp
.seh_stackalloc 64
.seh_endprologue
# Var $result located at rbp-8, size=OS_8
.Ll255:
# [3060] SDL_PumpEvents;
	call	_$dll$sdl2$SDL_PumpEvents
.Ll256:
# [3061] exit(SDL_PeepEvents(NIL, 0, SDL_PEEKEVENT, SDL_QUITEV, SDL_QUITEV) > 0);
	movl	$256,32(%rsp)
	movl	$256,%eax
	movl	$1,%r8d
	movl	$0,%edx
	movq	$0,%rcx
	movl	%eax,%r9d
	call	_$dll$sdl2$SDL_PeepEvents
	cmpl	$0,%eax
	setgb	-8(%rbp)
.Ll257:
# [3062] end;
	movzbl	-8(%rbp),%eax
	nop
	leaq	(%rbp),%rsp
	popq	%rbp
	ret
.seh_endproc
.Lc292:
.Lt59:
.Ll258:

.section .text.n_sdl2_$$_sdl_geteventstate$longword$$byte,"x"
	.balign 16,0x90
.globl	SDL2_$$_SDL_GETEVENTSTATE$LONGWORD$$BYTE
SDL2_$$_SDL_GETEVENTSTATE$LONGWORD$$BYTE:
.Lc296:
.seh_proc SDL2_$$_SDL_GETEVENTSTATE$LONGWORD$$BYTE
.Ll259:
# [3065] begin
	pushq	%rbp
.seh_pushreg %rbp
.Lc298:
.Lc299:
	movq	%rsp,%rbp
.Lc300:
	leaq	-48(%rsp),%rsp
.seh_stackalloc 48
.seh_endprologue
# Var type_ located at rbp-8, size=OS_32
# Var $result located at rbp-16, size=OS_8
	movl	%ecx,-8(%rbp)
.Ll260:
# [3066] exit(SDL_EventState(type_, SDL_QUERY));
	movl	-8(%rbp),%eax
	movl	$-1,%edx
	movl	%eax,%ecx
	call	_$dll$sdl2$SDL_EventState
	movb	%al,-16(%rbp)
.Ll261:
# [3067] end;
	movzbl	-16(%rbp),%eax
	nop
	leaq	(%rbp),%rsp
	popq	%rbp
	ret
.seh_endproc
.Lc297:
.Lt60:
.Ll262:
# End asmlist al_procedures
# Begin asmlist al_typedconsts

.section .rodata.n__$SDL2$_Ld1,"d"
	.balign 8
.globl	_$SDL2$_Ld1
_$SDL2$_Ld1:
	.ascii	"UTF-8\000"

.section .rodata.n__$SDL2$_Ld2,"d"
	.balign 8
.globl	_$SDL2$_Ld2
_$SDL2$_Ld2:
	.ascii	"\000"

.section .rodata.n__$SDL2$_Ld3,"d"
	.balign 8
.globl	_$SDL2$_Ld3
_$SDL2$_Ld3:
	.ascii	"UCS-2-INTERNAL\000"

.section .rodata.n__$SDL2$_Ld4,"d"
	.balign 8
.globl	_$SDL2$_Ld4
_$SDL2$_Ld4:
	.ascii	"UCS-4-INTERNAL\000"

.section .rodata.n__$SDL2$_Ld5,"d"
	.balign 8
.globl	_$SDL2$_Ld5
_$SDL2$_Ld5:
	.ascii	"Parameter '%s' is invalid\000"

.section .rodata.n__$SDL2$_Ld6,"d"
	.balign 8
.globl	_$SDL2$_Ld6
_$SDL2$_Ld6:
	.ascii	"rb\000"

.section .rodata.n__$SDL2$_Ld7,"d"
	.balign 8
.globl	_$SDL2$_Ld7
_$SDL2$_Ld7:
	.ascii	"wb\000"
# End asmlist al_typedconsts
# Begin asmlist al_rotypedconsts

.section .data.n_tc_$sdl2_$$_sdl_byteorder,"d"
	.balign 2
.globl	TC_$SDL2_$$_SDL_BYTEORDER
TC_$SDL2_$$_SDL_BYTEORDER:
	.short	1234
# [487] function SDL_Swap16(const x: Uint16): Uint16; inline;
# End asmlist al_rotypedconsts
# Begin asmlist al_rtti

.section .data.n_RTTI_$SDL2_$$_PUINT64,"d"
	.balign 8
.globl	RTTI_$SDL2_$$_PUINT64
RTTI_$SDL2_$$_PUINT64:
	.byte	29,7
# [3070] 
	.ascii	"PUint64"
	.quad	RTTI_$SYSTEM_$$_QWORD

.section .data.n_RTTI_$SDL2_$$_PSINT8,"d"
	.balign 8
.globl	RTTI_$SDL2_$$_PSINT8
RTTI_$SDL2_$$_PSINT8:
	.byte	29,6
	.ascii	"PSint8"
	.quad	RTTI_$SYSTEM_$$_SHORTINT

.section .data.n_RTTI_$SDL2_$$_PSINT16,"d"
	.balign 8
.globl	RTTI_$SDL2_$$_PSINT16
RTTI_$SDL2_$$_PSINT16:
	.byte	29,7
	.ascii	"PSint16"
	.quad	RTTI_$SYSTEM_$$_SMALLINT

.section .data.n_RTTI_$SDL2_$$_PSINT32,"d"
	.balign 8
.globl	RTTI_$SDL2_$$_PSINT32
RTTI_$SDL2_$$_PSINT32:
	.byte	29,7
	.ascii	"PSint32"
	.quad	RTTI_$SYSTEM_$$_LONGINT

.section .data.n_RTTI_$SDL2_$$_PSINT64,"d"
	.balign 8
.globl	RTTI_$SDL2_$$_PSINT64
RTTI_$SDL2_$$_PSINT64:
	.byte	29,7
	.ascii	"PSint64"
	.quad	RTTI_$SYSTEM_$$_INT64

.section .data.n_RTTI_$SDL2_$$_PSIZE_T,"d"
	.balign 8
.globl	RTTI_$SDL2_$$_PSIZE_T
RTTI_$SDL2_$$_PSIZE_T:
	.byte	29,7
	.ascii	"psize_t"
	.quad	RTTI_$SYSTEM_$$_QWORD

.section .data.n_RTTI_$SDL2_$$_COMPAREFN,"d"
	.balign 8
.globl	RTTI_$SDL2_$$_COMPAREFN
RTTI_$SDL2_$$_COMPAREFN:
	.byte	23,9
	.ascii	"comparefn"
	.byte	0,1
	.quad	RTTI_$SYSTEM_$$_LONGINT
	.byte	2,0
	.quad	RTTI_$SYSTEM_$$_POINTER
	.byte	2
	.ascii	"a1"
	.byte	0
	.quad	RTTI_$SYSTEM_$$_POINTER
	.byte	2
	.ascii	"a2"

.section .data.n_RTTI_$SDL2_$$_TSDL_VERSION,"d"
	.balign 8
.globl	RTTI_$SDL2_$$_TSDL_VERSION
RTTI_$SDL2_$$_TSDL_VERSION:
	.byte	13,12
	.ascii	"TSDL_version"
	.long	3,3
	.quad	RTTI_$SYSTEM_$$_BYTE
	.quad	0
	.quad	RTTI_$SYSTEM_$$_BYTE
	.quad	1
	.quad	RTTI_$SYSTEM_$$_BYTE
	.quad	2

.section .data.n_RTTI_$SDL2_$$_PSDL_VERSION,"d"
	.balign 8
.globl	RTTI_$SDL2_$$_PSDL_VERSION
RTTI_$SDL2_$$_PSDL_VERSION:
	.byte	29,12
	.ascii	"PSDL_version"
	.quad	RTTI_$SDL2_$$_TSDL_VERSION

.section .data.n_INIT_$SDL2_$$_TSDL_VERSION,"d"
	.balign 8
.globl	INIT_$SDL2_$$_TSDL_VERSION
INIT_$SDL2_$$_TSDL_VERSION:
	.byte	13,12
	.ascii	"TSDL_version"
	.long	3,0

.section .data.n_RTTI_$SDL2_$$_TSDL_ERRORCODE,"d"
	.balign 8
.globl	RTTI_$SDL2_$$_TSDL_ERRORCODE
RTTI_$SDL2_$$_TSDL_ERRORCODE:
	.byte	3,14
	.ascii	"TSDL_errorcode"
	.byte	5
	.long	0,5
	.quad	0
	.byte	10
	.ascii	"SDL_ENOMEM"
	.byte	10
	.ascii	"SDL_EFREAD"
	.byte	11
	.ascii	"SDL_EFWRITE"
	.byte	10
	.ascii	"SDL_EFSEEK"
	.byte	16
	.ascii	"SDL_UNSUPPORTED_"
	.byte	13
	.ascii	"SDL_LASTERROR"
	.byte	4
	.ascii	"SDL2"
	.byte	0

.section .data.n_RTTI_$SDL2_$$_TSDL_ERRORCODE_s2o,"d"
	.balign 8
.globl	RTTI_$SDL2_$$_TSDL_ERRORCODE_s2o
RTTI_$SDL2_$$_TSDL_ERRORCODE_s2o:
	.long	6,1
	.quad	RTTI_$SDL2_$$_TSDL_ERRORCODE+44
	.long	3
	.quad	RTTI_$SDL2_$$_TSDL_ERRORCODE+67
	.long	2
	.quad	RTTI_$SDL2_$$_TSDL_ERRORCODE+55
	.long	0
	.quad	RTTI_$SDL2_$$_TSDL_ERRORCODE+33
	.long	5
	.quad	RTTI_$SDL2_$$_TSDL_ERRORCODE+95
	.long	4
	.quad	RTTI_$SDL2_$$_TSDL_ERRORCODE+78

.section .data.n_RTTI_$SDL2_$$_TSDL_ERRORCODE_o2s,"d"
	.balign 8
.globl	RTTI_$SDL2_$$_TSDL_ERRORCODE_o2s
RTTI_$SDL2_$$_TSDL_ERRORCODE_o2s:
	.long	0
	.quad	RTTI_$SDL2_$$_TSDL_ERRORCODE+33
	.quad	RTTI_$SDL2_$$_TSDL_ERRORCODE+44
	.quad	RTTI_$SDL2_$$_TSDL_ERRORCODE+55
	.quad	RTTI_$SDL2_$$_TSDL_ERRORCODE+67
	.quad	RTTI_$SDL2_$$_TSDL_ERRORCODE+78
	.quad	RTTI_$SDL2_$$_TSDL_ERRORCODE+95

.section .data.n_RTTI_$SDL2_$$_TSDL_LOGPRIORITY,"d"
	.balign 8
.globl	RTTI_$SDL2_$$_TSDL_LOGPRIORITY
RTTI_$SDL2_$$_TSDL_LOGPRIORITY:
	.byte	3,16
	.ascii	"TSDL_LogPriority"
	.byte	5
	.long	1,7
	.quad	0
	.byte	24
	.ascii	"SDL_LOG_PRIORITY_VERBOSE"
	.byte	22
	.ascii	"SDL_LOG_PRIORITY_DEBUG"
	.byte	21
	.ascii	"SDL_LOG_PRIORITY_INFO"
	.byte	21
	.ascii	"SDL_LOG_PRIORITY_WARN"
	.byte	22
	.ascii	"SDL_LOG_PRIORITY_ERROR"
	.byte	25
	.ascii	"SDL_LOG_PRIORITY_CRITICAL"
	.byte	22
	.ascii	"SDL_NUM_LOG_PRIORITIES"
	.byte	4
	.ascii	"SDL2"
	.byte	0

.section .data.n_RTTI_$SDL2_$$_TSDL_LOGPRIORITY_s2o,"d"
	.balign 8
.globl	RTTI_$SDL2_$$_TSDL_LOGPRIORITY_s2o
RTTI_$SDL2_$$_TSDL_LOGPRIORITY_s2o:
	.long	7,6
	.quad	RTTI_$SDL2_$$_TSDL_LOGPRIORITY+150
	.long	2
	.quad	RTTI_$SDL2_$$_TSDL_LOGPRIORITY+60
	.long	5
	.quad	RTTI_$SDL2_$$_TSDL_LOGPRIORITY+127
	.long	3
	.quad	RTTI_$SDL2_$$_TSDL_LOGPRIORITY+83
	.long	1
	.quad	RTTI_$SDL2_$$_TSDL_LOGPRIORITY+35
	.long	4
	.quad	RTTI_$SDL2_$$_TSDL_LOGPRIORITY+105
	.long	7
	.quad	RTTI_$SDL2_$$_TSDL_LOGPRIORITY+176

.section .data.n_RTTI_$SDL2_$$_TSDL_LOGPRIORITY_o2s,"d"
	.balign 8
.globl	RTTI_$SDL2_$$_TSDL_LOGPRIORITY_o2s
RTTI_$SDL2_$$_TSDL_LOGPRIORITY_o2s:
	.long	0
	.quad	RTTI_$SDL2_$$_TSDL_LOGPRIORITY+35
	.quad	RTTI_$SDL2_$$_TSDL_LOGPRIORITY+60
	.quad	RTTI_$SDL2_$$_TSDL_LOGPRIORITY+83
	.quad	RTTI_$SDL2_$$_TSDL_LOGPRIORITY+105
	.quad	RTTI_$SDL2_$$_TSDL_LOGPRIORITY+127
	.quad	RTTI_$SDL2_$$_TSDL_LOGPRIORITY+150
	.quad	RTTI_$SDL2_$$_TSDL_LOGPRIORITY+176

.section .data.n_RTTI_$SDL2_$$_TSDL_LOGOUTPUTFUNCTION,"d"
	.balign 8
.globl	RTTI_$SDL2_$$_TSDL_LOGOUTPUTFUNCTION
RTTI_$SDL2_$$_TSDL_LOGOUTPUTFUNCTION:
	.byte	23,22
	.ascii	"TSDL_LogOutputFunction"
	.byte	0,1
	.quad	0
	.byte	4,0
	.quad	RTTI_$SYSTEM_$$_POINTER
	.byte	8
	.ascii	"userdata"
	.byte	0
	.quad	RTTI_$SYSTEM_$$_LONGINT
	.byte	8
	.ascii	"category"
	.byte	0
	.quad	RTTI_$SDL2_$$_TSDL_LOGPRIORITY
	.byte	8
	.ascii	"priority"
	.byte	2
	.quad	RTTI_$SYSTEM_$$_PCHAR
	.byte	7
	.ascii	"message"

.section .data.n_RTTI_$SDL2_$$_PSDL_LOGOUTPUTFUNCTION,"d"
	.balign 8
.globl	RTTI_$SDL2_$$_PSDL_LOGOUTPUTFUNCTION
RTTI_$SDL2_$$_PSDL_LOGOUTPUTFUNCTION:
	.byte	29,22
	.ascii	"PSDL_LogOutputFunction"
	.quad	RTTI_$SDL2_$$_TSDL_LOGOUTPUTFUNCTION

.section .data.n_RTTI_$SDL2_$$_TSDL_HINTPRIORITY,"d"
	.balign 8
.globl	RTTI_$SDL2_$$_TSDL_HINTPRIORITY
RTTI_$SDL2_$$_TSDL_HINTPRIORITY:
	.byte	3,17
	.ascii	"TSDL_HintPriority"
	.byte	5
	.long	0,2
	.quad	0
	.byte	16
	.ascii	"SDL_HINT_DEFAULT"
	.byte	15
	.ascii	"SDL_HINT_NORMAL"
	.byte	17
	.ascii	"SDL_HINT_OVERRIDE"
	.byte	4
	.ascii	"SDL2"
	.byte	0

.section .data.n_RTTI_$SDL2_$$_TSDL_HINTPRIORITY_s2o,"d"
	.balign 8
.globl	RTTI_$SDL2_$$_TSDL_HINTPRIORITY_s2o
RTTI_$SDL2_$$_TSDL_HINTPRIORITY_s2o:
	.long	3,0
	.quad	RTTI_$SDL2_$$_TSDL_HINTPRIORITY+36
	.long	1
	.quad	RTTI_$SDL2_$$_TSDL_HINTPRIORITY+53
	.long	2
	.quad	RTTI_$SDL2_$$_TSDL_HINTPRIORITY+69

.section .data.n_RTTI_$SDL2_$$_TSDL_HINTPRIORITY_o2s,"d"
	.balign 8
.globl	RTTI_$SDL2_$$_TSDL_HINTPRIORITY_o2s
RTTI_$SDL2_$$_TSDL_HINTPRIORITY_o2s:
	.long	0
	.quad	RTTI_$SDL2_$$_TSDL_HINTPRIORITY+36
	.quad	RTTI_$SDL2_$$_TSDL_HINTPRIORITY+53
	.quad	RTTI_$SDL2_$$_TSDL_HINTPRIORITY+69

.section .data.n_RTTI_$SDL2_$$_TSDL_HINTCALLBACK,"d"
	.balign 8
.globl	RTTI_$SDL2_$$_TSDL_HINTCALLBACK
RTTI_$SDL2_$$_TSDL_HINTCALLBACK:
	.byte	23,17
	.ascii	"TSDL_HintCallback"
	.byte	0,1
	.quad	0
	.byte	4,0
	.quad	RTTI_$SYSTEM_$$_POINTER
	.byte	8
	.ascii	"userdata"
	.byte	0
	.quad	RTTI_$SYSTEM_$$_PCHAR
	.byte	4
	.ascii	"name"
	.byte	0
	.quad	RTTI_$SYSTEM_$$_PCHAR
	.byte	8
	.ascii	"oldValue"
	.byte	0
	.quad	RTTI_$SYSTEM_$$_PCHAR
	.byte	8
	.ascii	"newValue"

.section .data.n_RTTI_$SDL2_$$_TSDL_POWERSTATE,"d"
	.balign 8
.globl	RTTI_$SDL2_$$_TSDL_POWERSTATE
RTTI_$SDL2_$$_TSDL_POWERSTATE:
	.byte	3,15
	.ascii	"TSDL_PowerState"
	.byte	5
	.long	0,4
	.quad	0
	.byte	22
	.ascii	"SDL_POWERSTATE_UNKNOWN"
	.byte	25
	.ascii	"SDL_POWERSTATE_ON_BATTERY"
	.byte	25
	.ascii	"SDL_POWERSTATE_NO_BATTERY"
	.byte	23
	.ascii	"SDL_POWERSTATE_CHARGING"
	.byte	22
	.ascii	"SDL_POWERSTATE_CHARGED"
	.byte	4
	.ascii	"SDL2"
	.byte	0

.section .data.n_RTTI_$SDL2_$$_TSDL_POWERSTATE_s2o,"d"
	.balign 8
.globl	RTTI_$SDL2_$$_TSDL_POWERSTATE_s2o
RTTI_$SDL2_$$_TSDL_POWERSTATE_s2o:
	.long	5,4
	.quad	RTTI_$SDL2_$$_TSDL_POWERSTATE+133
	.long	3
	.quad	RTTI_$SDL2_$$_TSDL_POWERSTATE+109
	.long	2
	.quad	RTTI_$SDL2_$$_TSDL_POWERSTATE+83
	.long	1
	.quad	RTTI_$SDL2_$$_TSDL_POWERSTATE+57
	.long	0
	.quad	RTTI_$SDL2_$$_TSDL_POWERSTATE+34

.section .data.n_RTTI_$SDL2_$$_TSDL_POWERSTATE_o2s,"d"
	.balign 8
.globl	RTTI_$SDL2_$$_TSDL_POWERSTATE_o2s
RTTI_$SDL2_$$_TSDL_POWERSTATE_o2s:
	.long	0
	.quad	RTTI_$SDL2_$$_TSDL_POWERSTATE+34
	.quad	RTTI_$SDL2_$$_TSDL_POWERSTATE+57
	.quad	RTTI_$SDL2_$$_TSDL_POWERSTATE+83
	.quad	RTTI_$SDL2_$$_TSDL_POWERSTATE+109
	.quad	RTTI_$SDL2_$$_TSDL_POWERSTATE+133

.section .data.n_RTTI_$SDL2_$$_TSDL_TIMERCALLBACK,"d"
	.balign 8
.globl	RTTI_$SDL2_$$_TSDL_TIMERCALLBACK
RTTI_$SDL2_$$_TSDL_TIMERCALLBACK:
	.byte	23,18
	.ascii	"TSDL_TimerCallback"
	.byte	0,0
	.quad	RTTI_$SYSTEM_$$_LONGWORD
	.byte	2,0
	.quad	RTTI_$SYSTEM_$$_LONGWORD
	.byte	8
	.ascii	"interval"
	.byte	0
	.quad	RTTI_$SYSTEM_$$_POINTER
	.byte	5
	.ascii	"param"

.section .data.n_RTTI_$SDL2_$$_TSDL_THREADPRIORITY,"d"
	.balign 8
.globl	RTTI_$SDL2_$$_TSDL_THREADPRIORITY
RTTI_$SDL2_$$_TSDL_THREADPRIORITY:
	.byte	3,19
	.ascii	"TSDL_ThreadPriority"
	.byte	5
	.long	0,2
	.quad	0
	.byte	23
	.ascii	"SDL_THREAD_PRIORITY_LOW"
	.byte	26
	.ascii	"SDL_THREAD_PRIORITY_NORMAL"
	.byte	24
	.ascii	"SDL_THREAD_PRIORITY_HIGH"
	.byte	4
	.ascii	"SDL2"
	.byte	0

.section .data.n_RTTI_$SDL2_$$_TSDL_THREADPRIORITY_s2o,"d"
	.balign 8
.globl	RTTI_$SDL2_$$_TSDL_THREADPRIORITY_s2o
RTTI_$SDL2_$$_TSDL_THREADPRIORITY_s2o:
	.long	3,2
	.quad	RTTI_$SDL2_$$_TSDL_THREADPRIORITY+89
	.long	0
	.quad	RTTI_$SDL2_$$_TSDL_THREADPRIORITY+38
	.long	1
	.quad	RTTI_$SDL2_$$_TSDL_THREADPRIORITY+62

.section .data.n_RTTI_$SDL2_$$_TSDL_THREADPRIORITY_o2s,"d"
	.balign 8
.globl	RTTI_$SDL2_$$_TSDL_THREADPRIORITY_o2s
RTTI_$SDL2_$$_TSDL_THREADPRIORITY_o2s:
	.long	0
	.quad	RTTI_$SDL2_$$_TSDL_THREADPRIORITY+38
	.quad	RTTI_$SDL2_$$_TSDL_THREADPRIORITY+62
	.quad	RTTI_$SDL2_$$_TSDL_THREADPRIORITY+89

.section .data.n_RTTI_$SDL2_$$_TSDL_THREADFUNCTION,"d"
	.balign 8
.globl	RTTI_$SDL2_$$_TSDL_THREADFUNCTION
RTTI_$SDL2_$$_TSDL_THREADFUNCTION:
	.byte	23,19
	.ascii	"TSDL_ThreadFunction"
	.byte	0,1
	.quad	RTTI_$SYSTEM_$$_LONGINT
	.byte	1,0
	.quad	RTTI_$SYSTEM_$$_POINTER
	.byte	4
	.ascii	"data"

.section .data.n_RTTI_$SDL2_$$_DEF399,"d"
	.balign 8
.globl	RTTI_$SDL2_$$_DEF399
RTTI_$SDL2_$$_DEF399:
	.byte	23
	.ascii	"\000"
	.byte	0,1
	.quad	RTTI_$SYSTEM_$$_INT64
	.byte	1,0
	.quad	RTTI_$SDL2_$$_PSDL_RWOPS
	.byte	7
	.ascii	"context"

.section .data.n_RTTI_$SDL2_$$_DEF400,"d"
	.balign 8
.globl	RTTI_$SDL2_$$_DEF400
RTTI_$SDL2_$$_DEF400:
	.byte	23
	.ascii	"\000"
	.byte	0,1
	.quad	RTTI_$SYSTEM_$$_INT64
	.byte	3,0
	.quad	RTTI_$SDL2_$$_PSDL_RWOPS
	.byte	7
	.ascii	"context"
	.byte	0
	.quad	RTTI_$SYSTEM_$$_INT64
	.byte	6
	.ascii	"offset"
	.byte	0
	.quad	RTTI_$SYSTEM_$$_LONGINT
	.byte	6
	.ascii	"whence"

.section .data.n_RTTI_$SDL2_$$_DEF401,"d"
	.balign 8
.globl	RTTI_$SDL2_$$_DEF401
RTTI_$SDL2_$$_DEF401:
	.byte	23
	.ascii	"\000"
	.byte	0,1
	.quad	RTTI_$SYSTEM_$$_QWORD
	.byte	4,0
	.quad	RTTI_$SDL2_$$_PSDL_RWOPS
	.byte	7
	.ascii	"context"
	.byte	0
	.quad	RTTI_$SYSTEM_$$_POINTER
	.byte	3
	.ascii	"ptr"
	.byte	0
	.quad	RTTI_$SYSTEM_$$_QWORD
	.byte	4
	.ascii	"size"
	.byte	0
	.quad	RTTI_$SYSTEM_$$_QWORD
	.byte	6
	.ascii	"maxnum"

.section .data.n_RTTI_$SDL2_$$_DEF402,"d"
	.balign 8
.globl	RTTI_$SDL2_$$_DEF402
RTTI_$SDL2_$$_DEF402:
	.byte	23
	.ascii	"\000"
	.byte	0,1
	.quad	RTTI_$SYSTEM_$$_QWORD
	.byte	4,0
	.quad	RTTI_$SDL2_$$_PSDL_RWOPS
	.byte	7
	.ascii	"context"
	.byte	2
	.quad	RTTI_$SYSTEM_$$_POINTER
	.byte	3
	.ascii	"ptr"
	.byte	0
	.quad	RTTI_$SYSTEM_$$_QWORD
	.byte	4
	.ascii	"size"
	.byte	0
	.quad	RTTI_$SYSTEM_$$_QWORD
	.byte	3
	.ascii	"num"

.section .data.n_RTTI_$SDL2_$$_DEF403,"d"
	.balign 8
.globl	RTTI_$SDL2_$$_DEF403
RTTI_$SDL2_$$_DEF403:
	.byte	23
	.ascii	"\000"
	.byte	0,1
	.quad	RTTI_$SYSTEM_$$_LONGINT
	.byte	1,0
	.quad	RTTI_$SDL2_$$_PSDL_RWOPS
	.byte	7
	.ascii	"context"

.section .data.n_RTTI_$SDL2_$$_DEF407,"d"
	.balign 8
.globl	RTTI_$SDL2_$$_DEF407
RTTI_$SDL2_$$_DEF407:
	.byte	13
	.ascii	"\000"
	.long	24,3
	.quad	RTTI_$SYSTEM_$$_POINTER
	.quad	0
	.quad	RTTI_$SYSTEM_$$_QWORD
	.quad	8
	.quad	RTTI_$SYSTEM_$$_QWORD
	.quad	16

.section .data.n_RTTI_$SDL2_$$_DEF406,"d"
	.balign 8
.globl	RTTI_$SDL2_$$_DEF406
RTTI_$SDL2_$$_DEF406:
	.byte	13
	.ascii	"\000"
	.long	40,3
	.quad	RTTI_$SYSTEM_$$_LONGBOOL
	.quad	0
	.quad	RTTI_$SYSTEM_$$_POINTER
	.quad	8
	.quad	RTTI_$SDL2_$$_DEF407
	.quad	16

.section .data.n_RTTI_$SDL2_$$_DEF408,"d"
	.balign 8
.globl	RTTI_$SDL2_$$_DEF408
RTTI_$SDL2_$$_DEF408:
	.byte	13
	.ascii	"\000"
	.long	24,3
	.quad	RTTI_$SYSTEM_$$_PBYTE
	.quad	0
	.quad	RTTI_$SYSTEM_$$_PBYTE
	.quad	8
	.quad	RTTI_$SYSTEM_$$_PBYTE
	.quad	16

.section .data.n_RTTI_$SDL2_$$_DEF409,"d"
	.balign 8
.globl	RTTI_$SDL2_$$_DEF409
RTTI_$SDL2_$$_DEF409:
	.byte	13
	.ascii	"\000"
	.long	16,2
	.quad	RTTI_$SYSTEM_$$_POINTER
	.quad	0
	.quad	RTTI_$SYSTEM_$$_POINTER
	.quad	8

.section .data.n_RTTI_$SDL2_$$_DEF404,"d"
	.balign 8
.globl	RTTI_$SDL2_$$_DEF404
RTTI_$SDL2_$$_DEF404:
	.byte	13
	.ascii	"\000"
	.long	40,3
	.quad	RTTI_$SDL2_$$_DEF406
	.quad	0
	.quad	RTTI_$SDL2_$$_DEF408
	.quad	0
	.quad	RTTI_$SDL2_$$_DEF409
	.quad	0

.section .data.n_RTTI_$SDL2_$$_TSDL_RWOPS,"d"
	.balign 8
.globl	RTTI_$SDL2_$$_TSDL_RWOPS
RTTI_$SDL2_$$_TSDL_RWOPS:
	.byte	13,10
	.ascii	"TSDL_RWops"
	.long	88,7
	.quad	RTTI_$SDL2_$$_DEF399
	.quad	0
	.quad	RTTI_$SDL2_$$_DEF400
	.quad	8
	.quad	RTTI_$SDL2_$$_DEF401
	.quad	16
	.quad	RTTI_$SDL2_$$_DEF402
	.quad	24
	.quad	RTTI_$SDL2_$$_DEF403
	.quad	32
	.quad	RTTI_$SYSTEM_$$_LONGWORD
	.quad	40
	.quad	RTTI_$SDL2_$$_DEF404
	.quad	48

.section .data.n_RTTI_$SDL2_$$_PSDL_RWOPS,"d"
	.balign 8
.globl	RTTI_$SDL2_$$_PSDL_RWOPS
RTTI_$SDL2_$$_PSDL_RWOPS:
	.byte	29,10
	.ascii	"PSDL_RWops"
	.quad	RTTI_$SDL2_$$_TSDL_RWOPS

.section .data.n_INIT_$SDL2_$$_TSDL_RWOPS,"d"
	.balign 8
.globl	INIT_$SDL2_$$_TSDL_RWOPS
INIT_$SDL2_$$_TSDL_RWOPS:
	.byte	13,10
	.ascii	"TSDL_RWops"
	.long	88,0

.section .data.n_RTTI_$SDL2_$$_TSDL_AUDIOCALLBACK,"d"
	.balign 8
.globl	RTTI_$SDL2_$$_TSDL_AUDIOCALLBACK
RTTI_$SDL2_$$_TSDL_AUDIOCALLBACK:
	.byte	23,18
	.ascii	"TSDL_AudioCallback"
	.byte	0,1
	.quad	0
	.byte	3,0
	.quad	RTTI_$SYSTEM_$$_POINTER
	.byte	8
	.ascii	"userdata"
	.byte	0
	.quad	RTTI_$SYSTEM_$$_PBYTE
	.byte	6
	.ascii	"stream"
	.byte	0
	.quad	RTTI_$SYSTEM_$$_LONGINT
	.byte	3
	.ascii	"len"

.section .data.n_RTTI_$SDL2_$$_TSDL_AUDIOSPEC,"d"
	.balign 8
.globl	RTTI_$SDL2_$$_TSDL_AUDIOSPEC
RTTI_$SDL2_$$_TSDL_AUDIOSPEC:
	.byte	13,14
	.ascii	"TSDL_AudioSpec"
	.long	32,9
	.quad	RTTI_$SYSTEM_$$_LONGINT
	.quad	0
	.quad	RTTI_$SYSTEM_$$_WORD
	.quad	4
	.quad	RTTI_$SYSTEM_$$_BYTE
	.quad	6
	.quad	RTTI_$SYSTEM_$$_BYTE
	.quad	7
	.quad	RTTI_$SYSTEM_$$_WORD
	.quad	8
	.quad	RTTI_$SYSTEM_$$_WORD
	.quad	10
	.quad	RTTI_$SYSTEM_$$_LONGWORD
	.quad	12
	.quad	RTTI_$SDL2_$$_TSDL_AUDIOCALLBACK
	.quad	16
	.quad	RTTI_$SYSTEM_$$_POINTER
	.quad	24

.section .data.n_RTTI_$SDL2_$$_PSDL_AUDIOSPEC,"d"
	.balign 8
.globl	RTTI_$SDL2_$$_PSDL_AUDIOSPEC
RTTI_$SDL2_$$_PSDL_AUDIOSPEC:
	.byte	29,14
	.ascii	"PSDL_AudioSpec"
	.quad	RTTI_$SDL2_$$_TSDL_AUDIOSPEC

.section .data.n_INIT_$SDL2_$$_TSDL_AUDIOSPEC,"d"
	.balign 8
.globl	INIT_$SDL2_$$_TSDL_AUDIOSPEC
INIT_$SDL2_$$_TSDL_AUDIOSPEC:
	.byte	13,14
	.ascii	"TSDL_AudioSpec"
	.long	32,0

.section .data.n_RTTI_$SDL2_$$_TSDL_AUDIOFILTER,"d"
	.balign 8
.globl	RTTI_$SDL2_$$_TSDL_AUDIOFILTER
RTTI_$SDL2_$$_TSDL_AUDIOFILTER:
	.byte	23,16
	.ascii	"TSDL_AudioFilter"
	.byte	0,1
	.quad	0
	.byte	2,0
	.quad	RTTI_$SDL2_$$_PSDL_AUDIOCVT
	.byte	3
	.ascii	"cvt"
	.byte	0
	.quad	RTTI_$SYSTEM_$$_WORD
	.byte	6
	.ascii	"format"

.section .data.n_RTTI_$SDL2_$$_DEF462,"d"
	.balign 8
.globl	RTTI_$SDL2_$$_DEF462
RTTI_$SDL2_$$_DEF462:
	.byte	12
	.ascii	"\000"
	.quad	80,10
	.quad	RTTI_$SDL2_$$_TSDL_AUDIOFILTER
	.byte	1
	.quad	RTTI_$SYSTEM_$$_SHORTINT

.section .data.n_RTTI_$SDL2_$$_TSDL_AUDIOCVT,"d"
	.balign 8
.globl	RTTI_$SDL2_$$_TSDL_AUDIOCVT
RTTI_$SDL2_$$_TSDL_AUDIOCVT:
	.byte	13,13
	.ascii	"TSDL_AudioCVT"
	.long	136,11
	.quad	RTTI_$SYSTEM_$$_LONGINT
	.quad	0
	.quad	RTTI_$SYSTEM_$$_WORD
	.quad	4
	.quad	RTTI_$SYSTEM_$$_WORD
	.quad	6
	.quad	RTTI_$SYSTEM_$$_DOUBLE
	.quad	8
	.quad	RTTI_$SYSTEM_$$_PBYTE
	.quad	16
	.quad	RTTI_$SYSTEM_$$_LONGINT
	.quad	24
	.quad	RTTI_$SYSTEM_$$_LONGINT
	.quad	28
	.quad	RTTI_$SYSTEM_$$_LONGINT
	.quad	32
	.quad	RTTI_$SYSTEM_$$_DOUBLE
	.quad	40
	.quad	RTTI_$SDL2_$$_DEF462
	.quad	48
	.quad	RTTI_$SYSTEM_$$_LONGINT
	.quad	128

.section .data.n_RTTI_$SDL2_$$_PSDL_AUDIOCVT,"d"
	.balign 8
.globl	RTTI_$SDL2_$$_PSDL_AUDIOCVT
RTTI_$SDL2_$$_PSDL_AUDIOCVT:
	.byte	29,13
	.ascii	"PSDL_AudioCVT"
	.quad	RTTI_$SDL2_$$_TSDL_AUDIOCVT

.section .data.n_INIT_$SDL2_$$_TSDL_AUDIOCVT,"d"
	.balign 8
.globl	INIT_$SDL2_$$_TSDL_AUDIOCVT
INIT_$SDL2_$$_TSDL_AUDIOCVT:
	.byte	13,13
	.ascii	"TSDL_AudioCVT"
	.long	136,0

.section .data.n_RTTI_$SDL2_$$_TSDL_AUDIOSTATUS,"d"
	.balign 8
.globl	RTTI_$SDL2_$$_TSDL_AUDIOSTATUS
RTTI_$SDL2_$$_TSDL_AUDIOSTATUS:
	.byte	3,16
	.ascii	"TSDL_AudioStatus"
	.byte	5
	.long	0,2
	.quad	0
	.byte	17
	.ascii	"SDL_AUDIO_STOPPED"
	.byte	17
	.ascii	"SDL_AUDIO_PLAYING"
	.byte	16
	.ascii	"SDL_AUDIO_PAUSED"
	.byte	4
	.ascii	"SDL2"
	.byte	0

.section .data.n_RTTI_$SDL2_$$_TSDL_AUDIOSTATUS_s2o,"d"
	.balign 8
.globl	RTTI_$SDL2_$$_TSDL_AUDIOSTATUS_s2o
RTTI_$SDL2_$$_TSDL_AUDIOSTATUS_s2o:
	.long	3,2
	.quad	RTTI_$SDL2_$$_TSDL_AUDIOSTATUS+71
	.long	1
	.quad	RTTI_$SDL2_$$_TSDL_AUDIOSTATUS+53
	.long	0
	.quad	RTTI_$SDL2_$$_TSDL_AUDIOSTATUS+35

.section .data.n_RTTI_$SDL2_$$_TSDL_AUDIOSTATUS_o2s,"d"
	.balign 8
.globl	RTTI_$SDL2_$$_TSDL_AUDIOSTATUS_o2s
RTTI_$SDL2_$$_TSDL_AUDIOSTATUS_o2s:
	.long	0
	.quad	RTTI_$SDL2_$$_TSDL_AUDIOSTATUS+35
	.quad	RTTI_$SDL2_$$_TSDL_AUDIOSTATUS+53
	.quad	RTTI_$SDL2_$$_TSDL_AUDIOSTATUS+71

.section .data.n_RTTI_$SDL2_$$_TSDL_COLOR,"d"
	.balign 8
.globl	RTTI_$SDL2_$$_TSDL_COLOR
RTTI_$SDL2_$$_TSDL_COLOR:
	.byte	13,10
	.ascii	"TSDL_Color"
	.long	4,4
	.quad	RTTI_$SYSTEM_$$_BYTE
	.quad	0
	.quad	RTTI_$SYSTEM_$$_BYTE
	.quad	1
	.quad	RTTI_$SYSTEM_$$_BYTE
	.quad	2
	.quad	RTTI_$SYSTEM_$$_BYTE
	.quad	3

.section .data.n_RTTI_$SDL2_$$_PSDL_COLOR,"d"
	.balign 8
.globl	RTTI_$SDL2_$$_PSDL_COLOR
RTTI_$SDL2_$$_PSDL_COLOR:
	.byte	29,10
	.ascii	"PSDL_Color"
	.quad	RTTI_$SDL2_$$_TSDL_COLOR

.section .data.n_INIT_$SDL2_$$_TSDL_COLOR,"d"
	.balign 8
.globl	INIT_$SDL2_$$_TSDL_COLOR
INIT_$SDL2_$$_TSDL_COLOR:
	.byte	13,10
	.ascii	"TSDL_Color"
	.long	4,0

.section .data.n_RTTI_$SDL2_$$_PSDL_COLOUR,"d"
	.balign 8
.globl	RTTI_$SDL2_$$_PSDL_COLOUR
RTTI_$SDL2_$$_PSDL_COLOUR:
	.byte	29,11
	.ascii	"PSDL_Colour"
	.quad	RTTI_$SDL2_$$_TSDL_COLOR

.section .data.n_RTTI_$SDL2_$$_TSDL_PALETTE,"d"
	.balign 8
.globl	RTTI_$SDL2_$$_TSDL_PALETTE
RTTI_$SDL2_$$_TSDL_PALETTE:
	.byte	13,12
	.ascii	"TSDL_Palette"
	.long	24,4
	.quad	RTTI_$SYSTEM_$$_LONGINT
	.quad	0
	.quad	RTTI_$SDL2_$$_PSDL_COLOR
	.quad	8
	.quad	RTTI_$SYSTEM_$$_LONGWORD
	.quad	16
	.quad	RTTI_$SYSTEM_$$_LONGINT
	.quad	20

.section .data.n_RTTI_$SDL2_$$_PSDL_PALETTE,"d"
	.balign 8
.globl	RTTI_$SDL2_$$_PSDL_PALETTE
RTTI_$SDL2_$$_PSDL_PALETTE:
	.byte	29,12
	.ascii	"PSDL_Palette"
	.quad	RTTI_$SDL2_$$_TSDL_PALETTE

.section .data.n_INIT_$SDL2_$$_TSDL_PALETTE,"d"
	.balign 8
.globl	INIT_$SDL2_$$_TSDL_PALETTE
INIT_$SDL2_$$_TSDL_PALETTE:
	.byte	13,12
	.ascii	"TSDL_Palette"
	.long	24,0

.section .data.n_RTTI_$SDL2_$$_DEF529,"d"
	.balign 8
.globl	RTTI_$SDL2_$$_DEF529
RTTI_$SDL2_$$_DEF529:
	.byte	12
	.ascii	"\000"
	.quad	2,2
	.quad	RTTI_$SYSTEM_$$_BYTE
	.byte	1
	.quad	RTTI_$SYSTEM_$$_SHORTINT

.section .data.n_RTTI_$SDL2_$$_TSDL_PIXELFORMAT,"d"
	.balign 8
.globl	RTTI_$SDL2_$$_TSDL_PIXELFORMAT
RTTI_$SDL2_$$_TSDL_PIXELFORMAT:
	.byte	13,16
	.ascii	"TSDL_PixelFormat"
	.long	56,19
	.quad	RTTI_$SYSTEM_$$_LONGWORD
	.quad	0
	.quad	RTTI_$SDL2_$$_PSDL_PALETTE
	.quad	8
	.quad	RTTI_$SYSTEM_$$_BYTE
	.quad	16
	.quad	RTTI_$SYSTEM_$$_BYTE
	.quad	17
	.quad	RTTI_$SDL2_$$_DEF529
	.quad	18
	.quad	RTTI_$SYSTEM_$$_LONGWORD
	.quad	20
	.quad	RTTI_$SYSTEM_$$_LONGWORD
	.quad	24
	.quad	RTTI_$SYSTEM_$$_LONGWORD
	.quad	28
	.quad	RTTI_$SYSTEM_$$_LONGWORD
	.quad	32
	.quad	RTTI_$SYSTEM_$$_BYTE
	.quad	36
	.quad	RTTI_$SYSTEM_$$_BYTE
	.quad	37
	.quad	RTTI_$SYSTEM_$$_BYTE
	.quad	38
	.quad	RTTI_$SYSTEM_$$_BYTE
	.quad	39
	.quad	RTTI_$SYSTEM_$$_BYTE
	.quad	40
	.quad	RTTI_$SYSTEM_$$_BYTE
	.quad	41
	.quad	RTTI_$SYSTEM_$$_BYTE
	.quad	42
	.quad	RTTI_$SYSTEM_$$_BYTE
	.quad	43
	.quad	RTTI_$SYSTEM_$$_LONGINT
	.quad	44
	.quad	RTTI_$SDL2_$$_PSDL_PIXELFORMAT
	.quad	48

.section .data.n_RTTI_$SDL2_$$_PSDL_PIXELFORMAT,"d"
	.balign 8
.globl	RTTI_$SDL2_$$_PSDL_PIXELFORMAT
RTTI_$SDL2_$$_PSDL_PIXELFORMAT:
	.byte	29,16
	.ascii	"PSDL_PixelFormat"
	.quad	RTTI_$SDL2_$$_TSDL_PIXELFORMAT

.section .data.n_INIT_$SDL2_$$_TSDL_PIXELFORMAT,"d"
	.balign 8
.globl	INIT_$SDL2_$$_TSDL_PIXELFORMAT
INIT_$SDL2_$$_TSDL_PIXELFORMAT:
	.byte	13,16
	.ascii	"TSDL_PixelFormat"
	.long	56,0

.section .data.n_RTTI_$SDL2_$$_TSDL_POINT,"d"
	.balign 8
.globl	RTTI_$SDL2_$$_TSDL_POINT
RTTI_$SDL2_$$_TSDL_POINT:
	.byte	13,10
	.ascii	"TSDL_Point"
	.long	8,2
	.quad	RTTI_$SYSTEM_$$_LONGINT
	.quad	0
	.quad	RTTI_$SYSTEM_$$_LONGINT
	.quad	4

.section .data.n_RTTI_$SDL2_$$_PSDL_POINT,"d"
	.balign 8
.globl	RTTI_$SDL2_$$_PSDL_POINT
RTTI_$SDL2_$$_PSDL_POINT:
	.byte	29,10
	.ascii	"PSDL_Point"
	.quad	RTTI_$SDL2_$$_TSDL_POINT

.section .data.n_INIT_$SDL2_$$_TSDL_POINT,"d"
	.balign 8
.globl	INIT_$SDL2_$$_TSDL_POINT
INIT_$SDL2_$$_TSDL_POINT:
	.byte	13,10
	.ascii	"TSDL_Point"
	.long	8,0

.section .data.n_RTTI_$SDL2_$$_TSDL_RECT,"d"
	.balign 8
.globl	RTTI_$SDL2_$$_TSDL_RECT
RTTI_$SDL2_$$_TSDL_RECT:
	.byte	13,9
	.ascii	"TSDL_Rect"
	.long	16,4
	.quad	RTTI_$SYSTEM_$$_LONGINT
	.quad	0
	.quad	RTTI_$SYSTEM_$$_LONGINT
	.quad	4
	.quad	RTTI_$SYSTEM_$$_LONGINT
	.quad	8
	.quad	RTTI_$SYSTEM_$$_LONGINT
	.quad	12

.section .data.n_RTTI_$SDL2_$$_PSDL_RECT,"d"
	.balign 8
.globl	RTTI_$SDL2_$$_PSDL_RECT
RTTI_$SDL2_$$_PSDL_RECT:
	.byte	29,9
	.ascii	"PSDL_Rect"
	.quad	RTTI_$SDL2_$$_TSDL_RECT

.section .data.n_INIT_$SDL2_$$_TSDL_RECT,"d"
	.balign 8
.globl	INIT_$SDL2_$$_TSDL_RECT
INIT_$SDL2_$$_TSDL_RECT:
	.byte	13,9
	.ascii	"TSDL_Rect"
	.long	16,0

.section .data.n_RTTI_$SDL2_$$_TSDL_SURFACE,"d"
	.balign 8
.globl	RTTI_$SDL2_$$_TSDL_SURFACE
RTTI_$SDL2_$$_TSDL_SURFACE:
	.byte	13,12
	.ascii	"TSDL_Surface"
	.long	96,12
	.quad	RTTI_$SYSTEM_$$_LONGWORD
	.quad	0
	.quad	RTTI_$SDL2_$$_PSDL_PIXELFORMAT
	.quad	8
	.quad	RTTI_$SYSTEM_$$_LONGINT
	.quad	16
	.quad	RTTI_$SYSTEM_$$_LONGINT
	.quad	20
	.quad	RTTI_$SYSTEM_$$_LONGINT
	.quad	24
	.quad	RTTI_$SYSTEM_$$_POINTER
	.quad	32
	.quad	RTTI_$SYSTEM_$$_POINTER
	.quad	40
	.quad	RTTI_$SYSTEM_$$_LONGINT
	.quad	48
	.quad	RTTI_$SYSTEM_$$_POINTER
	.quad	56
	.quad	RTTI_$SDL2_$$_TSDL_RECT
	.quad	64
	.quad	RTTI_$SYSTEM_$$_POINTER
	.quad	80
	.quad	RTTI_$SYSTEM_$$_LONGINT
	.quad	88

.section .data.n_RTTI_$SDL2_$$_PSDL_SURFACE,"d"
	.balign 8
.globl	RTTI_$SDL2_$$_PSDL_SURFACE
RTTI_$SDL2_$$_PSDL_SURFACE:
	.byte	29,12
	.ascii	"PSDL_Surface"
	.quad	RTTI_$SDL2_$$_TSDL_SURFACE

.section .data.n_INIT_$SDL2_$$_TSDL_SURFACE,"d"
	.balign 8
.globl	INIT_$SDL2_$$_TSDL_SURFACE
INIT_$SDL2_$$_TSDL_SURFACE:
	.byte	13,12
	.ascii	"TSDL_Surface"
	.long	96,0

.section .data.n_RTTI_$SDL2_$$_TSDL_BLIT,"d"
	.balign 8
.globl	RTTI_$SDL2_$$_TSDL_BLIT
RTTI_$SDL2_$$_TSDL_BLIT:
	.byte	23,9
	.ascii	"TSDL_Blit"
	.byte	0,0
	.quad	RTTI_$SYSTEM_$$_LONGINT
	.byte	4,0
	.quad	RTTI_$SDL2_$$_PSDL_SURFACE
	.byte	3
	.ascii	"src"
	.byte	0
	.quad	RTTI_$SDL2_$$_PSDL_RECT
	.byte	7
	.ascii	"srcrect"
	.byte	0
	.quad	RTTI_$SDL2_$$_PSDL_SURFACE
	.byte	3
	.ascii	"dst"
	.byte	0
	.quad	RTTI_$SDL2_$$_PSDL_RECT
	.byte	7
	.ascii	"dstrect"

.section .data.n_RTTI_$SDL2_$$_TSDL_DISPLAYMODE,"d"
	.balign 8
.globl	RTTI_$SDL2_$$_TSDL_DISPLAYMODE
RTTI_$SDL2_$$_TSDL_DISPLAYMODE:
	.byte	13,16
	.ascii	"TSDL_DisplayMode"
	.long	24,5
	.quad	RTTI_$SYSTEM_$$_LONGWORD
	.quad	0
	.quad	RTTI_$SYSTEM_$$_LONGINT
	.quad	4
	.quad	RTTI_$SYSTEM_$$_LONGINT
	.quad	8
	.quad	RTTI_$SYSTEM_$$_LONGINT
	.quad	12
	.quad	RTTI_$SYSTEM_$$_POINTER
	.quad	16

.section .data.n_RTTI_$SDL2_$$_PSDL_DISPLAYMODE,"d"
	.balign 8
.globl	RTTI_$SDL2_$$_PSDL_DISPLAYMODE
RTTI_$SDL2_$$_PSDL_DISPLAYMODE:
	.byte	29,16
	.ascii	"PSDL_DisplayMode"
	.quad	RTTI_$SDL2_$$_TSDL_DISPLAYMODE

.section .data.n_INIT_$SDL2_$$_TSDL_DISPLAYMODE,"d"
	.balign 8
.globl	INIT_$SDL2_$$_TSDL_DISPLAYMODE
INIT_$SDL2_$$_TSDL_DISPLAYMODE:
	.byte	13,16
	.ascii	"TSDL_DisplayMode"
	.long	24,0

.section .data.n_RTTI_$SDL2_$$_PPSDL_WINDOW,"d"
	.balign 8
.globl	RTTI_$SDL2_$$_PPSDL_WINDOW
RTTI_$SDL2_$$_PPSDL_WINDOW:
	.byte	29,12
	.ascii	"PPSDL_Window"
	.quad	RTTI_$SYSTEM_$$_POINTER

.section .data.n_RTTI_$SDL2_$$_SDL_GLATTR,"d"
	.balign 8
.globl	RTTI_$SDL2_$$_SDL_GLATTR
RTTI_$SDL2_$$_SDL_GLATTR:
	.byte	3,10
	.ascii	"SDL_GLattr"
	.byte	5
	.long	0,23
	.quad	0
	.byte	15
	.ascii	"SDL_GL_RED_SIZE"
	.byte	17
	.ascii	"SDL_GL_GREEN_SIZE"
	.byte	16
	.ascii	"SDL_GL_BLUE_SIZE"
	.byte	17
	.ascii	"SDL_GL_ALPHA_SIZE"
	.byte	18
	.ascii	"SDL_GL_BUFFER_SIZE"
	.byte	19
	.ascii	"SDL_GL_DOUBLEBUFFER"
	.byte	17
	.ascii	"SDL_GL_DEPTH_SIZE"
	.byte	19
	.ascii	"SDL_GL_STENCIL_SIZE"
	.byte	21
	.ascii	"SDL_GL_ACCUM_RED_SIZE"
	.byte	23
	.ascii	"SDL_GL_ACCUM_GREEN_SIZE"
	.byte	22
	.ascii	"SDL_GL_ACCUM_BLUE_SIZE"
	.byte	23
	.ascii	"SDL_GL_ACCUM_ALPHA_SIZE"
	.byte	13
	.ascii	"SDL_GL_STEREO"
	.byte	25
	.ascii	"SDL_GL_MULTISAMPLEBUFFERS"
	.byte	25
	.ascii	"SDL_GL_MULTISAMPLESAMPLES"
	.byte	25
	.ascii	"SDL_GL_ACCELERATED_VISUAL"
	.byte	23
	.ascii	"SDL_GL_RETAINED_BACKING"
	.byte	28
	.ascii	"SDL_GL_CONTEXT_MAJOR_VERSION"
	.byte	28
	.ascii	"SDL_GL_CONTEXT_MINOR_VERSION"
	.byte	18
	.ascii	"SDL_GL_CONTEXT_EGL"
	.byte	20
	.ascii	"SDL_GL_CONTEXT_FLAGS"
	.byte	27
	.ascii	"SDL_GL_CONTEXT_PROFILE_MASK"
	.byte	33
	.ascii	"SDL_GL_SHARE_WITH_CURRENT_CONTEXT"
	.byte	31
	.ascii	"SDL_GL_FRAMEBUFFER_SRGB_CAPABLE"
	.byte	4
	.ascii	"SDL2"
	.byte	0

.section .data.n_RTTI_$SDL2_$$_SDL_GLATTR_s2o,"d"
	.balign 8
.globl	RTTI_$SDL2_$$_SDL_GLATTR_s2o
RTTI_$SDL2_$$_SDL_GLATTR_s2o:
	.long	24,15
	.quad	RTTI_$SDL2_$$_SDL_GLATTR+334
	.long	11
	.quad	RTTI_$SDL2_$$_SDL_GLATTR+244
	.long	10
	.quad	RTTI_$SDL2_$$_SDL_GLATTR+221
	.long	9
	.quad	RTTI_$SDL2_$$_SDL_GLATTR+197
	.long	8
	.quad	RTTI_$SDL2_$$_SDL_GLATTR+175
	.long	3
	.quad	RTTI_$SDL2_$$_SDL_GLATTR+80
	.long	2
	.quad	RTTI_$SDL2_$$_SDL_GLATTR+63
	.long	4
	.quad	RTTI_$SDL2_$$_SDL_GLATTR+98
	.long	19
	.quad	RTTI_$SDL2_$$_SDL_GLATTR+442
	.long	20
	.quad	RTTI_$SDL2_$$_SDL_GLATTR+461
	.long	17
	.quad	RTTI_$SDL2_$$_SDL_GLATTR+384
	.long	18
	.quad	RTTI_$SDL2_$$_SDL_GLATTR+413
	.long	21
	.quad	RTTI_$SDL2_$$_SDL_GLATTR+482
	.long	6
	.quad	RTTI_$SDL2_$$_SDL_GLATTR+137
	.long	5
	.quad	RTTI_$SDL2_$$_SDL_GLATTR+117
	.long	23
	.quad	RTTI_$SDL2_$$_SDL_GLATTR+544
	.long	1
	.quad	RTTI_$SDL2_$$_SDL_GLATTR+45
	.long	13
	.quad	RTTI_$SDL2_$$_SDL_GLATTR+282
	.long	14
	.quad	RTTI_$SDL2_$$_SDL_GLATTR+308
	.long	0
	.quad	RTTI_$SDL2_$$_SDL_GLATTR+29
	.long	16
	.quad	RTTI_$SDL2_$$_SDL_GLATTR+360
	.long	22
	.quad	RTTI_$SDL2_$$_SDL_GLATTR+510
	.long	7
	.quad	RTTI_$SDL2_$$_SDL_GLATTR+155
	.long	12
	.quad	RTTI_$SDL2_$$_SDL_GLATTR+268

.section .data.n_RTTI_$SDL2_$$_SDL_GLATTR_o2s,"d"
	.balign 8
.globl	RTTI_$SDL2_$$_SDL_GLATTR_o2s
RTTI_$SDL2_$$_SDL_GLATTR_o2s:
	.long	0
	.quad	RTTI_$SDL2_$$_SDL_GLATTR+29
	.quad	RTTI_$SDL2_$$_SDL_GLATTR+45
	.quad	RTTI_$SDL2_$$_SDL_GLATTR+63
	.quad	RTTI_$SDL2_$$_SDL_GLATTR+80
	.quad	RTTI_$SDL2_$$_SDL_GLATTR+98
	.quad	RTTI_$SDL2_$$_SDL_GLATTR+117
	.quad	RTTI_$SDL2_$$_SDL_GLATTR+137
	.quad	RTTI_$SDL2_$$_SDL_GLATTR+155
	.quad	RTTI_$SDL2_$$_SDL_GLATTR+175
	.quad	RTTI_$SDL2_$$_SDL_GLATTR+197
	.quad	RTTI_$SDL2_$$_SDL_GLATTR+221
	.quad	RTTI_$SDL2_$$_SDL_GLATTR+244
	.quad	RTTI_$SDL2_$$_SDL_GLATTR+268
	.quad	RTTI_$SDL2_$$_SDL_GLATTR+282
	.quad	RTTI_$SDL2_$$_SDL_GLATTR+308
	.quad	RTTI_$SDL2_$$_SDL_GLATTR+334
	.quad	RTTI_$SDL2_$$_SDL_GLATTR+360
	.quad	RTTI_$SDL2_$$_SDL_GLATTR+384
	.quad	RTTI_$SDL2_$$_SDL_GLATTR+413
	.quad	RTTI_$SDL2_$$_SDL_GLATTR+442
	.quad	RTTI_$SDL2_$$_SDL_GLATTR+461
	.quad	RTTI_$SDL2_$$_SDL_GLATTR+482
	.quad	RTTI_$SDL2_$$_SDL_GLATTR+510
	.quad	RTTI_$SDL2_$$_SDL_GLATTR+544

.section .data.n_INIT_$SDL2_$$_TSDL_WINDOWSHAPEPARAMS,"d"
	.balign 8
.globl	INIT_$SDL2_$$_TSDL_WINDOWSHAPEPARAMS
INIT_$SDL2_$$_TSDL_WINDOWSHAPEPARAMS:
	.byte	13,22
	.ascii	"TSDL_WindowShapeParams"
	.long	4,0

.section .data.n_RTTI_$SDL2_$$_TSDL_WINDOWSHAPEPARAMS,"d"
	.balign 8
.globl	RTTI_$SDL2_$$_TSDL_WINDOWSHAPEPARAMS
RTTI_$SDL2_$$_TSDL_WINDOWSHAPEPARAMS:
	.byte	13,22
	.ascii	"TSDL_WindowShapeParams"
	.long	4,2
	.quad	RTTI_$SYSTEM_$$_BYTE
	.quad	0
	.quad	RTTI_$SDL2_$$_TSDL_COLOR
	.quad	0

.section .data.n_RTTI_$SDL2_$$_TSDL_WINDOWSHAPEMODE,"d"
	.balign 8
.globl	RTTI_$SDL2_$$_TSDL_WINDOWSHAPEMODE
RTTI_$SDL2_$$_TSDL_WINDOWSHAPEMODE:
	.byte	13,20
	.ascii	"TSDL_WindowShapeMode"
	.long	8,2
	.quad	RTTI_$SYSTEM_$$_LONGWORD
	.quad	0
	.quad	RTTI_$SDL2_$$_TSDL_WINDOWSHAPEPARAMS
	.quad	4

.section .data.n_RTTI_$SDL2_$$_PSDL_WINDOWSHAPEMODE,"d"
	.balign 8
.globl	RTTI_$SDL2_$$_PSDL_WINDOWSHAPEMODE
RTTI_$SDL2_$$_PSDL_WINDOWSHAPEMODE:
	.byte	29,20
	.ascii	"PSDL_WindowShapeMode"
	.quad	RTTI_$SDL2_$$_TSDL_WINDOWSHAPEMODE

.section .data.n_INIT_$SDL2_$$_TSDL_WINDOWSHAPEMODE,"d"
	.balign 8
.globl	INIT_$SDL2_$$_TSDL_WINDOWSHAPEMODE
INIT_$SDL2_$$_TSDL_WINDOWSHAPEMODE:
	.byte	13,20
	.ascii	"TSDL_WindowShapeMode"
	.long	8,0

.section .data.n_RTTI_$SDL2_$$_DEF813,"d"
	.balign 8
.globl	RTTI_$SDL2_$$_DEF813
RTTI_$SDL2_$$_DEF813:
	.byte	12
	.ascii	"\000"
	.quad	64,16
	.quad	RTTI_$SYSTEM_$$_LONGWORD
	.byte	1
	.quad	RTTI_$SYSTEM_$$_SHORTINT

.section .data.n_RTTI_$SDL2_$$_TSDL_RENDERERINFO,"d"
	.balign 8
.globl	RTTI_$SDL2_$$_TSDL_RENDERERINFO
RTTI_$SDL2_$$_TSDL_RENDERERINFO:
	.byte	13,17
	.ascii	"TSDL_RendererInfo"
	.long	88,6
	.quad	RTTI_$SYSTEM_$$_PCHAR
	.quad	0
	.quad	RTTI_$SYSTEM_$$_LONGWORD
	.quad	8
	.quad	RTTI_$SYSTEM_$$_LONGWORD
	.quad	12
	.quad	RTTI_$SDL2_$$_DEF813
	.quad	16
	.quad	RTTI_$SYSTEM_$$_LONGINT
	.quad	80
	.quad	RTTI_$SYSTEM_$$_LONGINT
	.quad	84

.section .data.n_RTTI_$SDL2_$$_PSDL_RENDERERINFO,"d"
	.balign 8
.globl	RTTI_$SDL2_$$_PSDL_RENDERERINFO
RTTI_$SDL2_$$_PSDL_RENDERERINFO:
	.byte	29,17
	.ascii	"PSDL_RendererInfo"
	.quad	RTTI_$SDL2_$$_TSDL_RENDERERINFO

.section .data.n_INIT_$SDL2_$$_TSDL_RENDERERINFO,"d"
	.balign 8
.globl	INIT_$SDL2_$$_TSDL_RENDERERINFO
INIT_$SDL2_$$_TSDL_RENDERERINFO:
	.byte	13,17
	.ascii	"TSDL_RendererInfo"
	.long	88,0

.section .data.n_RTTI_$SDL2_$$_PPSDL_RENDERER,"d"
	.balign 8
.globl	RTTI_$SDL2_$$_PPSDL_RENDERER
RTTI_$SDL2_$$_PPSDL_RENDERER:
	.byte	29,14
	.ascii	"PPSDL_Renderer"
	.quad	RTTI_$SYSTEM_$$_POINTER

.section .data.n_RTTI_$SDL2_$$_TSDL_MESSAGEBOXBUTTONDATA,"d"
	.balign 8
.globl	RTTI_$SDL2_$$_TSDL_MESSAGEBOXBUTTONDATA
RTTI_$SDL2_$$_TSDL_MESSAGEBOXBUTTONDATA:
	.byte	13,25
	.ascii	"TSDL_MessageBoxButtonData"
	.long	16,3
	.quad	RTTI_$SYSTEM_$$_LONGWORD
	.quad	0
	.quad	RTTI_$SYSTEM_$$_LONGINT
	.quad	4
	.quad	RTTI_$SYSTEM_$$_PCHAR
	.quad	8

.section .data.n_RTTI_$SDL2_$$_PSDL_MESSAGEBOXBUTTONDATA,"d"
	.balign 8
.globl	RTTI_$SDL2_$$_PSDL_MESSAGEBOXBUTTONDATA
RTTI_$SDL2_$$_PSDL_MESSAGEBOXBUTTONDATA:
	.byte	29,25
	.ascii	"PSDL_MessageBoxButtonData"
	.quad	RTTI_$SDL2_$$_TSDL_MESSAGEBOXBUTTONDATA

.section .data.n_INIT_$SDL2_$$_TSDL_MESSAGEBOXBUTTONDATA,"d"
	.balign 8
.globl	INIT_$SDL2_$$_TSDL_MESSAGEBOXBUTTONDATA
INIT_$SDL2_$$_TSDL_MESSAGEBOXBUTTONDATA:
	.byte	13,25
	.ascii	"TSDL_MessageBoxButtonData"
	.long	16,0

.section .data.n_INIT_$SDL2_$$_SDL_MESSAGEBOXCOLOR,"d"
	.balign 8
.globl	INIT_$SDL2_$$_SDL_MESSAGEBOXCOLOR
INIT_$SDL2_$$_SDL_MESSAGEBOXCOLOR:
	.byte	13,19
	.ascii	"SDL_MessageBoxColor"
	.long	3,0

.section .data.n_RTTI_$SDL2_$$_SDL_MESSAGEBOXCOLOR,"d"
	.balign 8
.globl	RTTI_$SDL2_$$_SDL_MESSAGEBOXCOLOR
RTTI_$SDL2_$$_SDL_MESSAGEBOXCOLOR:
	.byte	13,19
	.ascii	"SDL_MessageBoxColor"
	.long	3,3
	.quad	RTTI_$SYSTEM_$$_BYTE
	.quad	0
	.quad	RTTI_$SYSTEM_$$_BYTE
	.quad	1
	.quad	RTTI_$SYSTEM_$$_BYTE
	.quad	2

.section .data.n_RTTI_$SDL2_$$_DEF926,"d"
	.balign 8
.globl	RTTI_$SDL2_$$_DEF926
RTTI_$SDL2_$$_DEF926:
	.byte	12
	.ascii	"\000"
	.quad	15,5
	.quad	RTTI_$SDL2_$$_SDL_MESSAGEBOXCOLOR
	.byte	1
	.quad	RTTI_$SYSTEM_$$_SHORTINT

.section .data.n_RTTI_$SDL2_$$_TSDL_MESSAGEBOXCOLORSCHEME,"d"
	.balign 8
.globl	RTTI_$SDL2_$$_TSDL_MESSAGEBOXCOLORSCHEME
RTTI_$SDL2_$$_TSDL_MESSAGEBOXCOLORSCHEME:
	.byte	13,26
	.ascii	"TSDL_MessageBoxColorScheme"
	.long	15,1
	.quad	RTTI_$SDL2_$$_DEF926
	.quad	0

.section .data.n_RTTI_$SDL2_$$_PSDL_MESSAGEBOXCOLORSCHEME,"d"
	.balign 8
.globl	RTTI_$SDL2_$$_PSDL_MESSAGEBOXCOLORSCHEME
RTTI_$SDL2_$$_PSDL_MESSAGEBOXCOLORSCHEME:
	.byte	29,26
	.ascii	"PSDL_MessageBoxColorScheme"
	.quad	RTTI_$SDL2_$$_TSDL_MESSAGEBOXCOLORSCHEME

.section .data.n_INIT_$SDL2_$$_TSDL_MESSAGEBOXCOLORSCHEME,"d"
	.balign 8
.globl	INIT_$SDL2_$$_TSDL_MESSAGEBOXCOLORSCHEME
INIT_$SDL2_$$_TSDL_MESSAGEBOXCOLORSCHEME:
	.byte	13,26
	.ascii	"TSDL_MessageBoxColorScheme"
	.long	15,0

.section .data.n_RTTI_$SDL2_$$_TSDL_MESSAGEBOXDATA,"d"
	.balign 8
.globl	RTTI_$SDL2_$$_TSDL_MESSAGEBOXDATA
RTTI_$SDL2_$$_TSDL_MESSAGEBOXDATA:
	.byte	13,19
	.ascii	"TSDL_MessageBoxData"
	.long	56,7
	.quad	RTTI_$SYSTEM_$$_LONGWORD
	.quad	0
	.quad	RTTI_$SYSTEM_$$_POINTER
	.quad	8
	.quad	RTTI_$SYSTEM_$$_PCHAR
	.quad	16
	.quad	RTTI_$SYSTEM_$$_PCHAR
	.quad	24
	.quad	RTTI_$SYSTEM_$$_LONGINT
	.quad	32
	.quad	RTTI_$SDL2_$$_PSDL_MESSAGEBOXBUTTONDATA
	.quad	40
	.quad	RTTI_$SDL2_$$_PSDL_MESSAGEBOXCOLORSCHEME
	.quad	48

.section .data.n_RTTI_$SDL2_$$_PSDL_MESSAGEBOXDATA,"d"
	.balign 8
.globl	RTTI_$SDL2_$$_PSDL_MESSAGEBOXDATA
RTTI_$SDL2_$$_PSDL_MESSAGEBOXDATA:
	.byte	29,19
	.ascii	"PSDL_MessageBoxData"
	.quad	RTTI_$SDL2_$$_TSDL_MESSAGEBOXDATA

.section .data.n_INIT_$SDL2_$$_TSDL_MESSAGEBOXDATA,"d"
	.balign 8
.globl	INIT_$SDL2_$$_TSDL_MESSAGEBOXDATA
INIT_$SDL2_$$_TSDL_MESSAGEBOXDATA:
	.byte	13,19
	.ascii	"TSDL_MessageBoxData"
	.long	56,0

.section .data.n_RTTI_$SDL2_$$_PSDL_SCANCODE,"d"
	.balign 8
.globl	RTTI_$SDL2_$$_PSDL_SCANCODE
RTTI_$SDL2_$$_PSDL_SCANCODE:
	.byte	29,13
	.ascii	"PSDL_ScanCode"
	.quad	RTTI_$SYSTEM_$$_LONGWORD

.section .data.n_RTTI_$SDL2_$$_PSDL_KEYCODE,"d"
	.balign 8
.globl	RTTI_$SDL2_$$_PSDL_KEYCODE
RTTI_$SDL2_$$_PSDL_KEYCODE:
	.byte	29,12
	.ascii	"PSDL_KeyCode"
	.quad	RTTI_$SYSTEM_$$_LONGINT

.section .data.n_RTTI_$SDL2_$$_PSDL_KEYMOD,"d"
	.balign 8
.globl	RTTI_$SDL2_$$_PSDL_KEYMOD
RTTI_$SDL2_$$_PSDL_KEYMOD:
	.byte	29,11
	.ascii	"PSDL_KeyMod"
	.quad	RTTI_$SYSTEM_$$_WORD

.section .data.n_RTTI_$SDL2_$$_TSDL_KEYSYM,"d"
	.balign 8
.globl	RTTI_$SDL2_$$_TSDL_KEYSYM
RTTI_$SDL2_$$_TSDL_KEYSYM:
	.byte	13,11
	.ascii	"TSDL_Keysym"
	.long	16,4
	.quad	RTTI_$SYSTEM_$$_LONGWORD
	.quad	0
	.quad	RTTI_$SYSTEM_$$_LONGINT
	.quad	4
	.quad	RTTI_$SYSTEM_$$_WORD
	.quad	8
	.quad	RTTI_$SYSTEM_$$_LONGWORD
	.quad	12

.section .data.n_RTTI_$SDL2_$$_PSDL_KEYSYM,"d"
	.balign 8
.globl	RTTI_$SDL2_$$_PSDL_KEYSYM
RTTI_$SDL2_$$_PSDL_KEYSYM:
	.byte	29,11
	.ascii	"PSDL_Keysym"
	.quad	RTTI_$SDL2_$$_TSDL_KEYSYM

.section .data.n_INIT_$SDL2_$$_TSDL_KEYSYM,"d"
	.balign 8
.globl	INIT_$SDL2_$$_TSDL_KEYSYM
INIT_$SDL2_$$_TSDL_KEYSYM:
	.byte	13,11
	.ascii	"TSDL_Keysym"
	.long	16,0

.section .data.n_INIT_$SDL2_$$_TSDL_JOYSTICKGUID,"d"
	.balign 8
.globl	INIT_$SDL2_$$_TSDL_JOYSTICKGUID
INIT_$SDL2_$$_TSDL_JOYSTICKGUID:
	.byte	13,17
	.ascii	"TSDL_JoystickGUID"
	.long	16,0

.section .data.n_RTTI_$SDL2_$$_DEF997,"d"
	.balign 8
.globl	RTTI_$SDL2_$$_DEF997
RTTI_$SDL2_$$_DEF997:
	.byte	12
	.ascii	"\000"
	.quad	16,16
	.quad	RTTI_$SYSTEM_$$_BYTE
	.byte	1
	.quad	RTTI_$SYSTEM_$$_SHORTINT

.section .data.n_RTTI_$SDL2_$$_TSDL_JOYSTICKGUID,"d"
	.balign 8
.globl	RTTI_$SDL2_$$_TSDL_JOYSTICKGUID
RTTI_$SDL2_$$_TSDL_JOYSTICKGUID:
	.byte	13,17
	.ascii	"TSDL_JoystickGUID"
	.long	16,1
	.quad	RTTI_$SDL2_$$_DEF997
	.quad	0

.section .data.n_RTTI_$SDL2_$$_SDL_GAMECONTROLLERBINDTYPE,"d"
	.balign 8
.globl	RTTI_$SDL2_$$_SDL_GAMECONTROLLERBINDTYPE
RTTI_$SDL2_$$_SDL_GAMECONTROLLERBINDTYPE:
	.byte	3,26
	.ascii	"SDL_GameControllerBindType"
	.byte	5
	.long	0,3
	.quad	0
	.byte	28
	.ascii	"SDL_CONTROLLER_BINDTYPE_NONE"
	.byte	30
	.ascii	"SDL_CONTROLLER_BINDTYPE_BUTTON"
	.byte	28
	.ascii	"SDL_CONTROLLER_BINDTYPE_AXIS"
	.byte	27
	.ascii	"SDL_CONTROLLER_BINDTYPE_HAT"
	.byte	4
	.ascii	"SDL2"
	.byte	0

.section .data.n_RTTI_$SDL2_$$_SDL_GAMECONTROLLERBINDTYPE_s2o,"d"
	.balign 8
.globl	RTTI_$SDL2_$$_SDL_GAMECONTROLLERBINDTYPE_s2o
RTTI_$SDL2_$$_SDL_GAMECONTROLLERBINDTYPE_s2o:
	.long	4,2
	.quad	RTTI_$SDL2_$$_SDL_GAMECONTROLLERBINDTYPE+105
	.long	1
	.quad	RTTI_$SDL2_$$_SDL_GAMECONTROLLERBINDTYPE+74
	.long	3
	.quad	RTTI_$SDL2_$$_SDL_GAMECONTROLLERBINDTYPE+134
	.long	0
	.quad	RTTI_$SDL2_$$_SDL_GAMECONTROLLERBINDTYPE+45

.section .data.n_RTTI_$SDL2_$$_SDL_GAMECONTROLLERBINDTYPE_o2s,"d"
	.balign 8
.globl	RTTI_$SDL2_$$_SDL_GAMECONTROLLERBINDTYPE_o2s
RTTI_$SDL2_$$_SDL_GAMECONTROLLERBINDTYPE_o2s:
	.long	0
	.quad	RTTI_$SDL2_$$_SDL_GAMECONTROLLERBINDTYPE+45
	.quad	RTTI_$SDL2_$$_SDL_GAMECONTROLLERBINDTYPE+74
	.quad	RTTI_$SDL2_$$_SDL_GAMECONTROLLERBINDTYPE+105
	.quad	RTTI_$SDL2_$$_SDL_GAMECONTROLLERBINDTYPE+134

.section .data.n_RTTI_$SDL2_$$_SDL_GAMECONTROLLERAXIS,"d"
	.balign 8
.globl	RTTI_$SDL2_$$_SDL_GAMECONTROLLERAXIS
RTTI_$SDL2_$$_SDL_GAMECONTROLLERAXIS:
	.byte	3,22
	.ascii	"SDL_GameControllerAxis"
	.byte	5
	.long	-1,6
	.quad	0
	.byte	27
	.ascii	"SDL_CONTROLLER_AXIS_INVALID"
	.byte	25
	.ascii	"SDL_CONTROLLER_AXIS_LEFTX"
	.byte	25
	.ascii	"SDL_CONTROLLER_AXIS_LEFTY"
	.byte	26
	.ascii	"SDL_CONTROLLER_AXIS_RIGHTX"
	.byte	26
	.ascii	"SDL_CONTROLLER_AXIS_RIGHTY"
	.byte	31
	.ascii	"SDL_CONTROLLER_AXIS_TRIGGERLEFT"
	.byte	32
	.ascii	"SDL_CONTROLLER_AXIS_TRIGGERRIGHT"
	.byte	23
	.ascii	"SDL_CONTROLLER_AXIS_MAX"
	.byte	4
	.ascii	"SDL2"
	.byte	0

.section .data.n_RTTI_$SDL2_$$_SDL_GAMECONTROLLERAXIS_s2o,"d"
	.balign 8
.globl	RTTI_$SDL2_$$_SDL_GAMECONTROLLERAXIS_s2o
RTTI_$SDL2_$$_SDL_GAMECONTROLLERAXIS_s2o:
	.long	8,-1
	.quad	RTTI_$SDL2_$$_SDL_GAMECONTROLLERAXIS+41
	.long	0
	.quad	RTTI_$SDL2_$$_SDL_GAMECONTROLLERAXIS+69
	.long	1
	.quad	RTTI_$SDL2_$$_SDL_GAMECONTROLLERAXIS+95
	.long	6
	.quad	RTTI_$SDL2_$$_SDL_GAMECONTROLLERAXIS+240
	.long	2
	.quad	RTTI_$SDL2_$$_SDL_GAMECONTROLLERAXIS+121
	.long	3
	.quad	RTTI_$SDL2_$$_SDL_GAMECONTROLLERAXIS+148
	.long	4
	.quad	RTTI_$SDL2_$$_SDL_GAMECONTROLLERAXIS+175
	.long	5
	.quad	RTTI_$SDL2_$$_SDL_GAMECONTROLLERAXIS+207

.section .data.n_RTTI_$SDL2_$$_SDL_GAMECONTROLLERAXIS_o2s,"d"
	.balign 8
.globl	RTTI_$SDL2_$$_SDL_GAMECONTROLLERAXIS_o2s
RTTI_$SDL2_$$_SDL_GAMECONTROLLERAXIS_o2s:
	.long	0
	.quad	RTTI_$SDL2_$$_SDL_GAMECONTROLLERAXIS+41
	.quad	RTTI_$SDL2_$$_SDL_GAMECONTROLLERAXIS+69
	.quad	RTTI_$SDL2_$$_SDL_GAMECONTROLLERAXIS+95
	.quad	RTTI_$SDL2_$$_SDL_GAMECONTROLLERAXIS+121
	.quad	RTTI_$SDL2_$$_SDL_GAMECONTROLLERAXIS+148
	.quad	RTTI_$SDL2_$$_SDL_GAMECONTROLLERAXIS+175
	.quad	RTTI_$SDL2_$$_SDL_GAMECONTROLLERAXIS+207
	.quad	RTTI_$SDL2_$$_SDL_GAMECONTROLLERAXIS+240

.section .data.n_RTTI_$SDL2_$$_SDL_GAMECONTROLLERBUTTON,"d"
	.balign 8
.globl	RTTI_$SDL2_$$_SDL_GAMECONTROLLERBUTTON
RTTI_$SDL2_$$_SDL_GAMECONTROLLERBUTTON:
	.byte	3,24
	.ascii	"SDL_GameControllerButton"
	.byte	5
	.long	-1,15
	.quad	0
	.byte	29
	.ascii	"SDL_CONTROLLER_BUTTON_INVALID"
	.byte	23
	.ascii	"SDL_CONTROLLER_BUTTON_A"
	.byte	23
	.ascii	"SDL_CONTROLLER_BUTTON_B"
	.byte	23
	.ascii	"SDL_CONTROLLER_BUTTON_X"
	.byte	23
	.ascii	"SDL_CONTROLLER_BUTTON_Y"
	.byte	26
	.ascii	"SDL_CONTROLLER_BUTTON_BACK"
	.byte	27
	.ascii	"SDL_CONTROLLER_BUTTON_GUIDE"
	.byte	27
	.ascii	"SDL_CONTROLLER_BUTTON_START"
	.byte	31
	.ascii	"SDL_CONTROLLER_BUTTON_LEFTSTICK"
	.byte	32
	.ascii	"SDL_CONTROLLER_BUTTON_RIGHTSTICK"
	.byte	34
	.ascii	"SDL_CONTROLLER_BUTTON_LEFTSHOULDER"
	.byte	35
	.ascii	"SDL_CONTROLLER_BUTTON_RIGHTSHOULDER"
	.byte	29
	.ascii	"SDL_CONTROLLER_BUTTON_DPAD_UP"
	.byte	31
	.ascii	"SDL_CONTROLLER_BUTTON_DPAD_DOWN"
	.byte	31
	.ascii	"SDL_CONTROLLER_BUTTON_DPAD_LEFT"
	.byte	32
	.ascii	"SDL_CONTROLLER_BUTTON_DPAD_RIGHT"
	.byte	25
	.ascii	"SDL_CONTROLLER_BUTTON_MAX"
	.byte	4
	.ascii	"SDL2"
	.byte	0

.section .data.n_RTTI_$SDL2_$$_SDL_GAMECONTROLLERBUTTON_s2o,"d"
	.balign 8
.globl	RTTI_$SDL2_$$_SDL_GAMECONTROLLERBUTTON_s2o
RTTI_$SDL2_$$_SDL_GAMECONTROLLERBUTTON_s2o:
	.long	17,0
	.quad	RTTI_$SDL2_$$_SDL_GAMECONTROLLERBUTTON+73
	.long	1
	.quad	RTTI_$SDL2_$$_SDL_GAMECONTROLLERBUTTON+97
	.long	4
	.quad	RTTI_$SDL2_$$_SDL_GAMECONTROLLERBUTTON+169
	.long	12
	.quad	RTTI_$SDL2_$$_SDL_GAMECONTROLLERBUTTON+418
	.long	13
	.quad	RTTI_$SDL2_$$_SDL_GAMECONTROLLERBUTTON+450
	.long	14
	.quad	RTTI_$SDL2_$$_SDL_GAMECONTROLLERBUTTON+482
	.long	11
	.quad	RTTI_$SDL2_$$_SDL_GAMECONTROLLERBUTTON+388
	.long	5
	.quad	RTTI_$SDL2_$$_SDL_GAMECONTROLLERBUTTON+196
	.long	-1
	.quad	RTTI_$SDL2_$$_SDL_GAMECONTROLLERBUTTON+43
	.long	9
	.quad	RTTI_$SDL2_$$_SDL_GAMECONTROLLERBUTTON+317
	.long	7
	.quad	RTTI_$SDL2_$$_SDL_GAMECONTROLLERBUTTON+252
	.long	15
	.quad	RTTI_$SDL2_$$_SDL_GAMECONTROLLERBUTTON+515
	.long	10
	.quad	RTTI_$SDL2_$$_SDL_GAMECONTROLLERBUTTON+352
	.long	8
	.quad	RTTI_$SDL2_$$_SDL_GAMECONTROLLERBUTTON+284
	.long	6
	.quad	RTTI_$SDL2_$$_SDL_GAMECONTROLLERBUTTON+224
	.long	2
	.quad	RTTI_$SDL2_$$_SDL_GAMECONTROLLERBUTTON+121
	.long	3
	.quad	RTTI_$SDL2_$$_SDL_GAMECONTROLLERBUTTON+145

.section .data.n_RTTI_$SDL2_$$_SDL_GAMECONTROLLERBUTTON_o2s,"d"
	.balign 8
.globl	RTTI_$SDL2_$$_SDL_GAMECONTROLLERBUTTON_o2s
RTTI_$SDL2_$$_SDL_GAMECONTROLLERBUTTON_o2s:
	.long	0
	.quad	RTTI_$SDL2_$$_SDL_GAMECONTROLLERBUTTON+43
	.quad	RTTI_$SDL2_$$_SDL_GAMECONTROLLERBUTTON+73
	.quad	RTTI_$SDL2_$$_SDL_GAMECONTROLLERBUTTON+97
	.quad	RTTI_$SDL2_$$_SDL_GAMECONTROLLERBUTTON+121
	.quad	RTTI_$SDL2_$$_SDL_GAMECONTROLLERBUTTON+145
	.quad	RTTI_$SDL2_$$_SDL_GAMECONTROLLERBUTTON+169
	.quad	RTTI_$SDL2_$$_SDL_GAMECONTROLLERBUTTON+196
	.quad	RTTI_$SDL2_$$_SDL_GAMECONTROLLERBUTTON+224
	.quad	RTTI_$SDL2_$$_SDL_GAMECONTROLLERBUTTON+252
	.quad	RTTI_$SDL2_$$_SDL_GAMECONTROLLERBUTTON+284
	.quad	RTTI_$SDL2_$$_SDL_GAMECONTROLLERBUTTON+317
	.quad	RTTI_$SDL2_$$_SDL_GAMECONTROLLERBUTTON+352
	.quad	RTTI_$SDL2_$$_SDL_GAMECONTROLLERBUTTON+388
	.quad	RTTI_$SDL2_$$_SDL_GAMECONTROLLERBUTTON+418
	.quad	RTTI_$SDL2_$$_SDL_GAMECONTROLLERBUTTON+450
	.quad	RTTI_$SDL2_$$_SDL_GAMECONTROLLERBUTTON+482
	.quad	RTTI_$SDL2_$$_SDL_GAMECONTROLLERBUTTON+515

.section .data.n_RTTI_$SDL2_$$_DEF1047,"d"
	.balign 8
.globl	RTTI_$SDL2_$$_DEF1047
RTTI_$SDL2_$$_DEF1047:
	.byte	13
	.ascii	"\000"
	.long	8,2
	.quad	RTTI_$SYSTEM_$$_LONGINT
	.quad	0
	.quad	RTTI_$SYSTEM_$$_LONGINT
	.quad	4

.section .data.n_RTTI_$SDL2_$$_DEF1045,"d"
	.balign 8
.globl	RTTI_$SDL2_$$_DEF1045
RTTI_$SDL2_$$_DEF1045:
	.byte	13
	.ascii	"\000"
	.long	8,3
	.quad	RTTI_$SYSTEM_$$_LONGINT
	.quad	0
	.quad	RTTI_$SYSTEM_$$_LONGINT
	.quad	0
	.quad	RTTI_$SDL2_$$_DEF1047
	.quad	0

.section .data.n_RTTI_$SDL2_$$_TSDL_GAMECONTROLLERBUTTONBIND,"d"
	.balign 8
.globl	RTTI_$SDL2_$$_TSDL_GAMECONTROLLERBUTTONBIND
RTTI_$SDL2_$$_TSDL_GAMECONTROLLERBUTTONBIND:
	.byte	13,29
	.ascii	"TSDL_GameControllerButtonBind"
	.long	12,2
	.quad	RTTI_$SDL2_$$_SDL_GAMECONTROLLERBINDTYPE
	.quad	0
	.quad	RTTI_$SDL2_$$_DEF1045
	.quad	4

.section .data.n_RTTI_$SDL2_$$_PSDL_GAMECONTROLLERBUTTONBIND,"d"
	.balign 8
.globl	RTTI_$SDL2_$$_PSDL_GAMECONTROLLERBUTTONBIND
RTTI_$SDL2_$$_PSDL_GAMECONTROLLERBUTTONBIND:
	.byte	29,29
	.ascii	"PSDL_GameControllerButtonBind"
	.quad	RTTI_$SDL2_$$_TSDL_GAMECONTROLLERBUTTONBIND

.section .data.n_INIT_$SDL2_$$_TSDL_GAMECONTROLLERBUTTONBIND,"d"
	.balign 8
.globl	INIT_$SDL2_$$_TSDL_GAMECONTROLLERBUTTONBIND
INIT_$SDL2_$$_TSDL_GAMECONTROLLERBUTTONBIND:
	.byte	13,29
	.ascii	"TSDL_GameControllerButtonBind"
	.long	12,0

.section .data.n_RTTI_$SDL2_$$_DEF1093,"d"
	.balign 8
.globl	RTTI_$SDL2_$$_DEF1093
RTTI_$SDL2_$$_DEF1093:
	.byte	12
	.ascii	"\000"
	.quad	12,3
	.quad	RTTI_$SYSTEM_$$_LONGINT
	.byte	1
	.quad	RTTI_$SYSTEM_$$_SHORTINT

.section .data.n_RTTI_$SDL2_$$_TSDL_HAPTICDIRECTION,"d"
	.balign 8
.globl	RTTI_$SDL2_$$_TSDL_HAPTICDIRECTION
RTTI_$SDL2_$$_TSDL_HAPTICDIRECTION:
	.byte	13,20
	.ascii	"TSDL_HapticDirection"
	.long	16,2
	.quad	RTTI_$SYSTEM_$$_BYTE
	.quad	0
	.quad	RTTI_$SDL2_$$_DEF1093
	.quad	4

.section .data.n_RTTI_$SDL2_$$_PSDL_HAPTICDIRECTION,"d"
	.balign 8
.globl	RTTI_$SDL2_$$_PSDL_HAPTICDIRECTION
RTTI_$SDL2_$$_PSDL_HAPTICDIRECTION:
	.byte	29,20
	.ascii	"PSDL_HapticDirection"
	.quad	RTTI_$SDL2_$$_TSDL_HAPTICDIRECTION

.section .data.n_INIT_$SDL2_$$_TSDL_HAPTICDIRECTION,"d"
	.balign 8
.globl	INIT_$SDL2_$$_TSDL_HAPTICDIRECTION
INIT_$SDL2_$$_TSDL_HAPTICDIRECTION:
	.byte	13,20
	.ascii	"TSDL_HapticDirection"
	.long	16,0

.section .data.n_RTTI_$SDL2_$$_TSDL_HAPTICCONSTANT,"d"
	.balign 8
.globl	RTTI_$SDL2_$$_TSDL_HAPTICCONSTANT
RTTI_$SDL2_$$_TSDL_HAPTICCONSTANT:
	.byte	13,19
	.ascii	"TSDL_HapticConstant"
	.long	40,11
	.quad	RTTI_$SYSTEM_$$_WORD
	.quad	0
	.quad	RTTI_$SDL2_$$_TSDL_HAPTICDIRECTION
	.quad	4
	.quad	RTTI_$SYSTEM_$$_LONGWORD
	.quad	20
	.quad	RTTI_$SYSTEM_$$_WORD
	.quad	24
	.quad	RTTI_$SYSTEM_$$_WORD
	.quad	26
	.quad	RTTI_$SYSTEM_$$_WORD
	.quad	28
	.quad	RTTI_$SYSTEM_$$_SMALLINT
	.quad	30
	.quad	RTTI_$SYSTEM_$$_WORD
	.quad	32
	.quad	RTTI_$SYSTEM_$$_WORD
	.quad	34
	.quad	RTTI_$SYSTEM_$$_WORD
	.quad	36
	.quad	RTTI_$SYSTEM_$$_WORD
	.quad	38

.section .data.n_RTTI_$SDL2_$$_PSDL_HAPTICCONSTANT,"d"
	.balign 8
.globl	RTTI_$SDL2_$$_PSDL_HAPTICCONSTANT
RTTI_$SDL2_$$_PSDL_HAPTICCONSTANT:
	.byte	29,19
	.ascii	"PSDL_HapticConstant"
	.quad	RTTI_$SDL2_$$_TSDL_HAPTICCONSTANT

.section .data.n_INIT_$SDL2_$$_TSDL_HAPTICCONSTANT,"d"
	.balign 8
.globl	INIT_$SDL2_$$_TSDL_HAPTICCONSTANT
INIT_$SDL2_$$_TSDL_HAPTICCONSTANT:
	.byte	13,19
	.ascii	"TSDL_HapticConstant"
	.long	40,0

.section .data.n_RTTI_$SDL2_$$_TSDL_HAPTICPERIODIC,"d"
	.balign 8
.globl	RTTI_$SDL2_$$_TSDL_HAPTICPERIODIC
RTTI_$SDL2_$$_TSDL_HAPTICPERIODIC:
	.byte	13,19
	.ascii	"TSDL_HapticPeriodic"
	.long	48,14
	.quad	RTTI_$SYSTEM_$$_WORD
	.quad	0
	.quad	RTTI_$SDL2_$$_TSDL_HAPTICDIRECTION
	.quad	4
	.quad	RTTI_$SYSTEM_$$_LONGWORD
	.quad	20
	.quad	RTTI_$SYSTEM_$$_WORD
	.quad	24
	.quad	RTTI_$SYSTEM_$$_WORD
	.quad	26
	.quad	RTTI_$SYSTEM_$$_WORD
	.quad	28
	.quad	RTTI_$SYSTEM_$$_WORD
	.quad	30
	.quad	RTTI_$SYSTEM_$$_SMALLINT
	.quad	32
	.quad	RTTI_$SYSTEM_$$_SMALLINT
	.quad	34
	.quad	RTTI_$SYSTEM_$$_WORD
	.quad	36
	.quad	RTTI_$SYSTEM_$$_WORD
	.quad	38
	.quad	RTTI_$SYSTEM_$$_WORD
	.quad	40
	.quad	RTTI_$SYSTEM_$$_WORD
	.quad	42
	.quad	RTTI_$SYSTEM_$$_WORD
	.quad	44

.section .data.n_RTTI_$SDL2_$$_PSDL_HAPTICPERIODIC,"d"
	.balign 8
.globl	RTTI_$SDL2_$$_PSDL_HAPTICPERIODIC
RTTI_$SDL2_$$_PSDL_HAPTICPERIODIC:
	.byte	29,19
	.ascii	"PSDL_HapticPeriodic"
	.quad	RTTI_$SDL2_$$_TSDL_HAPTICPERIODIC

.section .data.n_INIT_$SDL2_$$_TSDL_HAPTICPERIODIC,"d"
	.balign 8
.globl	INIT_$SDL2_$$_TSDL_HAPTICPERIODIC
INIT_$SDL2_$$_TSDL_HAPTICPERIODIC:
	.byte	13,19
	.ascii	"TSDL_HapticPeriodic"
	.long	48,0

.section .data.n_RTTI_$SDL2_$$_DEF1100,"d"
	.balign 8
.globl	RTTI_$SDL2_$$_DEF1100
RTTI_$SDL2_$$_DEF1100:
	.byte	12
	.ascii	"\000"
	.quad	6,3
	.quad	RTTI_$SYSTEM_$$_WORD
	.byte	1
	.quad	RTTI_$SYSTEM_$$_SHORTINT

.section .data.n_RTTI_$SDL2_$$_DEF1101,"d"
	.balign 8
.globl	RTTI_$SDL2_$$_DEF1101
RTTI_$SDL2_$$_DEF1101:
	.byte	12
	.ascii	"\000"
	.quad	6,3
	.quad	RTTI_$SYSTEM_$$_SMALLINT
	.byte	1
	.quad	RTTI_$SYSTEM_$$_SHORTINT

.section .data.n_RTTI_$SDL2_$$_DEF1102,"d"
	.balign 8
.globl	RTTI_$SDL2_$$_DEF1102
RTTI_$SDL2_$$_DEF1102:
	.byte	12
	.ascii	"\000"
	.quad	6,3
	.quad	RTTI_$SYSTEM_$$_WORD
	.byte	1
	.quad	RTTI_$SYSTEM_$$_SHORTINT

.section .data.n_RTTI_$SDL2_$$_DEF1103,"d"
	.balign 8
.globl	RTTI_$SDL2_$$_DEF1103
RTTI_$SDL2_$$_DEF1103:
	.byte	12
	.ascii	"\000"
	.quad	6,3
	.quad	RTTI_$SYSTEM_$$_SMALLINT
	.byte	1
	.quad	RTTI_$SYSTEM_$$_SHORTINT

.section .data.n_RTTI_$SDL2_$$_TSDL_HAPTICCONDITION,"d"
	.balign 8
.globl	RTTI_$SDL2_$$_TSDL_HAPTICCONDITION
RTTI_$SDL2_$$_TSDL_HAPTICCONDITION:
	.byte	13,20
	.ascii	"TSDL_HapticCondition"
	.long	68,12
	.quad	RTTI_$SYSTEM_$$_WORD
	.quad	0
	.quad	RTTI_$SDL2_$$_TSDL_HAPTICDIRECTION
	.quad	4
	.quad	RTTI_$SYSTEM_$$_LONGWORD
	.quad	20
	.quad	RTTI_$SYSTEM_$$_WORD
	.quad	24
	.quad	RTTI_$SYSTEM_$$_WORD
	.quad	26
	.quad	RTTI_$SYSTEM_$$_WORD
	.quad	28
	.quad	RTTI_$SDL2_$$_DEF1100
	.quad	30
	.quad	RTTI_$SDL2_$$_DEF1100
	.quad	36
	.quad	RTTI_$SDL2_$$_DEF1101
	.quad	42
	.quad	RTTI_$SDL2_$$_DEF1101
	.quad	48
	.quad	RTTI_$SDL2_$$_DEF1102
	.quad	54
	.quad	RTTI_$SDL2_$$_DEF1103
	.quad	60

.section .data.n_RTTI_$SDL2_$$_PSDL_HAPTICCONDITION,"d"
	.balign 8
.globl	RTTI_$SDL2_$$_PSDL_HAPTICCONDITION
RTTI_$SDL2_$$_PSDL_HAPTICCONDITION:
	.byte	29,20
	.ascii	"PSDL_HapticCondition"
	.quad	RTTI_$SDL2_$$_TSDL_HAPTICCONDITION

.section .data.n_INIT_$SDL2_$$_TSDL_HAPTICCONDITION,"d"
	.balign 8
.globl	INIT_$SDL2_$$_TSDL_HAPTICCONDITION
INIT_$SDL2_$$_TSDL_HAPTICCONDITION:
	.byte	13,20
	.ascii	"TSDL_HapticCondition"
	.long	68,0

.section .data.n_RTTI_$SDL2_$$_TSDL_HAPTICRAMP,"d"
	.balign 8
.globl	RTTI_$SDL2_$$_TSDL_HAPTICRAMP
RTTI_$SDL2_$$_TSDL_HAPTICRAMP:
	.byte	13,15
	.ascii	"TSDL_HapticRamp"
	.long	44,12
	.quad	RTTI_$SYSTEM_$$_WORD
	.quad	0
	.quad	RTTI_$SDL2_$$_TSDL_HAPTICDIRECTION
	.quad	4
	.quad	RTTI_$SYSTEM_$$_LONGWORD
	.quad	20
	.quad	RTTI_$SYSTEM_$$_WORD
	.quad	24
	.quad	RTTI_$SYSTEM_$$_WORD
	.quad	26
	.quad	RTTI_$SYSTEM_$$_WORD
	.quad	28
	.quad	RTTI_$SYSTEM_$$_SMALLINT
	.quad	30
	.quad	RTTI_$SYSTEM_$$_SMALLINT
	.quad	32
	.quad	RTTI_$SYSTEM_$$_WORD
	.quad	34
	.quad	RTTI_$SYSTEM_$$_WORD
	.quad	36
	.quad	RTTI_$SYSTEM_$$_WORD
	.quad	38
	.quad	RTTI_$SYSTEM_$$_WORD
	.quad	40

.section .data.n_RTTI_$SDL2_$$_PSDL_HAPTICRAMP,"d"
	.balign 8
.globl	RTTI_$SDL2_$$_PSDL_HAPTICRAMP
RTTI_$SDL2_$$_PSDL_HAPTICRAMP:
	.byte	29,15
	.ascii	"PSDL_HapticRamp"
	.quad	RTTI_$SDL2_$$_TSDL_HAPTICRAMP

.section .data.n_INIT_$SDL2_$$_TSDL_HAPTICRAMP,"d"
	.balign 8
.globl	INIT_$SDL2_$$_TSDL_HAPTICRAMP
INIT_$SDL2_$$_TSDL_HAPTICRAMP:
	.byte	13,15
	.ascii	"TSDL_HapticRamp"
	.long	44,0

.section .data.n_RTTI_$SDL2_$$_TSDL_HAPTICLEFTRIGHT,"d"
	.balign 8
.globl	RTTI_$SDL2_$$_TSDL_HAPTICLEFTRIGHT
RTTI_$SDL2_$$_TSDL_HAPTICLEFTRIGHT:
	.byte	13,20
	.ascii	"TSDL_HapticLeftRight"
	.long	12,4
	.quad	RTTI_$SYSTEM_$$_WORD
	.quad	0
	.quad	RTTI_$SYSTEM_$$_LONGWORD
	.quad	4
	.quad	RTTI_$SYSTEM_$$_WORD
	.quad	8
	.quad	RTTI_$SYSTEM_$$_WORD
	.quad	10

.section .data.n_RTTI_$SDL2_$$_PSDL_HAPTICLEFTRIGHT,"d"
	.balign 8
.globl	RTTI_$SDL2_$$_PSDL_HAPTICLEFTRIGHT
RTTI_$SDL2_$$_PSDL_HAPTICLEFTRIGHT:
	.byte	29,20
	.ascii	"PSDL_HapticLeftRight"
	.quad	RTTI_$SDL2_$$_TSDL_HAPTICLEFTRIGHT

.section .data.n_INIT_$SDL2_$$_TSDL_HAPTICLEFTRIGHT,"d"
	.balign 8
.globl	INIT_$SDL2_$$_TSDL_HAPTICLEFTRIGHT
INIT_$SDL2_$$_TSDL_HAPTICLEFTRIGHT:
	.byte	13,20
	.ascii	"TSDL_HapticLeftRight"
	.long	12,0

.section .data.n_RTTI_$SDL2_$$_TSDL_HAPTICCUSTOM,"d"
	.balign 8
.globl	RTTI_$SDL2_$$_TSDL_HAPTICCUSTOM
RTTI_$SDL2_$$_TSDL_HAPTICCUSTOM:
	.byte	13,17
	.ascii	"TSDL_HapticCustom"
	.long	56,14
	.quad	RTTI_$SYSTEM_$$_WORD
	.quad	0
	.quad	RTTI_$SDL2_$$_TSDL_HAPTICDIRECTION
	.quad	4
	.quad	RTTI_$SYSTEM_$$_LONGWORD
	.quad	20
	.quad	RTTI_$SYSTEM_$$_WORD
	.quad	24
	.quad	RTTI_$SYSTEM_$$_WORD
	.quad	26
	.quad	RTTI_$SYSTEM_$$_WORD
	.quad	28
	.quad	RTTI_$SYSTEM_$$_BYTE
	.quad	30
	.quad	RTTI_$SYSTEM_$$_WORD
	.quad	32
	.quad	RTTI_$SYSTEM_$$_WORD
	.quad	34
	.quad	RTTI_$SYSTEM_$$_PWORD
	.quad	40
	.quad	RTTI_$SYSTEM_$$_WORD
	.quad	48
	.quad	RTTI_$SYSTEM_$$_WORD
	.quad	50
	.quad	RTTI_$SYSTEM_$$_WORD
	.quad	52
	.quad	RTTI_$SYSTEM_$$_WORD
	.quad	54

.section .data.n_RTTI_$SDL2_$$_PSDL_HAPTICCUSTOM,"d"
	.balign 8
.globl	RTTI_$SDL2_$$_PSDL_HAPTICCUSTOM
RTTI_$SDL2_$$_PSDL_HAPTICCUSTOM:
	.byte	29,17
	.ascii	"PSDL_HapticCustom"
	.quad	RTTI_$SDL2_$$_TSDL_HAPTICCUSTOM

.section .data.n_INIT_$SDL2_$$_TSDL_HAPTICCUSTOM,"d"
	.balign 8
.globl	INIT_$SDL2_$$_TSDL_HAPTICCUSTOM
INIT_$SDL2_$$_TSDL_HAPTICCUSTOM:
	.byte	13,17
	.ascii	"TSDL_HapticCustom"
	.long	56,0

.section .data.n_RTTI_$SDL2_$$_TSDL_HAPTICEFFECT,"d"
	.balign 8
.globl	RTTI_$SDL2_$$_TSDL_HAPTICEFFECT
RTTI_$SDL2_$$_TSDL_HAPTICEFFECT:
	.byte	13,17
	.ascii	"TSDL_HapticEffect"
	.long	72,6
	.quad	RTTI_$SYSTEM_$$_WORD
	.quad	0
	.quad	RTTI_$SDL2_$$_TSDL_HAPTICCONSTANT
	.quad	0
	.quad	RTTI_$SDL2_$$_TSDL_HAPTICPERIODIC
	.quad	0
	.quad	RTTI_$SDL2_$$_TSDL_HAPTICCONDITION
	.quad	0
	.quad	RTTI_$SDL2_$$_TSDL_HAPTICRAMP
	.quad	0
	.quad	RTTI_$SDL2_$$_TSDL_HAPTICCUSTOM
	.quad	0

.section .data.n_RTTI_$SDL2_$$_PSDL_HAPTICEFFECT,"d"
	.balign 8
.globl	RTTI_$SDL2_$$_PSDL_HAPTICEFFECT
RTTI_$SDL2_$$_PSDL_HAPTICEFFECT:
	.byte	29,17
	.ascii	"PSDL_HapticEffect"
	.quad	RTTI_$SDL2_$$_TSDL_HAPTICEFFECT

.section .data.n_INIT_$SDL2_$$_TSDL_HAPTICEFFECT,"d"
	.balign 8
.globl	INIT_$SDL2_$$_TSDL_HAPTICEFFECT
INIT_$SDL2_$$_TSDL_HAPTICEFFECT:
	.byte	13,17
	.ascii	"TSDL_HapticEffect"
	.long	72,0

.section .data.n_RTTI_$SDL2_$$_TSDL_FINGER,"d"
	.balign 8
.globl	RTTI_$SDL2_$$_TSDL_FINGER
RTTI_$SDL2_$$_TSDL_FINGER:
	.byte	13,11
	.ascii	"TSDL_Finger"
	.long	24,4
	.quad	RTTI_$SYSTEM_$$_INT64
	.quad	0
	.quad	RTTI_$SYSTEM_$$_SINGLE
	.quad	8
	.quad	RTTI_$SYSTEM_$$_SINGLE
	.quad	12
	.quad	RTTI_$SYSTEM_$$_SINGLE
	.quad	16

.section .data.n_RTTI_$SDL2_$$_PSDL_FINGER,"d"
	.balign 8
.globl	RTTI_$SDL2_$$_PSDL_FINGER
RTTI_$SDL2_$$_PSDL_FINGER:
	.byte	29,11
	.ascii	"PSDL_Finger"
	.quad	RTTI_$SDL2_$$_TSDL_FINGER

.section .data.n_INIT_$SDL2_$$_TSDL_FINGER,"d"
	.balign 8
.globl	INIT_$SDL2_$$_TSDL_FINGER
INIT_$SDL2_$$_TSDL_FINGER:
	.byte	13,11
	.ascii	"TSDL_Finger"
	.long	24,0

.section .data.n_INIT_$SDL2_$$_TSDL_COMMONEVENT,"d"
	.balign 8
.globl	INIT_$SDL2_$$_TSDL_COMMONEVENT
INIT_$SDL2_$$_TSDL_COMMONEVENT:
	.byte	13,16
	.ascii	"TSDL_CommonEvent"
	.long	8,0

.section .data.n_RTTI_$SDL2_$$_TSDL_COMMONEVENT,"d"
	.balign 8
.globl	RTTI_$SDL2_$$_TSDL_COMMONEVENT
RTTI_$SDL2_$$_TSDL_COMMONEVENT:
	.byte	13,16
	.ascii	"TSDL_CommonEvent"
	.long	8,2
	.quad	RTTI_$SYSTEM_$$_LONGWORD
	.quad	0
	.quad	RTTI_$SYSTEM_$$_LONGWORD
	.quad	4

.section .data.n_INIT_$SDL2_$$_TSDL_WINDOWEVENT,"d"
	.balign 8
.globl	INIT_$SDL2_$$_TSDL_WINDOWEVENT
INIT_$SDL2_$$_TSDL_WINDOWEVENT:
	.byte	13,16
	.ascii	"TSDL_WindowEvent"
	.long	24,0

.section .data.n_RTTI_$SDL2_$$_TSDL_WINDOWEVENT,"d"
	.balign 8
.globl	RTTI_$SDL2_$$_TSDL_WINDOWEVENT
RTTI_$SDL2_$$_TSDL_WINDOWEVENT:
	.byte	13,16
	.ascii	"TSDL_WindowEvent"
	.long	24,9
	.quad	RTTI_$SYSTEM_$$_LONGWORD
	.quad	0
	.quad	RTTI_$SYSTEM_$$_LONGWORD
	.quad	4
	.quad	RTTI_$SYSTEM_$$_LONGWORD
	.quad	8
	.quad	RTTI_$SYSTEM_$$_BYTE
	.quad	12
	.quad	RTTI_$SYSTEM_$$_BYTE
	.quad	13
	.quad	RTTI_$SYSTEM_$$_BYTE
	.quad	14
	.quad	RTTI_$SYSTEM_$$_BYTE
	.quad	15
	.quad	RTTI_$SYSTEM_$$_LONGINT
	.quad	16
	.quad	RTTI_$SYSTEM_$$_LONGINT
	.quad	20

.section .data.n_INIT_$SDL2_$$_TSDL_KEYBOARDEVENT,"d"
	.balign 8
.globl	INIT_$SDL2_$$_TSDL_KEYBOARDEVENT
INIT_$SDL2_$$_TSDL_KEYBOARDEVENT:
	.byte	13,18
	.ascii	"TSDL_KeyboardEvent"
	.long	32,0

.section .data.n_RTTI_$SDL2_$$_TSDL_KEYBOARDEVENT,"d"
	.balign 8
.globl	RTTI_$SDL2_$$_TSDL_KEYBOARDEVENT
RTTI_$SDL2_$$_TSDL_KEYBOARDEVENT:
	.byte	13,18
	.ascii	"TSDL_KeyboardEvent"
	.long	32,8
	.quad	RTTI_$SYSTEM_$$_LONGWORD
	.quad	0
	.quad	RTTI_$SYSTEM_$$_LONGWORD
	.quad	4
	.quad	RTTI_$SYSTEM_$$_LONGWORD
	.quad	8
	.quad	RTTI_$SYSTEM_$$_BYTE
	.quad	12
	.quad	RTTI_$SYSTEM_$$_BYTE
	.quad	13
	.quad	RTTI_$SYSTEM_$$_BYTE
	.quad	14
	.quad	RTTI_$SYSTEM_$$_BYTE
	.quad	15
	.quad	RTTI_$SDL2_$$_TSDL_KEYSYM
	.quad	16

.section .data.n_INIT_$SDL2_$$_TSDL_TEXTEDITINGEVENT,"d"
	.balign 8
.globl	INIT_$SDL2_$$_TSDL_TEXTEDITINGEVENT
INIT_$SDL2_$$_TSDL_TEXTEDITINGEVENT:
	.byte	13,21
	.ascii	"TSDL_TextEditingEvent"
	.long	52,0

.section .data.n_RTTI_$SDL2_$$_DEF1195,"d"
	.balign 8
.globl	RTTI_$SDL2_$$_DEF1195
RTTI_$SDL2_$$_DEF1195:
	.byte	12
	.ascii	"\000"
	.quad	32,32
	.quad	RTTI_$SYSTEM_$$_CHAR
	.byte	1
	.quad	RTTI_$SYSTEM_$$_SHORTINT

.section .data.n_RTTI_$SDL2_$$_TSDL_TEXTEDITINGEVENT,"d"
	.balign 8
.globl	RTTI_$SDL2_$$_TSDL_TEXTEDITINGEVENT
RTTI_$SDL2_$$_TSDL_TEXTEDITINGEVENT:
	.byte	13,21
	.ascii	"TSDL_TextEditingEvent"
	.long	52,6
	.quad	RTTI_$SYSTEM_$$_LONGWORD
	.quad	0
	.quad	RTTI_$SYSTEM_$$_LONGWORD
	.quad	4
	.quad	RTTI_$SYSTEM_$$_LONGWORD
	.quad	8
	.quad	RTTI_$SDL2_$$_DEF1195
	.quad	12
	.quad	RTTI_$SYSTEM_$$_LONGINT
	.quad	44
	.quad	RTTI_$SYSTEM_$$_LONGINT
	.quad	48

.section .data.n_INIT_$SDL2_$$_TSDL_TEXTINPUTEVENT,"d"
	.balign 8
.globl	INIT_$SDL2_$$_TSDL_TEXTINPUTEVENT
INIT_$SDL2_$$_TSDL_TEXTINPUTEVENT:
	.byte	13,19
	.ascii	"TSDL_TextInputEvent"
	.long	44,0

.section .data.n_RTTI_$SDL2_$$_DEF1197,"d"
	.balign 8
.globl	RTTI_$SDL2_$$_DEF1197
RTTI_$SDL2_$$_DEF1197:
	.byte	12
	.ascii	"\000"
	.quad	32,32
	.quad	RTTI_$SYSTEM_$$_CHAR
	.byte	1
	.quad	RTTI_$SYSTEM_$$_SHORTINT

.section .data.n_RTTI_$SDL2_$$_TSDL_TEXTINPUTEVENT,"d"
	.balign 8
.globl	RTTI_$SDL2_$$_TSDL_TEXTINPUTEVENT
RTTI_$SDL2_$$_TSDL_TEXTINPUTEVENT:
	.byte	13,19
	.ascii	"TSDL_TextInputEvent"
	.long	44,4
	.quad	RTTI_$SYSTEM_$$_LONGWORD
	.quad	0
	.quad	RTTI_$SYSTEM_$$_LONGWORD
	.quad	4
	.quad	RTTI_$SYSTEM_$$_LONGWORD
	.quad	8
	.quad	RTTI_$SDL2_$$_DEF1197
	.quad	12

.section .data.n_INIT_$SDL2_$$_TSDL_MOUSEMOTIONEVENT,"d"
	.balign 8
.globl	INIT_$SDL2_$$_TSDL_MOUSEMOTIONEVENT
INIT_$SDL2_$$_TSDL_MOUSEMOTIONEVENT:
	.byte	13,21
	.ascii	"TSDL_MouseMotionEvent"
	.long	36,0

.section .data.n_RTTI_$SDL2_$$_TSDL_MOUSEMOTIONEVENT,"d"
	.balign 8
.globl	RTTI_$SDL2_$$_TSDL_MOUSEMOTIONEVENT
RTTI_$SDL2_$$_TSDL_MOUSEMOTIONEVENT:
	.byte	13,21
	.ascii	"TSDL_MouseMotionEvent"
	.long	36,9
	.quad	RTTI_$SYSTEM_$$_LONGWORD
	.quad	0
	.quad	RTTI_$SYSTEM_$$_LONGWORD
	.quad	4
	.quad	RTTI_$SYSTEM_$$_LONGWORD
	.quad	8
	.quad	RTTI_$SYSTEM_$$_LONGWORD
	.quad	12
	.quad	RTTI_$SYSTEM_$$_LONGWORD
	.quad	16
	.quad	RTTI_$SYSTEM_$$_LONGINT
	.quad	20
	.quad	RTTI_$SYSTEM_$$_LONGINT
	.quad	24
	.quad	RTTI_$SYSTEM_$$_LONGINT
	.quad	28
	.quad	RTTI_$SYSTEM_$$_LONGINT
	.quad	32

.section .data.n_INIT_$SDL2_$$_TSDL_MOUSEBUTTONEVENT,"d"
	.balign 8
.globl	INIT_$SDL2_$$_TSDL_MOUSEBUTTONEVENT
INIT_$SDL2_$$_TSDL_MOUSEBUTTONEVENT:
	.byte	13,21
	.ascii	"TSDL_MouseButtonEvent"
	.long	28,0

.section .data.n_RTTI_$SDL2_$$_TSDL_MOUSEBUTTONEVENT,"d"
	.balign 8
.globl	RTTI_$SDL2_$$_TSDL_MOUSEBUTTONEVENT
RTTI_$SDL2_$$_TSDL_MOUSEBUTTONEVENT:
	.byte	13,21
	.ascii	"TSDL_MouseButtonEvent"
	.long	28,10
	.quad	RTTI_$SYSTEM_$$_LONGWORD
	.quad	0
	.quad	RTTI_$SYSTEM_$$_LONGWORD
	.quad	4
	.quad	RTTI_$SYSTEM_$$_LONGWORD
	.quad	8
	.quad	RTTI_$SYSTEM_$$_LONGWORD
	.quad	12
	.quad	RTTI_$SYSTEM_$$_BYTE
	.quad	16
	.quad	RTTI_$SYSTEM_$$_BYTE
	.quad	17
	.quad	RTTI_$SYSTEM_$$_BYTE
	.quad	18
	.quad	RTTI_$SYSTEM_$$_BYTE
	.quad	19
	.quad	RTTI_$SYSTEM_$$_LONGINT
	.quad	20
	.quad	RTTI_$SYSTEM_$$_LONGINT
	.quad	24

.section .data.n_INIT_$SDL2_$$_TSDL_MOUSEWHEELEVENT,"d"
	.balign 8
.globl	INIT_$SDL2_$$_TSDL_MOUSEWHEELEVENT
INIT_$SDL2_$$_TSDL_MOUSEWHEELEVENT:
	.byte	13,20
	.ascii	"TSDL_MouseWheelEvent"
	.long	24,0

.section .data.n_RTTI_$SDL2_$$_TSDL_MOUSEWHEELEVENT,"d"
	.balign 8
.globl	RTTI_$SDL2_$$_TSDL_MOUSEWHEELEVENT
RTTI_$SDL2_$$_TSDL_MOUSEWHEELEVENT:
	.byte	13,20
	.ascii	"TSDL_MouseWheelEvent"
	.long	24,6
	.quad	RTTI_$SYSTEM_$$_LONGWORD
	.quad	0
	.quad	RTTI_$SYSTEM_$$_LONGWORD
	.quad	4
	.quad	RTTI_$SYSTEM_$$_LONGWORD
	.quad	8
	.quad	RTTI_$SYSTEM_$$_LONGWORD
	.quad	12
	.quad	RTTI_$SYSTEM_$$_LONGINT
	.quad	16
	.quad	RTTI_$SYSTEM_$$_LONGINT
	.quad	20

.section .data.n_INIT_$SDL2_$$_TSDL_JOYAXISEVENT,"d"
	.balign 8
.globl	INIT_$SDL2_$$_TSDL_JOYAXISEVENT
INIT_$SDL2_$$_TSDL_JOYAXISEVENT:
	.byte	13,17
	.ascii	"TSDL_JoyAxisEvent"
	.long	20,0

.section .data.n_RTTI_$SDL2_$$_TSDL_JOYAXISEVENT,"d"
	.balign 8
.globl	RTTI_$SDL2_$$_TSDL_JOYAXISEVENT
RTTI_$SDL2_$$_TSDL_JOYAXISEVENT:
	.byte	13,17
	.ascii	"TSDL_JoyAxisEvent"
	.long	20,9
	.quad	RTTI_$SYSTEM_$$_LONGWORD
	.quad	0
	.quad	RTTI_$SYSTEM_$$_LONGWORD
	.quad	4
	.quad	RTTI_$SYSTEM_$$_LONGINT
	.quad	8
	.quad	RTTI_$SYSTEM_$$_BYTE
	.quad	12
	.quad	RTTI_$SYSTEM_$$_BYTE
	.quad	13
	.quad	RTTI_$SYSTEM_$$_BYTE
	.quad	14
	.quad	RTTI_$SYSTEM_$$_BYTE
	.quad	15
	.quad	RTTI_$SYSTEM_$$_SMALLINT
	.quad	16
	.quad	RTTI_$SYSTEM_$$_WORD
	.quad	18

.section .data.n_INIT_$SDL2_$$_TSDL_JOYBALLEVENT,"d"
	.balign 8
.globl	INIT_$SDL2_$$_TSDL_JOYBALLEVENT
INIT_$SDL2_$$_TSDL_JOYBALLEVENT:
	.byte	13,17
	.ascii	"TSDL_JoyBallEvent"
	.long	20,0

.section .data.n_RTTI_$SDL2_$$_TSDL_JOYBALLEVENT,"d"
	.balign 8
.globl	RTTI_$SDL2_$$_TSDL_JOYBALLEVENT
RTTI_$SDL2_$$_TSDL_JOYBALLEVENT:
	.byte	13,17
	.ascii	"TSDL_JoyBallEvent"
	.long	20,9
	.quad	RTTI_$SYSTEM_$$_LONGWORD
	.quad	0
	.quad	RTTI_$SYSTEM_$$_LONGWORD
	.quad	4
	.quad	RTTI_$SYSTEM_$$_LONGINT
	.quad	8
	.quad	RTTI_$SYSTEM_$$_BYTE
	.quad	12
	.quad	RTTI_$SYSTEM_$$_BYTE
	.quad	13
	.quad	RTTI_$SYSTEM_$$_BYTE
	.quad	14
	.quad	RTTI_$SYSTEM_$$_BYTE
	.quad	15
	.quad	RTTI_$SYSTEM_$$_SMALLINT
	.quad	16
	.quad	RTTI_$SYSTEM_$$_SMALLINT
	.quad	18

.section .data.n_INIT_$SDL2_$$_TSDL_JOYHATEVENT,"d"
	.balign 8
.globl	INIT_$SDL2_$$_TSDL_JOYHATEVENT
INIT_$SDL2_$$_TSDL_JOYHATEVENT:
	.byte	13,16
	.ascii	"TSDL_JoyHatEvent"
	.long	16,0

.section .data.n_RTTI_$SDL2_$$_TSDL_JOYHATEVENT,"d"
	.balign 8
.globl	RTTI_$SDL2_$$_TSDL_JOYHATEVENT
RTTI_$SDL2_$$_TSDL_JOYHATEVENT:
	.byte	13,16
	.ascii	"TSDL_JoyHatEvent"
	.long	16,7
	.quad	RTTI_$SYSTEM_$$_LONGWORD
	.quad	0
	.quad	RTTI_$SYSTEM_$$_LONGWORD
	.quad	4
	.quad	RTTI_$SYSTEM_$$_LONGINT
	.quad	8
	.quad	RTTI_$SYSTEM_$$_BYTE
	.quad	12
	.quad	RTTI_$SYSTEM_$$_BYTE
	.quad	13
	.quad	RTTI_$SYSTEM_$$_BYTE
	.quad	14
	.quad	RTTI_$SYSTEM_$$_BYTE
	.quad	15

.section .data.n_INIT_$SDL2_$$_TSDL_JOYBUTTONEVENT,"d"
	.balign 8
.globl	INIT_$SDL2_$$_TSDL_JOYBUTTONEVENT
INIT_$SDL2_$$_TSDL_JOYBUTTONEVENT:
	.byte	13,19
	.ascii	"TSDL_JoyButtonEvent"
	.long	16,0

.section .data.n_RTTI_$SDL2_$$_TSDL_JOYBUTTONEVENT,"d"
	.balign 8
.globl	RTTI_$SDL2_$$_TSDL_JOYBUTTONEVENT
RTTI_$SDL2_$$_TSDL_JOYBUTTONEVENT:
	.byte	13,19
	.ascii	"TSDL_JoyButtonEvent"
	.long	16,7
	.quad	RTTI_$SYSTEM_$$_LONGWORD
	.quad	0
	.quad	RTTI_$SYSTEM_$$_LONGWORD
	.quad	4
	.quad	RTTI_$SYSTEM_$$_LONGINT
	.quad	8
	.quad	RTTI_$SYSTEM_$$_BYTE
	.quad	12
	.quad	RTTI_$SYSTEM_$$_BYTE
	.quad	13
	.quad	RTTI_$SYSTEM_$$_BYTE
	.quad	14
	.quad	RTTI_$SYSTEM_$$_BYTE
	.quad	15

.section .data.n_INIT_$SDL2_$$_TSDL_JOYDEVICEEVENT,"d"
	.balign 8
.globl	INIT_$SDL2_$$_TSDL_JOYDEVICEEVENT
INIT_$SDL2_$$_TSDL_JOYDEVICEEVENT:
	.byte	13,19
	.ascii	"TSDL_JoyDeviceEvent"
	.long	12,0

.section .data.n_RTTI_$SDL2_$$_TSDL_JOYDEVICEEVENT,"d"
	.balign 8
.globl	RTTI_$SDL2_$$_TSDL_JOYDEVICEEVENT
RTTI_$SDL2_$$_TSDL_JOYDEVICEEVENT:
	.byte	13,19
	.ascii	"TSDL_JoyDeviceEvent"
	.long	12,3
	.quad	RTTI_$SYSTEM_$$_LONGWORD
	.quad	0
	.quad	RTTI_$SYSTEM_$$_LONGWORD
	.quad	4
	.quad	RTTI_$SYSTEM_$$_LONGINT
	.quad	8

.section .data.n_INIT_$SDL2_$$_TSDL_CONTROLLERAXISEVENT,"d"
	.balign 8
.globl	INIT_$SDL2_$$_TSDL_CONTROLLERAXISEVENT
INIT_$SDL2_$$_TSDL_CONTROLLERAXISEVENT:
	.byte	13,24
	.ascii	"TSDL_ControllerAxisEvent"
	.long	20,0

.section .data.n_RTTI_$SDL2_$$_TSDL_CONTROLLERAXISEVENT,"d"
	.balign 8
.globl	RTTI_$SDL2_$$_TSDL_CONTROLLERAXISEVENT
RTTI_$SDL2_$$_TSDL_CONTROLLERAXISEVENT:
	.byte	13,24
	.ascii	"TSDL_ControllerAxisEvent"
	.long	20,9
	.quad	RTTI_$SYSTEM_$$_LONGWORD
	.quad	0
	.quad	RTTI_$SYSTEM_$$_LONGWORD
	.quad	4
	.quad	RTTI_$SYSTEM_$$_LONGINT
	.quad	8
	.quad	RTTI_$SYSTEM_$$_BYTE
	.quad	12
	.quad	RTTI_$SYSTEM_$$_BYTE
	.quad	13
	.quad	RTTI_$SYSTEM_$$_BYTE
	.quad	14
	.quad	RTTI_$SYSTEM_$$_BYTE
	.quad	15
	.quad	RTTI_$SYSTEM_$$_SMALLINT
	.quad	16
	.quad	RTTI_$SYSTEM_$$_WORD
	.quad	18

.section .data.n_INIT_$SDL2_$$_TSDL_CONTROLLERBUTTONEVENT,"d"
	.balign 8
.globl	INIT_$SDL2_$$_TSDL_CONTROLLERBUTTONEVENT
INIT_$SDL2_$$_TSDL_CONTROLLERBUTTONEVENT:
	.byte	13,26
	.ascii	"TSDL_ControllerButtonEvent"
	.long	16,0

.section .data.n_RTTI_$SDL2_$$_TSDL_CONTROLLERBUTTONEVENT,"d"
	.balign 8
.globl	RTTI_$SDL2_$$_TSDL_CONTROLLERBUTTONEVENT
RTTI_$SDL2_$$_TSDL_CONTROLLERBUTTONEVENT:
	.byte	13,26
	.ascii	"TSDL_ControllerButtonEvent"
	.long	16,7
	.quad	RTTI_$SYSTEM_$$_LONGWORD
	.quad	0
	.quad	RTTI_$SYSTEM_$$_LONGWORD
	.quad	4
	.quad	RTTI_$SYSTEM_$$_LONGINT
	.quad	8
	.quad	RTTI_$SYSTEM_$$_BYTE
	.quad	12
	.quad	RTTI_$SYSTEM_$$_BYTE
	.quad	13
	.quad	RTTI_$SYSTEM_$$_BYTE
	.quad	14
	.quad	RTTI_$SYSTEM_$$_BYTE
	.quad	15

.section .data.n_INIT_$SDL2_$$_TSDL_CONTROLLERDEVICEEVENT,"d"
	.balign 8
.globl	INIT_$SDL2_$$_TSDL_CONTROLLERDEVICEEVENT
INIT_$SDL2_$$_TSDL_CONTROLLERDEVICEEVENT:
	.byte	13,26
	.ascii	"TSDL_ControllerDeviceEvent"
	.long	12,0

.section .data.n_RTTI_$SDL2_$$_TSDL_CONTROLLERDEVICEEVENT,"d"
	.balign 8
.globl	RTTI_$SDL2_$$_TSDL_CONTROLLERDEVICEEVENT
RTTI_$SDL2_$$_TSDL_CONTROLLERDEVICEEVENT:
	.byte	13,26
	.ascii	"TSDL_ControllerDeviceEvent"
	.long	12,3
	.quad	RTTI_$SYSTEM_$$_LONGWORD
	.quad	0
	.quad	RTTI_$SYSTEM_$$_LONGWORD
	.quad	4
	.quad	RTTI_$SYSTEM_$$_LONGINT
	.quad	8

.section .data.n_INIT_$SDL2_$$_TSDL_TOUCHFINGEREVENT,"d"
	.balign 8
.globl	INIT_$SDL2_$$_TSDL_TOUCHFINGEREVENT
INIT_$SDL2_$$_TSDL_TOUCHFINGEREVENT:
	.byte	13,21
	.ascii	"TSDL_TouchFingerEvent"
	.long	48,0

.section .data.n_RTTI_$SDL2_$$_TSDL_TOUCHFINGEREVENT,"d"
	.balign 8
.globl	RTTI_$SDL2_$$_TSDL_TOUCHFINGEREVENT
RTTI_$SDL2_$$_TSDL_TOUCHFINGEREVENT:
	.byte	13,21
	.ascii	"TSDL_TouchFingerEvent"
	.long	48,9
	.quad	RTTI_$SYSTEM_$$_LONGWORD
	.quad	0
	.quad	RTTI_$SYSTEM_$$_LONGWORD
	.quad	4
	.quad	RTTI_$SYSTEM_$$_INT64
	.quad	8
	.quad	RTTI_$SYSTEM_$$_INT64
	.quad	16
	.quad	RTTI_$SYSTEM_$$_SINGLE
	.quad	24
	.quad	RTTI_$SYSTEM_$$_SINGLE
	.quad	28
	.quad	RTTI_$SYSTEM_$$_SINGLE
	.quad	32
	.quad	RTTI_$SYSTEM_$$_SINGLE
	.quad	36
	.quad	RTTI_$SYSTEM_$$_SINGLE
	.quad	40

.section .data.n_INIT_$SDL2_$$_TSDL_MULTIGESTUREEVENT,"d"
	.balign 8
.globl	INIT_$SDL2_$$_TSDL_MULTIGESTUREEVENT
INIT_$SDL2_$$_TSDL_MULTIGESTUREEVENT:
	.byte	13,22
	.ascii	"TSDL_MultiGestureEvent"
	.long	40,0

.section .data.n_RTTI_$SDL2_$$_TSDL_MULTIGESTUREEVENT,"d"
	.balign 8
.globl	RTTI_$SDL2_$$_TSDL_MULTIGESTUREEVENT
RTTI_$SDL2_$$_TSDL_MULTIGESTUREEVENT:
	.byte	13,22
	.ascii	"TSDL_MultiGestureEvent"
	.long	40,9
	.quad	RTTI_$SYSTEM_$$_LONGWORD
	.quad	0
	.quad	RTTI_$SYSTEM_$$_LONGWORD
	.quad	4
	.quad	RTTI_$SYSTEM_$$_INT64
	.quad	8
	.quad	RTTI_$SYSTEM_$$_SINGLE
	.quad	16
	.quad	RTTI_$SYSTEM_$$_SINGLE
	.quad	20
	.quad	RTTI_$SYSTEM_$$_SINGLE
	.quad	24
	.quad	RTTI_$SYSTEM_$$_SINGLE
	.quad	28
	.quad	RTTI_$SYSTEM_$$_WORD
	.quad	32
	.quad	RTTI_$SYSTEM_$$_WORD
	.quad	34

.section .data.n_INIT_$SDL2_$$_TSDL_DOLLARGESTUREEVENT,"d"
	.balign 8
.globl	INIT_$SDL2_$$_TSDL_DOLLARGESTUREEVENT
INIT_$SDL2_$$_TSDL_DOLLARGESTUREEVENT:
	.byte	13,23
	.ascii	"TSDL_DollarGestureEvent"
	.long	40,0

.section .data.n_RTTI_$SDL2_$$_TSDL_DOLLARGESTUREEVENT,"d"
	.balign 8
.globl	RTTI_$SDL2_$$_TSDL_DOLLARGESTUREEVENT
RTTI_$SDL2_$$_TSDL_DOLLARGESTUREEVENT:
	.byte	13,23
	.ascii	"TSDL_DollarGestureEvent"
	.long	40,8
	.quad	RTTI_$SYSTEM_$$_LONGWORD
	.quad	0
	.quad	RTTI_$SYSTEM_$$_LONGWORD
	.quad	4
	.quad	RTTI_$SYSTEM_$$_INT64
	.quad	8
	.quad	RTTI_$SYSTEM_$$_INT64
	.quad	16
	.quad	RTTI_$SYSTEM_$$_LONGWORD
	.quad	24
	.quad	RTTI_$SYSTEM_$$_SINGLE
	.quad	28
	.quad	RTTI_$SYSTEM_$$_SINGLE
	.quad	32
	.quad	RTTI_$SYSTEM_$$_SINGLE
	.quad	36

.section .data.n_INIT_$SDL2_$$_TSDL_DROPEVENT,"d"
	.balign 8
.globl	INIT_$SDL2_$$_TSDL_DROPEVENT
INIT_$SDL2_$$_TSDL_DROPEVENT:
	.byte	13,14
	.ascii	"TSDL_DropEvent"
	.long	16,0

.section .data.n_RTTI_$SDL2_$$_TSDL_DROPEVENT,"d"
	.balign 8
.globl	RTTI_$SDL2_$$_TSDL_DROPEVENT
RTTI_$SDL2_$$_TSDL_DROPEVENT:
	.byte	13,14
	.ascii	"TSDL_DropEvent"
	.long	16,3
	.quad	RTTI_$SYSTEM_$$_LONGWORD
	.quad	0
	.quad	RTTI_$SYSTEM_$$_LONGWORD
	.quad	4
	.quad	RTTI_$SYSTEM_$$_PCHAR
	.quad	8

.section .data.n_INIT_$SDL2_$$_TSDL_QUITEVENT,"d"
	.balign 8
.globl	INIT_$SDL2_$$_TSDL_QUITEVENT
INIT_$SDL2_$$_TSDL_QUITEVENT:
	.byte	13,14
	.ascii	"TSDL_QuitEvent"
	.long	8,0

.section .data.n_RTTI_$SDL2_$$_TSDL_QUITEVENT,"d"
	.balign 8
.globl	RTTI_$SDL2_$$_TSDL_QUITEVENT
RTTI_$SDL2_$$_TSDL_QUITEVENT:
	.byte	13,14
	.ascii	"TSDL_QuitEvent"
	.long	8,2
	.quad	RTTI_$SYSTEM_$$_LONGWORD
	.quad	0
	.quad	RTTI_$SYSTEM_$$_LONGWORD
	.quad	4

.section .data.n_INIT_$SDL2_$$_TSDL_OSEVENT,"d"
	.balign 8
.globl	INIT_$SDL2_$$_TSDL_OSEVENT
INIT_$SDL2_$$_TSDL_OSEVENT:
	.byte	13,12
	.ascii	"TSDL_OSEvent"
	.long	8,0

.section .data.n_RTTI_$SDL2_$$_TSDL_OSEVENT,"d"
	.balign 8
.globl	RTTI_$SDL2_$$_TSDL_OSEVENT
RTTI_$SDL2_$$_TSDL_OSEVENT:
	.byte	13,12
	.ascii	"TSDL_OSEvent"
	.long	8,2
	.quad	RTTI_$SYSTEM_$$_LONGWORD
	.quad	0
	.quad	RTTI_$SYSTEM_$$_LONGWORD
	.quad	4

.section .data.n_INIT_$SDL2_$$_TSDL_USEREVENT,"d"
	.balign 8
.globl	INIT_$SDL2_$$_TSDL_USEREVENT
INIT_$SDL2_$$_TSDL_USEREVENT:
	.byte	13,14
	.ascii	"TSDL_UserEvent"
	.long	32,0

.section .data.n_RTTI_$SDL2_$$_TSDL_USEREVENT,"d"
	.balign 8
.globl	RTTI_$SDL2_$$_TSDL_USEREVENT
RTTI_$SDL2_$$_TSDL_USEREVENT:
	.byte	13,14
	.ascii	"TSDL_UserEvent"
	.long	32,6
	.quad	RTTI_$SYSTEM_$$_LONGWORD
	.quad	0
	.quad	RTTI_$SYSTEM_$$_LONGWORD
	.quad	4
	.quad	RTTI_$SYSTEM_$$_LONGWORD
	.quad	8
	.quad	RTTI_$SYSTEM_$$_LONGINT
	.quad	12
	.quad	RTTI_$SYSTEM_$$_POINTER
	.quad	16
	.quad	RTTI_$SYSTEM_$$_POINTER
	.quad	24

.section .data.n_INIT_$SDL2_$$_TSDL_SYSWMEVENT,"d"
	.balign 8
.globl	INIT_$SDL2_$$_TSDL_SYSWMEVENT
INIT_$SDL2_$$_TSDL_SYSWMEVENT:
	.byte	13,15
	.ascii	"TSDL_SysWMEvent"
	.long	16,0

.section .data.n_RTTI_$SDL2_$$_TSDL_SYSWMEVENT,"d"
	.balign 8
.globl	RTTI_$SDL2_$$_TSDL_SYSWMEVENT
RTTI_$SDL2_$$_TSDL_SYSWMEVENT:
	.byte	13,15
	.ascii	"TSDL_SysWMEvent"
	.long	16,3
	.quad	RTTI_$SYSTEM_$$_LONGWORD
	.quad	0
	.quad	RTTI_$SYSTEM_$$_LONGWORD
	.quad	4
	.quad	RTTI_$SYSTEM_$$_POINTER
	.quad	8

.section .data.n_RTTI_$SDL2_$$_DEF1220,"d"
	.balign 8
.globl	RTTI_$SDL2_$$_DEF1220
RTTI_$SDL2_$$_DEF1220:
	.byte	12
	.ascii	"\000"
	.quad	56,56
	.quad	RTTI_$SYSTEM_$$_BYTE
	.byte	1
	.quad	RTTI_$SYSTEM_$$_SHORTINT

.section .data.n_RTTI_$SDL2_$$_TSDL_EVENT,"d"
	.balign 8
.globl	RTTI_$SDL2_$$_TSDL_EVENT
RTTI_$SDL2_$$_TSDL_EVENT:
	.byte	13,10
	.ascii	"TSDL_Event"
	.long	56,25
	.quad	RTTI_$SYSTEM_$$_LONGWORD
	.quad	0
	.quad	RTTI_$SDL2_$$_TSDL_COMMONEVENT
	.quad	0
	.quad	RTTI_$SDL2_$$_TSDL_WINDOWEVENT
	.quad	0
	.quad	RTTI_$SDL2_$$_TSDL_KEYBOARDEVENT
	.quad	0
	.quad	RTTI_$SDL2_$$_TSDL_TEXTEDITINGEVENT
	.quad	0
	.quad	RTTI_$SDL2_$$_TSDL_TEXTINPUTEVENT
	.quad	0
	.quad	RTTI_$SDL2_$$_TSDL_MOUSEMOTIONEVENT
	.quad	0
	.quad	RTTI_$SDL2_$$_TSDL_MOUSEBUTTONEVENT
	.quad	0
	.quad	RTTI_$SDL2_$$_TSDL_MOUSEWHEELEVENT
	.quad	0
	.quad	RTTI_$SDL2_$$_TSDL_JOYAXISEVENT
	.quad	0
	.quad	RTTI_$SDL2_$$_TSDL_JOYBALLEVENT
	.quad	0
	.quad	RTTI_$SDL2_$$_TSDL_JOYHATEVENT
	.quad	0
	.quad	RTTI_$SDL2_$$_TSDL_JOYBUTTONEVENT
	.quad	0
	.quad	RTTI_$SDL2_$$_TSDL_JOYDEVICEEVENT
	.quad	0
	.quad	RTTI_$SDL2_$$_TSDL_CONTROLLERAXISEVENT
	.quad	0
	.quad	RTTI_$SDL2_$$_TSDL_CONTROLLERBUTTONEVENT
	.quad	0
	.quad	RTTI_$SDL2_$$_TSDL_CONTROLLERDEVICEEVENT
	.quad	0
	.quad	RTTI_$SDL2_$$_TSDL_QUITEVENT
	.quad	0
	.quad	RTTI_$SDL2_$$_TSDL_USEREVENT
	.quad	0
	.quad	RTTI_$SDL2_$$_TSDL_SYSWMEVENT
	.quad	0
	.quad	RTTI_$SDL2_$$_TSDL_TOUCHFINGEREVENT
	.quad	0
	.quad	RTTI_$SDL2_$$_TSDL_MULTIGESTUREEVENT
	.quad	0
	.quad	RTTI_$SDL2_$$_TSDL_DOLLARGESTUREEVENT
	.quad	0
	.quad	RTTI_$SDL2_$$_TSDL_DROPEVENT
	.quad	0
	.quad	RTTI_$SDL2_$$_DEF1220
	.quad	0

.section .data.n_RTTI_$SDL2_$$_PSDL_EVENT,"d"
	.balign 8
.globl	RTTI_$SDL2_$$_PSDL_EVENT
RTTI_$SDL2_$$_PSDL_EVENT:
	.byte	29,10
	.ascii	"PSDL_Event"
	.quad	RTTI_$SDL2_$$_TSDL_EVENT

.section .data.n_INIT_$SDL2_$$_TSDL_EVENT,"d"
	.balign 8
.globl	INIT_$SDL2_$$_TSDL_EVENT
INIT_$SDL2_$$_TSDL_EVENT:
	.byte	13,10
	.ascii	"TSDL_Event"
	.long	56,0

.section .data.n_RTTI_$SDL2_$$_TSDL_EVENTACTION,"d"
	.balign 8
.globl	RTTI_$SDL2_$$_TSDL_EVENTACTION
RTTI_$SDL2_$$_TSDL_EVENTACTION:
	.byte	3,16
	.ascii	"TSDL_eventaction"
	.byte	5
	.long	0,2
	.quad	0
	.byte	12
	.ascii	"SDL_ADDEVENT"
	.byte	13
	.ascii	"SDL_PEEKEVENT"
	.byte	12
	.ascii	"SDL_GETEVENT"
	.byte	4
	.ascii	"SDL2"
	.byte	0

.section .data.n_RTTI_$SDL2_$$_TSDL_EVENTACTION_s2o,"d"
	.balign 8
.globl	RTTI_$SDL2_$$_TSDL_EVENTACTION_s2o
RTTI_$SDL2_$$_TSDL_EVENTACTION_s2o:
	.long	3,0
	.quad	RTTI_$SDL2_$$_TSDL_EVENTACTION+35
	.long	2
	.quad	RTTI_$SDL2_$$_TSDL_EVENTACTION+62
	.long	1
	.quad	RTTI_$SDL2_$$_TSDL_EVENTACTION+48

.section .data.n_RTTI_$SDL2_$$_TSDL_EVENTACTION_o2s,"d"
	.balign 8
.globl	RTTI_$SDL2_$$_TSDL_EVENTACTION_o2s
RTTI_$SDL2_$$_TSDL_EVENTACTION_o2s:
	.long	0
	.quad	RTTI_$SDL2_$$_TSDL_EVENTACTION+35
	.quad	RTTI_$SDL2_$$_TSDL_EVENTACTION+48
	.quad	RTTI_$SDL2_$$_TSDL_EVENTACTION+62

.section .data.n_RTTI_$SDL2_$$_TSDL_EVENTFILTER,"d"
	.balign 8
.globl	RTTI_$SDL2_$$_TSDL_EVENTFILTER
RTTI_$SDL2_$$_TSDL_EVENTFILTER:
	.byte	23,16
	.ascii	"TSDL_EventFilter"
	.byte	0,1
	.quad	RTTI_$SYSTEM_$$_LONGINT
	.byte	2,0
	.quad	RTTI_$SYSTEM_$$_POINTER
	.byte	8
	.ascii	"userdata"
	.byte	0
	.quad	RTTI_$SDL2_$$_PSDL_EVENT
	.byte	5
	.ascii	"event"

.section .data.n_RTTI_$SDL2_$$_PSDL_EVENTFILTER,"d"
	.balign 8
.globl	RTTI_$SDL2_$$_PSDL_EVENTFILTER
RTTI_$SDL2_$$_PSDL_EVENTFILTER:
	.byte	29,16
	.ascii	"PSDL_EventFilter"
	.quad	RTTI_$SDL2_$$_TSDL_EVENTFILTER
# End asmlist al_rtti
# Begin asmlist al_dwarf_frame

.section .debug_frame
.Lc301:
	.long	.Lc303-.Lc302
.Lc302:
	.long	-1
	.byte	1
	.byte	0
	.uleb128	1
	.sleb128	-4
	.byte	16
	.byte	12
	.uleb128	7
	.uleb128	8
	.byte	5
	.uleb128	16
	.uleb128	2
	.balign 4,0
.Lc303:
	.long	.Lc305-.Lc304
.Lc304:
	.secrel32	.Lc301
	.quad	.Lc1
	.quad	.Lc2-.Lc1
	.byte	4
	.long	.Lc3-.Lc1
	.byte	14
	.uleb128	16
	.byte	4
	.long	.Lc4-.Lc3
	.byte	5
	.uleb128	6
	.uleb128	4
	.byte	4
	.long	.Lc5-.Lc4
	.byte	13
	.uleb128	6
	.balign 4,0
.Lc305:
	.long	.Lc307-.Lc306
.Lc306:
	.secrel32	.Lc301
	.quad	.Lc6
	.quad	.Lc7-.Lc6
	.byte	4
	.long	.Lc8-.Lc6
	.byte	14
	.uleb128	16
	.byte	4
	.long	.Lc9-.Lc8
	.byte	5
	.uleb128	6
	.uleb128	4
	.byte	4
	.long	.Lc10-.Lc9
	.byte	13
	.uleb128	6
	.balign 4,0
.Lc307:
	.long	.Lc309-.Lc308
.Lc308:
	.secrel32	.Lc301
	.quad	.Lc11
	.quad	.Lc12-.Lc11
	.byte	4
	.long	.Lc13-.Lc11
	.byte	14
	.uleb128	16
	.byte	4
	.long	.Lc14-.Lc13
	.byte	5
	.uleb128	6
	.uleb128	4
	.byte	4
	.long	.Lc15-.Lc14
	.byte	13
	.uleb128	6
	.balign 4,0
.Lc309:
	.long	.Lc311-.Lc310
.Lc310:
	.secrel32	.Lc301
	.quad	.Lc16
	.quad	.Lc17-.Lc16
	.byte	4
	.long	.Lc18-.Lc16
	.byte	14
	.uleb128	16
	.byte	4
	.long	.Lc19-.Lc18
	.byte	5
	.uleb128	6
	.uleb128	4
	.byte	4
	.long	.Lc20-.Lc19
	.byte	13
	.uleb128	6
	.balign 4,0
.Lc311:
	.long	.Lc313-.Lc312
.Lc312:
	.secrel32	.Lc301
	.quad	.Lc21
	.quad	.Lc22-.Lc21
	.byte	4
	.long	.Lc23-.Lc21
	.byte	14
	.uleb128	16
	.byte	4
	.long	.Lc24-.Lc23
	.byte	5
	.uleb128	6
	.uleb128	4
	.byte	4
	.long	.Lc25-.Lc24
	.byte	13
	.uleb128	6
	.balign 4,0
.Lc313:
	.long	.Lc315-.Lc314
.Lc314:
	.secrel32	.Lc301
	.quad	.Lc26
	.quad	.Lc27-.Lc26
	.byte	4
	.long	.Lc28-.Lc26
	.byte	14
	.uleb128	16
	.byte	4
	.long	.Lc29-.Lc28
	.byte	5
	.uleb128	6
	.uleb128	4
	.byte	4
	.long	.Lc30-.Lc29
	.byte	13
	.uleb128	6
	.balign 4,0
.Lc315:
	.long	.Lc317-.Lc316
.Lc316:
	.secrel32	.Lc301
	.quad	.Lc31
	.quad	.Lc32-.Lc31
	.byte	4
	.long	.Lc33-.Lc31
	.byte	14
	.uleb128	16
	.byte	4
	.long	.Lc34-.Lc33
	.byte	5
	.uleb128	6
	.uleb128	4
	.byte	4
	.long	.Lc35-.Lc34
	.byte	13
	.uleb128	6
	.balign 4,0
.Lc317:
	.long	.Lc319-.Lc318
.Lc318:
	.secrel32	.Lc301
	.quad	.Lc36
	.quad	.Lc37-.Lc36
	.byte	4
	.long	.Lc38-.Lc36
	.byte	14
	.uleb128	16
	.byte	4
	.long	.Lc39-.Lc38
	.byte	5
	.uleb128	6
	.uleb128	4
	.byte	4
	.long	.Lc40-.Lc39
	.byte	13
	.uleb128	6
	.balign 4,0
.Lc319:
	.long	.Lc321-.Lc320
.Lc320:
	.secrel32	.Lc301
	.quad	.Lc41
	.quad	.Lc42-.Lc41
	.byte	4
	.long	.Lc43-.Lc41
	.byte	14
	.uleb128	16
	.byte	4
	.long	.Lc44-.Lc43
	.byte	5
	.uleb128	6
	.uleb128	4
	.byte	4
	.long	.Lc45-.Lc44
	.byte	13
	.uleb128	6
	.balign 4,0
.Lc321:
	.long	.Lc323-.Lc322
.Lc322:
	.secrel32	.Lc301
	.quad	.Lc46
	.quad	.Lc47-.Lc46
	.byte	4
	.long	.Lc48-.Lc46
	.byte	14
	.uleb128	16
	.byte	4
	.long	.Lc49-.Lc48
	.byte	5
	.uleb128	6
	.uleb128	4
	.byte	4
	.long	.Lc50-.Lc49
	.byte	13
	.uleb128	6
	.balign 4,0
.Lc323:
	.long	.Lc325-.Lc324
.Lc324:
	.secrel32	.Lc301
	.quad	.Lc51
	.quad	.Lc52-.Lc51
	.byte	4
	.long	.Lc53-.Lc51
	.byte	14
	.uleb128	16
	.byte	4
	.long	.Lc54-.Lc53
	.byte	5
	.uleb128	6
	.uleb128	4
	.byte	4
	.long	.Lc55-.Lc54
	.byte	13
	.uleb128	6
	.balign 4,0
.Lc325:
	.long	.Lc327-.Lc326
.Lc326:
	.secrel32	.Lc301
	.quad	.Lc56
	.quad	.Lc57-.Lc56
	.byte	4
	.long	.Lc58-.Lc56
	.byte	14
	.uleb128	16
	.byte	4
	.long	.Lc59-.Lc58
	.byte	5
	.uleb128	6
	.uleb128	4
	.byte	4
	.long	.Lc60-.Lc59
	.byte	13
	.uleb128	6
	.balign 4,0
.Lc327:
	.long	.Lc329-.Lc328
.Lc328:
	.secrel32	.Lc301
	.quad	.Lc61
	.quad	.Lc62-.Lc61
	.byte	4
	.long	.Lc63-.Lc61
	.byte	14
	.uleb128	16
	.byte	4
	.long	.Lc64-.Lc63
	.byte	5
	.uleb128	6
	.uleb128	4
	.byte	4
	.long	.Lc65-.Lc64
	.byte	13
	.uleb128	6
	.balign 4,0
.Lc329:
	.long	.Lc331-.Lc330
.Lc330:
	.secrel32	.Lc301
	.quad	.Lc66
	.quad	.Lc67-.Lc66
	.byte	4
	.long	.Lc68-.Lc66
	.byte	14
	.uleb128	16
	.byte	4
	.long	.Lc69-.Lc68
	.byte	5
	.uleb128	6
	.uleb128	4
	.byte	4
	.long	.Lc70-.Lc69
	.byte	13
	.uleb128	6
	.balign 4,0
.Lc331:
	.long	.Lc333-.Lc332
.Lc332:
	.secrel32	.Lc301
	.quad	.Lc71
	.quad	.Lc72-.Lc71
	.byte	4
	.long	.Lc73-.Lc71
	.byte	14
	.uleb128	16
	.byte	4
	.long	.Lc74-.Lc73
	.byte	5
	.uleb128	6
	.uleb128	4
	.byte	4
	.long	.Lc75-.Lc74
	.byte	13
	.uleb128	6
	.balign 4,0
.Lc333:
	.long	.Lc335-.Lc334
.Lc334:
	.secrel32	.Lc301
	.quad	.Lc76
	.quad	.Lc77-.Lc76
	.byte	4
	.long	.Lc78-.Lc76
	.byte	14
	.uleb128	16
	.byte	4
	.long	.Lc79-.Lc78
	.byte	5
	.uleb128	6
	.uleb128	4
	.byte	4
	.long	.Lc80-.Lc79
	.byte	13
	.uleb128	6
	.balign 4,0
.Lc335:
	.long	.Lc337-.Lc336
.Lc336:
	.secrel32	.Lc301
	.quad	.Lc81
	.quad	.Lc82-.Lc81
	.byte	4
	.long	.Lc83-.Lc81
	.byte	14
	.uleb128	16
	.byte	4
	.long	.Lc84-.Lc83
	.byte	5
	.uleb128	6
	.uleb128	4
	.byte	4
	.long	.Lc85-.Lc84
	.byte	13
	.uleb128	6
	.balign 4,0
.Lc337:
	.long	.Lc339-.Lc338
.Lc338:
	.secrel32	.Lc301
	.quad	.Lc86
	.quad	.Lc87-.Lc86
	.byte	4
	.long	.Lc88-.Lc86
	.byte	14
	.uleb128	16
	.byte	4
	.long	.Lc89-.Lc88
	.byte	5
	.uleb128	6
	.uleb128	4
	.byte	4
	.long	.Lc90-.Lc89
	.byte	13
	.uleb128	6
	.balign 4,0
.Lc339:
	.long	.Lc341-.Lc340
.Lc340:
	.secrel32	.Lc301
	.quad	.Lc91
	.quad	.Lc92-.Lc91
	.byte	4
	.long	.Lc93-.Lc91
	.byte	14
	.uleb128	16
	.byte	4
	.long	.Lc94-.Lc93
	.byte	5
	.uleb128	6
	.uleb128	4
	.byte	4
	.long	.Lc95-.Lc94
	.byte	13
	.uleb128	6
	.balign 4,0
.Lc341:
	.long	.Lc343-.Lc342
.Lc342:
	.secrel32	.Lc301
	.quad	.Lc96
	.quad	.Lc97-.Lc96
	.byte	4
	.long	.Lc98-.Lc96
	.byte	14
	.uleb128	16
	.byte	4
	.long	.Lc99-.Lc98
	.byte	5
	.uleb128	6
	.uleb128	4
	.byte	4
	.long	.Lc100-.Lc99
	.byte	13
	.uleb128	6
	.balign 4,0
.Lc343:
	.long	.Lc345-.Lc344
.Lc344:
	.secrel32	.Lc301
	.quad	.Lc101
	.quad	.Lc102-.Lc101
	.byte	4
	.long	.Lc103-.Lc101
	.byte	14
	.uleb128	16
	.byte	4
	.long	.Lc104-.Lc103
	.byte	5
	.uleb128	6
	.uleb128	4
	.byte	4
	.long	.Lc105-.Lc104
	.byte	13
	.uleb128	6
	.balign 4,0
.Lc345:
	.long	.Lc347-.Lc346
.Lc346:
	.secrel32	.Lc301
	.quad	.Lc106
	.quad	.Lc107-.Lc106
	.byte	4
	.long	.Lc108-.Lc106
	.byte	14
	.uleb128	16
	.byte	4
	.long	.Lc109-.Lc108
	.byte	5
	.uleb128	6
	.uleb128	4
	.byte	4
	.long	.Lc110-.Lc109
	.byte	13
	.uleb128	6
	.balign 4,0
.Lc347:
	.long	.Lc349-.Lc348
.Lc348:
	.secrel32	.Lc301
	.quad	.Lc111
	.quad	.Lc112-.Lc111
	.byte	4
	.long	.Lc113-.Lc111
	.byte	14
	.uleb128	16
	.byte	4
	.long	.Lc114-.Lc113
	.byte	5
	.uleb128	6
	.uleb128	4
	.byte	4
	.long	.Lc115-.Lc114
	.byte	13
	.uleb128	6
	.balign 4,0
.Lc349:
	.long	.Lc351-.Lc350
.Lc350:
	.secrel32	.Lc301
	.quad	.Lc116
	.quad	.Lc117-.Lc116
	.byte	4
	.long	.Lc118-.Lc116
	.byte	14
	.uleb128	16
	.byte	4
	.long	.Lc119-.Lc118
	.byte	5
	.uleb128	6
	.uleb128	4
	.byte	4
	.long	.Lc120-.Lc119
	.byte	13
	.uleb128	6
	.balign 4,0
.Lc351:
	.long	.Lc353-.Lc352
.Lc352:
	.secrel32	.Lc301
	.quad	.Lc121
	.quad	.Lc122-.Lc121
	.byte	4
	.long	.Lc123-.Lc121
	.byte	14
	.uleb128	16
	.byte	4
	.long	.Lc124-.Lc123
	.byte	5
	.uleb128	6
	.uleb128	4
	.byte	4
	.long	.Lc125-.Lc124
	.byte	13
	.uleb128	6
	.balign 4,0
.Lc353:
	.long	.Lc355-.Lc354
.Lc354:
	.secrel32	.Lc301
	.quad	.Lc126
	.quad	.Lc127-.Lc126
	.byte	4
	.long	.Lc128-.Lc126
	.byte	14
	.uleb128	16
	.byte	4
	.long	.Lc129-.Lc128
	.byte	5
	.uleb128	6
	.uleb128	4
	.byte	4
	.long	.Lc130-.Lc129
	.byte	13
	.uleb128	6
	.balign 4,0
.Lc355:
	.long	.Lc357-.Lc356
.Lc356:
	.secrel32	.Lc301
	.quad	.Lc131
	.quad	.Lc132-.Lc131
	.byte	4
	.long	.Lc133-.Lc131
	.byte	14
	.uleb128	16
	.byte	4
	.long	.Lc134-.Lc133
	.byte	5
	.uleb128	6
	.uleb128	4
	.byte	4
	.long	.Lc135-.Lc134
	.byte	13
	.uleb128	6
	.balign 4,0
.Lc357:
	.long	.Lc359-.Lc358
.Lc358:
	.secrel32	.Lc301
	.quad	.Lc136
	.quad	.Lc137-.Lc136
	.byte	4
	.long	.Lc138-.Lc136
	.byte	14
	.uleb128	16
	.byte	4
	.long	.Lc139-.Lc138
	.byte	5
	.uleb128	6
	.uleb128	4
	.byte	4
	.long	.Lc140-.Lc139
	.byte	13
	.uleb128	6
	.balign 4,0
.Lc359:
	.long	.Lc361-.Lc360
.Lc360:
	.secrel32	.Lc301
	.quad	.Lc141
	.quad	.Lc142-.Lc141
	.byte	4
	.long	.Lc143-.Lc141
	.byte	14
	.uleb128	16
	.byte	4
	.long	.Lc144-.Lc143
	.byte	5
	.uleb128	6
	.uleb128	4
	.byte	4
	.long	.Lc145-.Lc144
	.byte	13
	.uleb128	6
	.balign 4,0
.Lc361:
	.long	.Lc363-.Lc362
.Lc362:
	.secrel32	.Lc301
	.quad	.Lc146
	.quad	.Lc147-.Lc146
	.byte	4
	.long	.Lc148-.Lc146
	.byte	14
	.uleb128	16
	.byte	4
	.long	.Lc149-.Lc148
	.byte	5
	.uleb128	6
	.uleb128	4
	.byte	4
	.long	.Lc150-.Lc149
	.byte	13
	.uleb128	6
	.balign 4,0
.Lc363:
	.long	.Lc365-.Lc364
.Lc364:
	.secrel32	.Lc301
	.quad	.Lc151
	.quad	.Lc152-.Lc151
	.byte	4
	.long	.Lc153-.Lc151
	.byte	14
	.uleb128	16
	.byte	4
	.long	.Lc154-.Lc153
	.byte	5
	.uleb128	6
	.uleb128	4
	.byte	4
	.long	.Lc155-.Lc154
	.byte	13
	.uleb128	6
	.balign 4,0
.Lc365:
	.long	.Lc367-.Lc366
.Lc366:
	.secrel32	.Lc301
	.quad	.Lc156
	.quad	.Lc157-.Lc156
	.byte	4
	.long	.Lc158-.Lc156
	.byte	14
	.uleb128	16
	.byte	4
	.long	.Lc159-.Lc158
	.byte	5
	.uleb128	6
	.uleb128	4
	.byte	4
	.long	.Lc160-.Lc159
	.byte	13
	.uleb128	6
	.balign 4,0
.Lc367:
	.long	.Lc369-.Lc368
.Lc368:
	.secrel32	.Lc301
	.quad	.Lc161
	.quad	.Lc162-.Lc161
	.byte	4
	.long	.Lc163-.Lc161
	.byte	14
	.uleb128	16
	.byte	4
	.long	.Lc164-.Lc163
	.byte	5
	.uleb128	6
	.uleb128	4
	.byte	4
	.long	.Lc165-.Lc164
	.byte	13
	.uleb128	6
	.balign 4,0
.Lc369:
	.long	.Lc371-.Lc370
.Lc370:
	.secrel32	.Lc301
	.quad	.Lc166
	.quad	.Lc167-.Lc166
	.byte	4
	.long	.Lc168-.Lc166
	.byte	14
	.uleb128	16
	.byte	4
	.long	.Lc169-.Lc168
	.byte	5
	.uleb128	6
	.uleb128	4
	.byte	4
	.long	.Lc170-.Lc169
	.byte	13
	.uleb128	6
	.balign 4,0
.Lc371:
	.long	.Lc373-.Lc372
.Lc372:
	.secrel32	.Lc301
	.quad	.Lc171
	.quad	.Lc172-.Lc171
	.byte	4
	.long	.Lc173-.Lc171
	.byte	14
	.uleb128	16
	.byte	4
	.long	.Lc174-.Lc173
	.byte	5
	.uleb128	6
	.uleb128	4
	.byte	4
	.long	.Lc175-.Lc174
	.byte	13
	.uleb128	6
	.balign 4,0
.Lc373:
	.long	.Lc375-.Lc374
.Lc374:
	.secrel32	.Lc301
	.quad	.Lc176
	.quad	.Lc177-.Lc176
	.byte	4
	.long	.Lc178-.Lc176
	.byte	14
	.uleb128	16
	.byte	4
	.long	.Lc179-.Lc178
	.byte	5
	.uleb128	6
	.uleb128	4
	.byte	4
	.long	.Lc180-.Lc179
	.byte	13
	.uleb128	6
	.balign 4,0
.Lc375:
	.long	.Lc377-.Lc376
.Lc376:
	.secrel32	.Lc301
	.quad	.Lc181
	.quad	.Lc182-.Lc181
	.byte	4
	.long	.Lc183-.Lc181
	.byte	14
	.uleb128	16
	.byte	4
	.long	.Lc184-.Lc183
	.byte	5
	.uleb128	6
	.uleb128	4
	.byte	4
	.long	.Lc185-.Lc184
	.byte	13
	.uleb128	6
	.balign 4,0
.Lc377:
	.long	.Lc379-.Lc378
.Lc378:
	.secrel32	.Lc301
	.quad	.Lc186
	.quad	.Lc187-.Lc186
	.byte	4
	.long	.Lc188-.Lc186
	.byte	14
	.uleb128	16
	.byte	4
	.long	.Lc189-.Lc188
	.byte	5
	.uleb128	6
	.uleb128	4
	.byte	4
	.long	.Lc190-.Lc189
	.byte	13
	.uleb128	6
	.balign 4,0
.Lc379:
	.long	.Lc381-.Lc380
.Lc380:
	.secrel32	.Lc301
	.quad	.Lc191
	.quad	.Lc192-.Lc191
	.byte	4
	.long	.Lc193-.Lc191
	.byte	14
	.uleb128	16
	.byte	4
	.long	.Lc194-.Lc193
	.byte	5
	.uleb128	6
	.uleb128	4
	.byte	4
	.long	.Lc195-.Lc194
	.byte	13
	.uleb128	6
	.balign 4,0
.Lc381:
	.long	.Lc383-.Lc382
.Lc382:
	.secrel32	.Lc301
	.quad	.Lc196
	.quad	.Lc197-.Lc196
	.byte	4
	.long	.Lc198-.Lc196
	.byte	14
	.uleb128	16
	.byte	4
	.long	.Lc199-.Lc198
	.byte	5
	.uleb128	6
	.uleb128	4
	.byte	4
	.long	.Lc200-.Lc199
	.byte	13
	.uleb128	6
	.balign 4,0
.Lc383:
	.long	.Lc385-.Lc384
.Lc384:
	.secrel32	.Lc301
	.quad	.Lc201
	.quad	.Lc202-.Lc201
	.byte	4
	.long	.Lc203-.Lc201
	.byte	14
	.uleb128	16
	.byte	4
	.long	.Lc204-.Lc203
	.byte	5
	.uleb128	6
	.uleb128	4
	.byte	4
	.long	.Lc205-.Lc204
	.byte	13
	.uleb128	6
	.balign 4,0
.Lc385:
	.long	.Lc387-.Lc386
.Lc386:
	.secrel32	.Lc301
	.quad	.Lc206
	.quad	.Lc207-.Lc206
	.byte	4
	.long	.Lc208-.Lc206
	.byte	14
	.uleb128	16
	.byte	4
	.long	.Lc209-.Lc208
	.byte	5
	.uleb128	6
	.uleb128	4
	.byte	4
	.long	.Lc210-.Lc209
	.byte	13
	.uleb128	6
	.balign 4,0
.Lc387:
	.long	.Lc389-.Lc388
.Lc388:
	.secrel32	.Lc301
	.quad	.Lc211
	.quad	.Lc212-.Lc211
	.byte	4
	.long	.Lc213-.Lc211
	.byte	14
	.uleb128	16
	.byte	4
	.long	.Lc214-.Lc213
	.byte	5
	.uleb128	6
	.uleb128	4
	.byte	4
	.long	.Lc215-.Lc214
	.byte	13
	.uleb128	6
	.balign 4,0
.Lc389:
	.long	.Lc391-.Lc390
.Lc390:
	.secrel32	.Lc301
	.quad	.Lc216
	.quad	.Lc217-.Lc216
	.byte	4
	.long	.Lc218-.Lc216
	.byte	14
	.uleb128	16
	.byte	4
	.long	.Lc219-.Lc218
	.byte	5
	.uleb128	6
	.uleb128	4
	.byte	4
	.long	.Lc220-.Lc219
	.byte	13
	.uleb128	6
	.balign 4,0
.Lc391:
	.long	.Lc393-.Lc392
.Lc392:
	.secrel32	.Lc301
	.quad	.Lc221
	.quad	.Lc222-.Lc221
	.byte	4
	.long	.Lc223-.Lc221
	.byte	14
	.uleb128	16
	.byte	4
	.long	.Lc224-.Lc223
	.byte	5
	.uleb128	6
	.uleb128	4
	.byte	4
	.long	.Lc225-.Lc224
	.byte	13
	.uleb128	6
	.balign 4,0
.Lc393:
	.long	.Lc395-.Lc394
.Lc394:
	.secrel32	.Lc301
	.quad	.Lc226
	.quad	.Lc227-.Lc226
	.byte	4
	.long	.Lc228-.Lc226
	.byte	14
	.uleb128	16
	.byte	4
	.long	.Lc229-.Lc228
	.byte	5
	.uleb128	6
	.uleb128	4
	.byte	4
	.long	.Lc230-.Lc229
	.byte	13
	.uleb128	6
	.balign 4,0
.Lc395:
	.long	.Lc397-.Lc396
.Lc396:
	.secrel32	.Lc301
	.quad	.Lc231
	.quad	.Lc232-.Lc231
	.byte	4
	.long	.Lc233-.Lc231
	.byte	14
	.uleb128	16
	.byte	4
	.long	.Lc234-.Lc233
	.byte	5
	.uleb128	6
	.uleb128	4
	.byte	4
	.long	.Lc235-.Lc234
	.byte	13
	.uleb128	6
	.balign 4,0
.Lc397:
	.long	.Lc399-.Lc398
.Lc398:
	.secrel32	.Lc301
	.quad	.Lc236
	.quad	.Lc237-.Lc236
	.byte	4
	.long	.Lc238-.Lc236
	.byte	14
	.uleb128	16
	.byte	4
	.long	.Lc239-.Lc238
	.byte	5
	.uleb128	6
	.uleb128	4
	.byte	4
	.long	.Lc240-.Lc239
	.byte	13
	.uleb128	6
	.balign 4,0
.Lc399:
	.long	.Lc401-.Lc400
.Lc400:
	.secrel32	.Lc301
	.quad	.Lc241
	.quad	.Lc242-.Lc241
	.byte	4
	.long	.Lc243-.Lc241
	.byte	14
	.uleb128	16
	.byte	4
	.long	.Lc244-.Lc243
	.byte	5
	.uleb128	6
	.uleb128	4
	.byte	4
	.long	.Lc245-.Lc244
	.byte	13
	.uleb128	6
	.balign 4,0
.Lc401:
	.long	.Lc403-.Lc402
.Lc402:
	.secrel32	.Lc301
	.quad	.Lc246
	.quad	.Lc247-.Lc246
	.byte	4
	.long	.Lc248-.Lc246
	.byte	14
	.uleb128	16
	.byte	4
	.long	.Lc249-.Lc248
	.byte	5
	.uleb128	6
	.uleb128	4
	.byte	4
	.long	.Lc250-.Lc249
	.byte	13
	.uleb128	6
	.balign 4,0
.Lc403:
	.long	.Lc405-.Lc404
.Lc404:
	.secrel32	.Lc301
	.quad	.Lc251
	.quad	.Lc252-.Lc251
	.byte	4
	.long	.Lc253-.Lc251
	.byte	14
	.uleb128	16
	.byte	4
	.long	.Lc254-.Lc253
	.byte	5
	.uleb128	6
	.uleb128	4
	.byte	4
	.long	.Lc255-.Lc254
	.byte	13
	.uleb128	6
	.balign 4,0
.Lc405:
	.long	.Lc407-.Lc406
.Lc406:
	.secrel32	.Lc301
	.quad	.Lc256
	.quad	.Lc257-.Lc256
	.byte	4
	.long	.Lc258-.Lc256
	.byte	14
	.uleb128	16
	.byte	4
	.long	.Lc259-.Lc258
	.byte	5
	.uleb128	6
	.uleb128	4
	.byte	4
	.long	.Lc260-.Lc259
	.byte	13
	.uleb128	6
	.balign 4,0
.Lc407:
	.long	.Lc409-.Lc408
.Lc408:
	.secrel32	.Lc301
	.quad	.Lc261
	.quad	.Lc262-.Lc261
	.byte	4
	.long	.Lc263-.Lc261
	.byte	14
	.uleb128	16
	.byte	4
	.long	.Lc264-.Lc263
	.byte	5
	.uleb128	6
	.uleb128	4
	.byte	4
	.long	.Lc265-.Lc264
	.byte	13
	.uleb128	6
	.balign 4,0
.Lc409:
	.long	.Lc411-.Lc410
.Lc410:
	.secrel32	.Lc301
	.quad	.Lc266
	.quad	.Lc267-.Lc266
	.byte	4
	.long	.Lc268-.Lc266
	.byte	14
	.uleb128	16
	.byte	4
	.long	.Lc269-.Lc268
	.byte	5
	.uleb128	6
	.uleb128	4
	.byte	4
	.long	.Lc270-.Lc269
	.byte	13
	.uleb128	6
	.balign 4,0
.Lc411:
	.long	.Lc413-.Lc412
.Lc412:
	.secrel32	.Lc301
	.quad	.Lc271
	.quad	.Lc272-.Lc271
	.byte	4
	.long	.Lc273-.Lc271
	.byte	14
	.uleb128	16
	.byte	4
	.long	.Lc274-.Lc273
	.byte	5
	.uleb128	6
	.uleb128	4
	.byte	4
	.long	.Lc275-.Lc274
	.byte	13
	.uleb128	6
	.balign 4,0
.Lc413:
	.long	.Lc415-.Lc414
.Lc414:
	.secrel32	.Lc301
	.quad	.Lc276
	.quad	.Lc277-.Lc276
	.byte	4
	.long	.Lc278-.Lc276
	.byte	14
	.uleb128	16
	.byte	4
	.long	.Lc279-.Lc278
	.byte	5
	.uleb128	6
	.uleb128	4
	.byte	4
	.long	.Lc280-.Lc279
	.byte	13
	.uleb128	6
	.balign 4,0
.Lc415:
	.long	.Lc417-.Lc416
.Lc416:
	.secrel32	.Lc301
	.quad	.Lc281
	.quad	.Lc282-.Lc281
	.byte	4
	.long	.Lc283-.Lc281
	.byte	14
	.uleb128	16
	.byte	4
	.long	.Lc284-.Lc283
	.byte	5
	.uleb128	6
	.uleb128	4
	.byte	4
	.long	.Lc285-.Lc284
	.byte	13
	.uleb128	6
	.balign 4,0
.Lc417:
	.long	.Lc419-.Lc418
.Lc418:
	.secrel32	.Lc301
	.quad	.Lc286
	.quad	.Lc287-.Lc286
	.byte	4
	.long	.Lc288-.Lc286
	.byte	14
	.uleb128	16
	.byte	4
	.long	.Lc289-.Lc288
	.byte	5
	.uleb128	6
	.uleb128	4
	.byte	4
	.long	.Lc290-.Lc289
	.byte	13
	.uleb128	6
	.balign 4,0
.Lc419:
	.long	.Lc421-.Lc420
.Lc420:
	.secrel32	.Lc301
	.quad	.Lc291
	.quad	.Lc292-.Lc291
	.byte	4
	.long	.Lc293-.Lc291
	.byte	14
	.uleb128	16
	.byte	4
	.long	.Lc294-.Lc293
	.byte	5
	.uleb128	6
	.uleb128	4
	.byte	4
	.long	.Lc295-.Lc294
	.byte	13
	.uleb128	6
	.balign 4,0
.Lc421:
	.long	.Lc423-.Lc422
.Lc422:
	.secrel32	.Lc301
	.quad	.Lc296
	.quad	.Lc297-.Lc296
	.byte	4
	.long	.Lc298-.Lc296
	.byte	14
	.uleb128	16
	.byte	4
	.long	.Lc299-.Lc298
	.byte	5
	.uleb128	6
	.uleb128	4
	.byte	4
	.long	.Lc300-.Lc299
	.byte	13
	.uleb128	6
	.balign 4,0
.Lc423:
# End asmlist al_dwarf_frame
# Begin asmlist al_dwarf_info

.section .text.z_DEBUGEND_$SDL2,"x"
.globl	DEBUGEND_$SDL2
DEBUGEND_$SDL2:
# End asmlist al_end

