	.file "synthcontrol.pas"
# Begin asmlist al_begin

.section .text.b_DEBUGSTART_$SYNTHCONTROL,"x"
.globl	DEBUGSTART_$SYNTHCONTROL
DEBUGSTART_$SYNTHCONTROL:
# End asmlist al_begin
# Begin asmlist al_procedures

.section .text.n_synthcontrol$_$tsynthctrl_$__$$_create$boolean$$tsynthctrl,"x"
	.balign 16,0x90
.globl	SYNTHCONTROL$_$TSYNTHCTRL_$__$$_CREATE$BOOLEAN$$TSYNTHCTRL
SYNTHCONTROL$_$TSYNTHCTRL_$__$$_CREATE$BOOLEAN$$TSYNTHCTRL:
.Lc1:
.seh_proc SYNTHCONTROL$_$TSYNTHCTRL_$__$$_CREATE$BOOLEAN$$TSYNTHCTRL
.Ll1:
# [synthcontrol.pas]
# [65] begin
	pushq	%rbp
.seh_pushreg %rbp
.Lc3:
.Lc4:
	movq	%rsp,%rbp
.Lc5:
	leaq	-64(%rsp),%rsp
.seh_stackalloc 64
.seh_endprologue
# Var CreateSuspended located at rbp-8, size=OS_8
# Var $vmt located at rbp-16, size=OS_64
# Var $self located at rbp-24, size=OS_64
	movq	%rcx,-24(%rbp)
	movq	%rdx,-16(%rbp)
	movb	%r8b,-8(%rbp)
.Ll2:
	cmpq	$1,-16(%rbp)
	jne	.Lj6
	movq	-24(%rbp),%rax
	movq	-24(%rbp),%rdx
	movq	%rax,%rcx
	call	*104(%rdx)
	movq	%rax,-24(%rbp)
.Lj6:
	cmpq	$0,-24(%rbp)
	je	.Lj3
.Lj18:
.Ll3:
# [68] end;
	nop
.Lj17:
.Ll4:
# [66] FreeOnTerminate := True;
	movq	-24(%rbp),%rax
	movb	$1,17(%rax)
.Ll5:
# [67] inherited Create(CreateSuspended);
	movzbl	-8(%rbp),%r8d
	movq	-24(%rbp),%rcx
	movq	$4194304,%r9
	movq	$0,%rdx
	call	CLASSES$_$TTHREAD_$__$$_CREATE$BOOLEAN$QWORD$$TTHREAD
.Ll6:
	cmpq	$0,-24(%rbp)
	je	.Lj15
	cmpq	$0,-16(%rbp)
	je	.Lj15
	movq	-24(%rbp),%rcx
	movq	-24(%rbp),%rax
	movq	(%rax),%rax
	call	*136(%rax)
	jmp	.Lj15
.Lj14:
	cmpq	$0,-16(%rbp)
	je	.Lj36
	movq	-24(%rbp),%rcx
	movq	$-1,%rdx
	movq	-24(%rbp),%rax
	movq	(%rax),%rax
	call	*96(%rax)
.Lj36:
	call	fpc_reraise
	call	FPC_DONEEXCEPTION
.Lj41:
	nop
.Lj15:
.Lj3:
	movq	-24(%rbp),%rax
	nop
	leaq	(%rbp),%rsp
	popq	%rbp
	ret
.seh_handler __FPC_specific_handler,@except,@unwind
.seh_handlerdata
	.long	1
	.long	1
	.rva	.Lj17
	.rva	.Lj14
	.rva	.Lj15

.section .text.n_synthcontrol$_$tsynthctrl_$__$$_create$boolean$$tsynthctrl,"x"
.seh_endproc
.Lc2:
.Lt8:
.Ll7:

.section .text.n_synthcontrol_$$_deallocatechannel$longint,"x"
	.balign 16,0x90
.globl	SYNTHCONTROL_$$_DEALLOCATECHANNEL$LONGINT
SYNTHCONTROL_$$_DEALLOCATECHANNEL$LONGINT:
.Lc6:
# Var channel located in register eax
.Ll8:
# [73] begin
	movl	%ecx,%eax
.Ll9:
	leaq	U_$SYNTHCONTROL_$$_CHANNELS(%rip),%rdx
# PeepHole Optimization,var2a
.Ll10:
# [74] channels[channel]:=-$7FFFFFFFFFFFFFFF+abs(channels[channel]);
	movl	%eax,%ecx
	movq	(%rdx,%rcx,8),%r8
	movq	%r8,%rcx
	negq	%rcx
	cmovnsq	%rcx,%r8
	movq	$-9223372036854775807,%rcx
	addq	%rcx,%r8
	andl	$4294967295,%eax
	movq	%r8,(%rdx,%rax,8)
.Ll11:
# [75] end;
	ret
.Lc7:
.Lt4:
.Ll12:

.section .text.n_synthcontrol$_$tsynthctrl_$_execute_$$_fin$0,"x"
	.balign 16,0x90
SYNTHCONTROL$_$TSYNTHCTRL_$_EXECUTE_$$_fin$0:
.Lc8:
.seh_proc SYNTHCONTROL$_$TSYNTHCTRL_$_EXECUTE_$$_fin$0
.Ll13:
# [85] begin
	pushq	%rbp
.seh_pushreg %rbp
.Lc10:
.Lc11:
	movq	%rcx,%rbp
.Lc12:
	leaq	-32(%rsp),%rsp
.seh_stackalloc 32
# Var $parentfp located in register rbp
.seh_endprologue
.Ll14:
	leaq	-8(%rbp),%rcx
	call	fpc_ansistr_decr_ref
	nop
	leaq	32(%rsp),%rsp
	popq	%rbp
	ret
.seh_endproc
.Lc9:
.Lt1:
.Ll15:

.section .text.n_synthcontrol$_$tsynthctrl_$__$$_execute,"x"
	.balign 16,0x90
.globl	SYNTHCONTROL$_$TSYNTHCTRL_$__$$_EXECUTE
SYNTHCONTROL$_$TSYNTHCTRL_$__$$_EXECUTE:
.Lc13:
# Temps allocated between rbp-104 and rbp+0
.seh_proc SYNTHCONTROL$_$TSYNTHCTRL_$__$$_EXECUTE
.Ll16:
	pushq	%rbp
.seh_pushreg %rbp
.Lc15:
.Lc16:
	movq	%rsp,%rbp
.Lc17:
	leaq	-192(%rsp),%rsp
.seh_stackalloc 192
# Var $self located in register rax
# Var md located in register r12d
# Var aa located in register eax
# Var aaa located in register r15d
# Var aaaa located in register r13d
# Var f located in register eax
# Var i located in register ebx
# Var j located in register esi
# Var ch located in register r14d
# Var key located in register edi
	movq	%rbx,-104(%rbp)
	movq	%rdi,-96(%rbp)
	movq	%rsi,-88(%rbp)
	movq	%r12,-80(%rbp)
	movq	%r13,-72(%rbp)
	movq	%r14,-64(%rbp)
	movq	%r15,-56(%rbp)
.seh_savereg %rbx, 88
.seh_savereg %rdi, 96
.seh_savereg %rsi, 104
.seh_savereg %r12, 112
.seh_savereg %r13, 120
.seh_savereg %r14, 128
.seh_savereg %r15, 136
.seh_endprologue
	movq	%rcx,-32(%rbp)
.Ll17:
	movq	$0,-8(%rbp)
.Lj56:
	nop
.Lj52:
.Ll18:
# [86] for i:=0 to maxchannel-1 do channels[i]:=0;
	movl	$0,%ebx
	subl	$1,%ebx
	.balign 8,0x90
.Lj59:
	addl	$1,%ebx
# PeepHole Optimization,var2a
	movl	%ebx,%eax
	leaq	U_$SYNTHCONTROL_$$_CHANNELS(%rip),%rdx
	movq	$0,(%rdx,%rax,8)
	cmpl	$31,%ebx
	jl	.Lj59
.Ll19:
# [87] for j:=0 to 4 do for i:=0 to 127 do notes[i,j]:=maxchannel;
	movl	$0,%esi
	subl	$1,%esi
	.balign 8,0x90
.Lj64:
	addl	$1,%esi
	movl	$0,%ebx
	subl	$1,%ebx
	.balign 8,0x90
.Lj67:
	addl	$1,%ebx
# PeepHole Optimization,var2a
	movl	%ebx,%eax
	imulq	$20,%rax,%rcx
# PeepHole Optimization,var2a
	movl	%esi,%edx
	leaq	U_$SYNTHCONTROL_$$_NOTES(%rip),%rax
	leaq	(%rcx,%rax),%rax
	movl	$32,(%rax,%rdx,4)
	cmpl	$127,%ebx
	jl	.Lj67
	cmpl	$4,%esi
	jl	.Lj64
	.balign 8,0x90
.Lj70:
.Ll20:
# [91] key:=readkeybuffer;
	call	RETRO_$$_READKEYBUFFER$$LONGWORD
	movl	%eax,%edi
.Ll21:
# [94] if key=32 then for i:=0 to 7 do voices[0].operators[i].adsrstate:=1;
	cmpl	$32,%edi
	jne	.Lj76
	movl	$0,%ebx
	subl	$1,%ebx
	.balign 8,0x90
.Lj79:
	addl	$1,%ebx
	movq	U_$FMSYNTH_$$_VOICES(%rip),%rdx
# PeepHole Optimization,var2a
	movl	%ebx,%eax
	movq	8(%rdx,%rax,8),%rax
	movl	$1,320(%rax)
	cmpl	$7,%ebx
	jl	.Lj79
.Lj76:
.Ll22:
# [95] if key=32+$10000 then for i:=0 to 7 do voices[0].operators[i].adsrstate:=5;
	cmpl	$65568,%edi
	jne	.Lj83
	movl	$0,%ebx
	subl	$1,%ebx
	.balign 8,0x90
.Lj86:
	addl	$1,%ebx
	movq	U_$FMSYNTH_$$_VOICES(%rip),%rdx
# PeepHole Optimization,var2a
	movl	%ebx,%eax
	movq	8(%rdx,%rax,8),%rax
	movl	$5,320(%rax)
	cmpl	$7,%ebx
	jl	.Lj86
.Lj83:
.Ll23:
# [96] if key<>$FFFFFFFF then
	cmpl	$4294967295,%edi
	je	.Lj90
.Ll24:
# [98] if key<$10000 then
	cmpl	$65536,%edi
	jnb	.Lj92
.Ll25:
# [100] key:=key and 255;
	movl	%edi,%eax
	andl	$255,%eax
	movl	%eax,%edi
# PeepHole Optimization,var2a
.Ll26:
# [104] key:=keymap2[key];
	movl	%edi,%edx
	leaq	TC_$SYNTHCONTROL_$$_KEYMAP2(%rip),%rax
	movzbl	(%rax,%rdx,1),%eax
	movl	%eax,%edi
.Ll27:
# [105] if key>0 then md:=144+key shl 8+$7F0000 else md:=$FFFFFFFF;
	cmpl	$0,%edi
	jna	.Lj98
	movl	%edi,%eax
	shll	$8,%eax
	leal	144(%eax),%eax
	leal	8323072(%eax),%eax
	movl	%eax,%r12d
	jmp	.Lj116
.Lj98:
	movl	$4294967295,%r12d
	jmp	.Lj116
.Lj92:
.Ll28:
# [112] key:=key and 255;
	movl	%edi,%eax
	andl	$255,%eax
	movl	%eax,%edi
# PeepHole Optimization,var2a
.Ll29:
# [113] key:=keymap2[key];
	movl	%edi,%edx
	leaq	TC_$SYNTHCONTROL_$$_KEYMAP2(%rip),%rax
	movzbl	(%rax,%rdx,1),%eax
	movl	%eax,%edi
.Ll30:
# [114] if key>0 then md:=144+key shl 8 else md:=$FFFFFFFF;
	cmpl	$0,%edi
	jna	.Lj110
	movl	%edi,%eax
	shll	$8,%eax
	leal	144(%eax),%eax
	movl	%eax,%r12d
	jmp	.Lj116
.Lj110:
	movl	$4294967295,%r12d
.Ll31:
# [116] goto p101;
	jmp	.Lj116
.Lj90:
.Ll32:
# [119] md:=readbuffer;
	call	MIDI_$$_READBUFFER$$LONGWORD
	movl	%eax,%r12d
.Lj116:
.Ll33:
# [122] if md<>$FFFFFFFF then
	cmpl	$4294967295,%r12d
	je	.Lj120
.Ll34:
# [124] aa:=md and $FF;
	movl	%r12d,%eax
	andl	$255,%eax
	movl	%eax,%edx
	movq	%rdx,-16(%rbp)
.Ll35:
# [125] aaa:=(md and $FF00) shr 8;
	movl	%r12d,%eax
	andl	$65280,%eax
	shrl	$8,%eax
	movl	%eax,%r15d
.Ll36:
# [126] aaaa:=(md and $FF0000) shr 16 ;
	movl	%r12d,%eax
	andl	$16711680,%eax
	shrl	$16,%eax
	movl	%eax,%r13d
.Ll37:
# [127] midireceived:=0;
	movl	$0,U_$MIDI_$$_MIDIRECEIVED(%rip)
# PeepHole Optimization,var2a
.Ll38:
# [128] f:=round(7492*power(2,(aaa-69)/12));
	movl	%r15d,%eax
	leaq	-69(%rax),%rax
	cvtsi2sd	%rax,%xmm1
	mulsd	_$SYNTHCONTROL$_Ld2(%rip),%xmm1
	movsd	_$SYNTHCONTROL$_Ld3(%rip),%xmm0
	call	MATH_$$_POWER$DOUBLE$DOUBLE$$DOUBLE
	mulsd	_$SYNTHCONTROL$_Ld1(%rip),%xmm0
	cvtsd2siq	%xmm0,%rax
	movl	%eax,%edx
	movq	%rdx,-24(%rbp)
.Ll39:
# [129] if (aa=144) and (aaaa>0) then
	movl	-16(%rbp),%eax
	cmpl	$144,%eax
	jne	.Lj136
	cmpl	$0,%r13d
	jna	.Lj136
.Ll40:
# [131] ch:=allocatechannel(1);
	movl	$1,%ecx
	call	SYNTHCONTROL_$$_ALLOCATECHANNEL$LONGINT$$LONGINT
	movl	%eax,%r14d
.Ll41:
# [132] if ch<maxchannel then
	cmpl	$32,%r14d
	jnl	.Lj143
.Ll42:
# [134] for i:=0 to 127 do if notes[i,0]=ch then notes[i,0]:=maxchannel;
	movl	$0,%ebx
	subl	$1,%ebx
	.balign 8,0x90
.Lj146:
	addl	$1,%ebx
# PeepHole Optimization,var2a
	movl	%ebx,%eax
	imulq	$20,%rax,%rdx
	leaq	U_$SYNTHCONTROL_$$_NOTES(%rip),%rax
	movl	(%rax,%rdx),%eax
	cmpl	%r14d,%eax
	jne	.Lj148
# PeepHole Optimization,var2a
	movl	%ebx,%eax
	imulq	$20,%rax,%rax
	leaq	U_$SYNTHCONTROL_$$_NOTES(%rip),%rdx
	movl	$32,(%rdx,%rax)
.Lj148:
	cmpl	$127,%ebx
	jl	.Lj146
# PeepHole Optimization,var2a
.Ll43:
# [135] notes[aaa,0]:=ch;
	movl	%r15d,%eax
	imulq	$20,%rax,%rax
	leaq	U_$SYNTHCONTROL_$$_NOTES(%rip),%rdx
	movl	%r14d,(%rdx,%rax)
.Ll44:
# [136] noteon(ch,aaa,aaaa,0);
	movl	%r13d,%eax
	movl	%eax,%r8d
	movl	%r15d,%eax
	movl	%eax,%edx
	movl	%r14d,%eax
	movl	$0,%r9d
	movl	%eax,%ecx
	call	SYNTHCONTROL_$$_NOTEON$LONGINT$LONGINT$LONGINT$LONGINT
.Lj143:
.Lj136:
.Ll45:
# [139] if (aa=144) and (aaaa=0) then
	movl	-16(%rbp),%eax
	cmpl	$144,%eax
	jne	.Lj162
	testl	%r13d,%r13d
	jne	.Lj162
.Ll46:
# [141] i:=-1;
	movl	$-1,%ebx
# PeepHole Optimization,var2a
.Ll47:
# [142] ch:=notes[aaa,0];
	movl	%r15d,%eax
	imulq	$20,%rax,%rax
	leaq	U_$SYNTHCONTROL_$$_NOTES(%rip),%rdx
	movl	(%rdx,%rax),%r14d
.Ll48:
# [143] noteoff(ch,aaa);
	movl	%r15d,%edx
	movl	%r14d,%ecx
	call	SYNTHCONTROL_$$_NOTEOFF$LONGINT$LONGINT
.Ll49:
# [144] deallocatechannel(ch);
	movl	%r14d,%ecx
	call	SYNTHCONTROL_$$_DEALLOCATECHANNEL$LONGINT
# PeepHole Optimization,var2a
.Ll50:
# [145] notes[aaa,0]:=maxchannel;
	movl	%r15d,%eax
	imulq	$20,%rax,%rax
	leaq	U_$SYNTHCONTROL_$$_NOTES(%rip),%rdx
	movl	$32,(%rdx,%rax)
.Lj162:
.Ll51:
# [148] blit($F000000,1000,948,$F000000,1000,900,150,96,1792,1792);
	movl	$1792,72(%rsp)
	movl	$1792,64(%rsp)
	movl	$96,56(%rsp)
	movl	$150,48(%rsp)
	movl	$900,40(%rsp)
	movl	$1000,32(%rsp)
	movl	$251658240,%r9d
	movl	$948,%r8d
	movl	$1000,%eax
	movl	$251658240,%ecx
	movl	%eax,%edx
	call	RETRO_$$_BLIT$crc5A667533
.Ll52:
# [149] box(1000,996,150,48,33);
	movl	$33,32(%rsp)
	movl	$48,%r9d
	movl	$150,%r8d
	movl	$996,%eax
	movl	$1000,%ecx
	movl	%eax,%edx
	call	RETRO_$$_BOX$LONGINT$LONGINT$LONGINT$LONGINT$LONGINT
.Ll53:
# [150] outtextxy(1000,996,inttostr(aa),15);
	movl	-16(%rbp),%eax
# PeepHole Optimization,var2a
	movl	%eax,%edx
	leaq	-8(%rbp),%rcx
	call	SYSUTILS_$$_INTTOSTR$QWORD$$ANSISTRING
	movq	-8(%rbp),%r8
	movl	$15,%r9d
	movl	$996,%eax
	movl	$1000,%ecx
	movl	%eax,%edx
	call	RETRO_$$_OUTTEXTXY$LONGINT$LONGINT$ANSISTRING$LONGINT
# PeepHole Optimization,var2a
.Ll54:
# [151] outtextxy(1000,1012,inttostr(aaa),15);
	movl	%r15d,%edx
	leaq	-8(%rbp),%rcx
	call	SYSUTILS_$$_INTTOSTR$QWORD$$ANSISTRING
	movq	-8(%rbp),%r8
	movl	$15,%r9d
	movl	$1012,%eax
	movl	$1000,%ecx
	movl	%eax,%edx
	call	RETRO_$$_OUTTEXTXY$LONGINT$LONGINT$ANSISTRING$LONGINT
# PeepHole Optimization,var2a
.Ll55:
# [152] outtextxy(1000,1028,inttostr(aaaa),15);
	movl	%r13d,%edx
	leaq	-8(%rbp),%rcx
	call	SYSUTILS_$$_INTTOSTR$QWORD$$ANSISTRING
	movq	-8(%rbp),%r8
	movl	$15,%r9d
	movl	$1028,%eax
	movl	$1000,%ecx
	movl	%eax,%edx
	call	RETRO_$$_OUTTEXTXY$LONGINT$LONGINT$ANSISTRING$LONGINT
.Lj120:
.Ll56:
# [155] sleep(1)
	movl	$1,%ecx
	call	CLASSES$_$TTHREAD_$__$$_SLEEP$LONGWORD
.Ll57:
# [156] until terminated;
	movq	-32(%rbp),%rax
	cmpb	$0,16(%rax)
	je	.Lj70
.Lj244:
.Ll58:
	nop
.Lj53:
	movq	%rbp,%rcx
	call	SYNTHCONTROL$_$TSYNTHCTRL_$_EXECUTE_$$_fin$0
.Ll59:
# [157] end;
	movq	-104(%rbp),%rbx
	movq	-96(%rbp),%rdi
	movq	-88(%rbp),%rsi
	movq	-80(%rbp),%r12
	movq	-72(%rbp),%r13
	movq	-64(%rbp),%r14
	movq	-56(%rbp),%r15
	leaq	(%rbp),%rsp
	popq	%rbp
	ret
.seh_handler __FPC_specific_handler,@unwind
.seh_handlerdata
	.long	1
	.long	0
	.rva	.Lj52
	.rva	.Lj53
	.rva	SYNTHCONTROL$_$TSYNTHCTRL_$_EXECUTE_$$_fin$0

.section .text.n_synthcontrol$_$tsynthctrl_$__$$_execute,"x"
.seh_endproc
.Lc14:
.Lt7:
.Ll60:

.section .text.n_synthcontrol$_$allocatechannel$longint$$longint_$$_fin$1,"x"
	.balign 16,0x90
SYNTHCONTROL$_$ALLOCATECHANNEL$LONGINT$$LONGINT_$$_fin$1:
.Lc18:
.seh_proc SYNTHCONTROL$_$ALLOCATECHANNEL$LONGINT$$LONGINT_$$_fin$1
.Ll61:
# [171] begin
	pushq	%rbp
.seh_pushreg %rbp
.Lc20:
.Lc21:
	movq	%rcx,%rbp
.Lc22:
	leaq	-32(%rsp),%rsp
.seh_stackalloc 32
# Var $parentfp located in register rbp
.seh_endprologue
.Ll62:
	leaq	-8(%rbp),%rcx
	call	fpc_ansistr_decr_ref
	nop
	leaq	32(%rsp),%rsp
	popq	%rbp
	ret
.seh_endproc
.Lc19:
.Lt3:
.Ll63:

.section .text.n_synthcontrol_$$_allocatechannel$longint$$longint,"x"
	.balign 16,0x90
.globl	SYNTHCONTROL_$$_ALLOCATECHANNEL$LONGINT$$LONGINT
SYNTHCONTROL_$$_ALLOCATECHANNEL$LONGINT$$LONGINT:
.Lc23:
# Temps allocated between rbp-48 and rbp+0
.seh_proc SYNTHCONTROL_$$_ALLOCATECHANNEL$LONGINT$$LONGINT
.Ll64:
	pushq	%rbp
.seh_pushreg %rbp
.Lc25:
.Lc26:
	movq	%rsp,%rbp
.Lc27:
	leaq	-96(%rsp),%rsp
.seh_stackalloc 96
# Var mode located in register ebx
# Var $result located in register r13d
# Var i located in register esi
# Var q located in register edi
# Var f located in register r12
	movq	%rbx,-48(%rbp)
	movq	%rdi,-40(%rbp)
	movq	%rsi,-32(%rbp)
	movq	%r12,-24(%rbp)
	movq	%r13,-16(%rbp)
.seh_savereg %rbx, 48
.seh_savereg %rdi, 56
.seh_savereg %rsi, 64
.seh_savereg %r12, 72
.seh_savereg %r13, 80
.seh_endprologue
	movl	%ecx,%ebx
.Ll65:
	movq	$0,-8(%rbp)
.Lj255:
	nop
.Lj251:
.Ll66:
# [172] i:=0;
	movl	$0,%esi
.Ll67:
# [173] while i<maxchannel do if channels[i]=0 then goto p101 else i+=1;
	jmp	.Lj259
	.balign 8,0x90
.Lj258:
# PeepHole Optimization,var2a
	movl	%esi,%eax
	leaq	U_$SYNTHCONTROL_$$_CHANNELS(%rip),%rdx
	cmpq	$0,(%rdx,%rax,8)
	je	.Lj263
	leal	1(%esi),%eax
	movl	%eax,%esi
.Lj259:
	cmpl	$32,%esi
	jl	.Lj258
.Ll68:
# [174] while i<maxchannel do if channels[i]<0 then goto p101 else i+=1;
	jmp	.Lj268
	.balign 8,0x90
.Lj267:
# PeepHole Optimization,var2a
	movl	%esi,%eax
	leaq	U_$SYNTHCONTROL_$$_CHANNELS(%rip),%rdx
	cmpq	$0,(%rdx,%rax,8)
	jl	.Lj263
	leal	1(%esi),%eax
	movl	%eax,%esi
.Lj268:
	cmpl	$32,%esi
	jl	.Lj267
.Lj263:
.Ll69:
# [177] if i<maxchannel then
	cmpl	$32,%esi
	jnl	.Lj276
.Ll70:
# [179] result:=i;
	movl	%esi,%r13d
.Ll71:
# [180] channels[i]:=gettime;
	call	RETRO_$$_GETTIME$$INT64
# PeepHole Optimization,var2a
	movl	%esi,%edx
	leaq	U_$SYNTHCONTROL_$$_CHANNELS(%rip),%rcx
	movq	%rax,(%rcx,%rdx,8)
	jmp	.Lj281
.Lj276:
.Ll72:
# [182] else if (i=maxchannel) and (mode=0) then
	cmpl	$32,%esi
	jne	.Lj283
	testl	%ebx,%ebx
	jne	.Lj283
.Ll73:
# [184] result:=maxchannel;
	movl	$32,%r13d
	jmp	.Lj287
.Lj283:
.Ll74:
# [188] i:=0;
	movl	$0,%esi
.Ll75:
# [189] f:=channels[0];
	movq	U_$SYNTHCONTROL_$$_CHANNELS(%rip),%r12
.Ll76:
# [190] q:=0;
	movl	$0,%edi
.Ll77:
# [191] while i<maxchannel do
	jmp	.Lj295
	.balign 8,0x90
.Lj294:
# PeepHole Optimization,var2a
.Ll78:
# [193] if channels[i]<f then
	movl	%esi,%eax
	leaq	U_$SYNTHCONTROL_$$_CHANNELS(%rip),%rdx
	movq	(%rdx,%rax,8),%rax
	cmpq	%r12,%rax
	jnl	.Lj298
# PeepHole Optimization,var2a
.Ll79:
# [195] f:=channels[i];
	movl	%esi,%eax
	leaq	U_$SYNTHCONTROL_$$_CHANNELS(%rip),%rdx
	movq	(%rdx,%rax,8),%r12
.Ll80:
# [196] q:=i;
	movl	%esi,%edi
.Lj298:
.Ll81:
# [198] i+=1;
	leal	1(%esi),%eax
	movl	%eax,%esi
.Lj295:
.Ll82:
	cmpl	$32,%esi
	jl	.Lj294
.Ll83:
# [200] result:=q;
	movl	%edi,%r13d
.Ll84:
# [201] channels[q]:=gettime;
	call	RETRO_$$_GETTIME$$INT64
# PeepHole Optimization,var2a
	movl	%edi,%edx
	leaq	U_$SYNTHCONTROL_$$_CHANNELS(%rip),%rcx
	movq	%rax,(%rcx,%rdx,8)
.Lj287:
.Lj281:
.Ll85:
# [203] box(1000,200,200,100,0); outtextxyz(1000,200,inttostr(result),15,2,2);
	movl	$0,32(%rsp)
	movl	$100,%r9d
	movl	$200,%r8d
	movl	$200,%edx
	movl	$1000,%ecx
	call	RETRO_$$_BOX$LONGINT$LONGINT$LONGINT$LONGINT$LONGINT
	movl	$2,40(%rsp)
	movl	$2,32(%rsp)
	movl	%r13d,%edx
	leaq	-8(%rbp),%rcx
	call	SYSUTILS_$$_INTTOSTR$LONGINT$$ANSISTRING
	movq	-8(%rbp),%r8
	movl	$15,%r9d
	movl	$200,%edx
	movl	$1000,%ecx
	call	RETRO_$$_OUTTEXTXYZ$LONGINT$LONGINT$ANSISTRING$LONGINT$LONGINT$LONGINT
.Lj335:
.Ll86:
	nop
.Lj252:
	movq	%rbp,%rcx
	call	SYNTHCONTROL$_$ALLOCATECHANNEL$LONGINT$$LONGINT_$$_fin$1
.Ll87:
# [204] end;
	movl	%r13d,%eax
	movq	-48(%rbp),%rbx
	movq	-40(%rbp),%rdi
	movq	-32(%rbp),%rsi
	movq	-24(%rbp),%r12
	movq	-16(%rbp),%r13
	leaq	(%rbp),%rsp
	popq	%rbp
	ret
.seh_handler __FPC_specific_handler,@unwind
.seh_handlerdata
	.long	1
	.long	0
	.rva	.Lj251
	.rva	.Lj252
	.rva	SYNTHCONTROL$_$ALLOCATECHANNEL$LONGINT$$LONGINT_$$_fin$1

.section .text.n_synthcontrol_$$_allocatechannel$longint$$longint,"x"
.seh_endproc
.Lc24:
.Lt2:
.Ll88:

.section .text.n_synthcontrol_$$_noteon$longint$longint$longint$longint,"x"
	.balign 16,0x90
.globl	SYNTHCONTROL_$$_NOTEON$LONGINT$LONGINT$LONGINT$LONGINT
SYNTHCONTROL_$$_NOTEON$LONGINT$LONGINT$LONGINT$LONGINT:
.Lc28:
.seh_proc SYNTHCONTROL_$$_NOTEON$LONGINT$LONGINT$LONGINT$LONGINT
.Ll89:
# [213] begin
	pushq	%rbx
.seh_pushreg %rbx
	pushq	%rdi
.seh_pushreg %rdi
	pushq	%rsi
.seh_pushreg %rsi
	pushq	%r12
.seh_pushreg %r12
	pushq	%r13
.seh_pushreg %r13
	leaq	-48(%rsp),%rsp
.Lc30:
.seh_stackalloc 48
	movdqa	%xmm6,32(%rsp)
# Var channel located in register ebx
# Var note located in register esi
# Var velocity located in register edi
# Var preset located in register r12d
# Var i located in register r13d
# Var f located in register xmm6
.seh_savexmm %xmm6, 32
.seh_endprologue
	movl	%ecx,%ebx
	movl	%edx,%esi
	movl	%r8d,%edi
	movl	%r9d,%r12d
.Ll90:
# [214] if (channel>=maxchannel) or (channel<0) then goto p999;
	cmpl	$32,%ebx
	jge	.Lj343
	cmpl	$0,%ebx
	jl	.Lj343
# PeepHole Optimization,var2a
.Ll91:
# [215] f:=fnotes[note] ;
	movl	%esi,%eax
	leaq	U_$FMSYNTH_$$_FNOTES(%rip),%rdx
	movsd	(%rdx,%rax,8),%xmm6
# PeepHole Optimization,var2a
.Ll92:
# [216] voices[channel].setfreq(f);
	movl	%ebx,%eax
	leaq	U_$FMSYNTH_$$_VOICES(%rip),%rdx
	movq	(%rdx,%rax,8),%rcx
	movapd	%xmm6,%xmm1
	call	FMSYNTH$_$TFMVOICE_$__$$_SETFREQ$DOUBLE
.Ll93:
# [217] for i:=0 to 7 do voices[channel].operators[i].vel:=flogtable[49152+128*velocity];
	movl	$0,%r13d
	subl	$1,%r13d
	.balign 8,0x90
.Lj352:
	addl	$1,%r13d
# PeepHole Optimization,var2a
	movl	%ebx,%eax
	leaq	U_$FMSYNTH_$$_VOICES(%rip),%rdx
	movq	(%rdx,%rax,8),%rdx
# PeepHole Optimization,var2a
	movl	%r13d,%eax
	movq	8(%rdx,%rax,8),%rcx
	movslq	%edi,%rax
	shlq	$7,%rax
	leaq	U_$FMSYNTH_$$_FLOGTABLE(%rip),%rdx
	movq	393216(%rdx,%rax,8),%rax
	movq	%rax,264(%rcx)
	cmpl	$7,%r13d
	jl	.Lj352
# PeepHole Optimization,var2a
.Ll94:
# [218] {if note<60 then voices[channel].operators[0].mul1:=20000 else} voices[channel].operators[0].mul1:=0;//16384/64;
	movl	%ebx,%eax
	leaq	U_$FMSYNTH_$$_VOICES(%rip),%rdx
	movq	(%rdx,%rax,8),%rax
	movq	8(%rax),%rax
	movq	_$SYNTHCONTROL$_Ld4(%rip),%rdx
	movq	%rdx,80(%rax)
# PeepHole Optimization,var2a
.Ll95:
# [219] {if note<60 then voices[channel].operators[2].mul3:=20000 else }voices[channel].operators[2].mul3:=0;//16384/64;
	movl	%ebx,%eax
	leaq	U_$FMSYNTH_$$_VOICES(%rip),%rdx
	movq	(%rdx,%rax,8),%rax
	movq	24(%rax),%rdx
	movq	_$SYNTHCONTROL$_Ld4(%rip),%rax
	movq	%rax,96(%rdx)
# PeepHole Optimization,var2a
.Ll96:
# [220] {if note<60 then voices[channel].operators[4].mul5:=20000 else} voices[channel].operators[4].mul5:=0;//16384/64;
	movl	%ebx,%eax
	leaq	U_$FMSYNTH_$$_VOICES(%rip),%rdx
	movq	(%rdx,%rax,8),%rax
	movq	40(%rax),%rdx
	movq	_$SYNTHCONTROL$_Ld4(%rip),%rax
	movq	%rax,112(%rdx)
# PeepHole Optimization,var2a
.Ll97:
# [221] voices[channel].operators[1].mul1:=0000/64;
	movl	%ebx,%eax
	leaq	U_$FMSYNTH_$$_VOICES(%rip),%rdx
	movq	(%rdx,%rax,8),%rax
	movq	16(%rax),%rdx
	movq	_$SYNTHCONTROL$_Ld4(%rip),%rax
	movq	%rax,80(%rdx)
# PeepHole Optimization,var2a
.Ll98:
# [222] voices[channel].operators[3].mul3:=0000/64;
	movl	%ebx,%eax
	leaq	U_$FMSYNTH_$$_VOICES(%rip),%rdx
	movq	(%rdx,%rax,8),%rax
	movq	32(%rax),%rdx
	movq	_$SYNTHCONTROL$_Ld4(%rip),%rax
	movq	%rax,96(%rdx)
# PeepHole Optimization,var2a
.Ll99:
# [223] voices[channel].operators[5].mul5:=0000/64;
	movl	%ebx,%eax
	leaq	U_$FMSYNTH_$$_VOICES(%rip),%rdx
	movq	(%rdx,%rax,8),%rax
	movq	48(%rax),%rdx
	movq	_$SYNTHCONTROL$_Ld4(%rip),%rax
	movq	%rax,112(%rdx)
# PeepHole Optimization,var2a
.Ll100:
# [224] {if note<60 then voices[channel].operators[1].adsrbias:=0.9 else } voices[channel].operators[1].adsrbias:=0;
	movl	%ebx,%eax
	leaq	U_$FMSYNTH_$$_VOICES(%rip),%rdx
	movq	(%rdx,%rax,8),%rax
	movq	16(%rax),%rdx
	movq	_$SYNTHCONTROL$_Ld4(%rip),%rax
	movq	%rax,256(%rdx)
# PeepHole Optimization,var2a
.Ll101:
# [225] {if note<60 then voices[channel].operators[3].adsrbias:=0.9 else }voices[channel].operators[3].adsrbias:=0;
	movl	%ebx,%eax
	leaq	U_$FMSYNTH_$$_VOICES(%rip),%rdx
	movq	(%rdx,%rax,8),%rax
	movq	32(%rax),%rdx
	movq	_$SYNTHCONTROL$_Ld4(%rip),%rax
	movq	%rax,256(%rdx)
# PeepHole Optimization,var2a
.Ll102:
# [226] {if note<60 then voices[channel].operators[5].adsrbias:=0.9 else} voices[channel].operators[5].adsrbias:=0;
	movl	%ebx,%eax
	leaq	U_$FMSYNTH_$$_VOICES(%rip),%rdx
	movq	(%rdx,%rax,8),%rax
	movq	48(%rax),%rax
	movq	_$SYNTHCONTROL$_Ld4(%rip),%rdx
	movq	%rdx,256(%rax)
# PeepHole Optimization,var2a
.Ll103:
# [227] voices[channel].operators[1].keysense:=1;
	movl	%ebx,%eax
	leaq	U_$FMSYNTH_$$_VOICES(%rip),%rdx
	movq	(%rdx,%rax,8),%rax
	movq	16(%rax),%rdx
	movq	_$SYNTHCONTROL$_Ld5(%rip),%rax
	movq	%rax,272(%rdx)
# PeepHole Optimization,var2a
.Ll104:
# [228] voices[channel].operators[3].keysense:=1;
	movl	%ebx,%eax
	leaq	U_$FMSYNTH_$$_VOICES(%rip),%rdx
	movq	(%rdx,%rax,8),%rax
	movq	32(%rax),%rdx
	movq	_$SYNTHCONTROL$_Ld5(%rip),%rax
	movq	%rax,272(%rdx)
# PeepHole Optimization,var2a
.Ll105:
# [229] voices[channel].operators[5].keysense:=1;
	movl	%ebx,%eax
	leaq	U_$FMSYNTH_$$_VOICES(%rip),%rdx
	movq	(%rdx,%rax,8),%rax
	movq	48(%rax),%rax
	movq	_$SYNTHCONTROL$_Ld5(%rip),%rdx
	movq	%rdx,272(%rax)
# PeepHole Optimization,var2a
.Ll106:
# [230] voices[channel].outmuls[1]:=0;
	movl	%ebx,%eax
	leaq	U_$FMSYNTH_$$_VOICES(%rip),%rdx
	movq	(%rdx,%rax,8),%rax
	movl	_$SYNTHCONTROL$_Ld6(%rip),%edx
	movl	%edx,140(%rax)
# PeepHole Optimization,var2a
.Ll107:
# [231] voices[channel].outmuls[3]:=0;
	movl	%ebx,%eax
	leaq	U_$FMSYNTH_$$_VOICES(%rip),%rdx
	movq	(%rdx,%rax,8),%rax
	movl	_$SYNTHCONTROL$_Ld6(%rip),%edx
	movl	%edx,148(%rax)
# PeepHole Optimization,var2a
.Ll108:
# [232] voices[channel].outmuls[5]:=0;
	movl	%ebx,%eax
	leaq	U_$FMSYNTH_$$_VOICES(%rip),%rdx
	movq	(%rdx,%rax,8),%rax
	movl	_$SYNTHCONTROL$_Ld6(%rip),%edx
	movl	%edx,156(%rax)
# PeepHole Optimization,var2a
.Ll109:
# [233] voices[channel].outmuls[0]:=1;
	movl	%ebx,%eax
	leaq	U_$FMSYNTH_$$_VOICES(%rip),%rdx
	movq	(%rdx,%rax,8),%rdx
	movl	_$SYNTHCONTROL$_Ld7(%rip),%eax
	movl	%eax,136(%rdx)
# PeepHole Optimization,var2a
.Ll110:
# [234] voices[channel].outmuls[2]:=1;
	movl	%ebx,%eax
	leaq	U_$FMSYNTH_$$_VOICES(%rip),%rdx
	movq	(%rdx,%rax,8),%rax
	movl	_$SYNTHCONTROL$_Ld7(%rip),%edx
	movl	%edx,144(%rax)
# PeepHole Optimization,var2a
.Ll111:
# [235] voices[channel].outmuls[4]:=1;
	movl	%ebx,%eax
	leaq	U_$FMSYNTH_$$_VOICES(%rip),%rdx
	movq	(%rdx,%rax,8),%rax
	movl	_$SYNTHCONTROL$_Ld7(%rip),%edx
	movl	%edx,152(%rax)
# PeepHole Optimization,var2a
.Ll112:
# [236] voices[channel].outmuls[6]:=0;
	movl	%ebx,%eax
	leaq	U_$FMSYNTH_$$_VOICES(%rip),%rdx
	movq	(%rdx,%rax,8),%rax
	movl	_$SYNTHCONTROL$_Ld6(%rip),%edx
	movl	%edx,160(%rax)
# PeepHole Optimization,var2a
.Ll113:
# [237] voices[channel].outmuls[7]:=0;
	movl	%ebx,%eax
	leaq	U_$FMSYNTH_$$_VOICES(%rip),%rdx
	movq	(%rdx,%rax,8),%rdx
	movl	_$SYNTHCONTROL$_Ld6(%rip),%eax
	movl	%eax,164(%rdx)
.Ll114:
# [239] for i:=0 to 7 do  voices[channel].operators[i].wptr:=waves1[waveidx].wave;
	movl	$0,%r13d
	subl	$1,%r13d
	.balign 8,0x90
.Lj397:
	addl	$1,%r13d
# PeepHole Optimization,var2a
	movl	%ebx,%eax
	leaq	U_$FMSYNTH_$$_VOICES(%rip),%rdx
	movq	(%rdx,%rax,8),%rdx
# PeepHole Optimization,var2a
	movl	%r13d,%eax
	movq	8(%rdx,%rax,8),%rcx
	movl	TC_$FMSYNTH_$$_WAVEIDX(%rip),%eax
	imulq	$40,%rax,%rdx
	leaq	U_$FMSYNTH_$$_WAVES1(%rip),%rax
	movq	32(%rax,%rdx),%rax
	movq	%rax,136(%rcx)
	cmpl	$7,%r13d
	jl	.Lj397
.Ll115:
# [240] for i:=0 to 7 do  voices[channel].operators[i].wlend:=waves1[waveidx].lend ;
	movl	$0,%r13d
	subl	$1,%r13d
	.balign 8,0x90
.Lj402:
	addl	$1,%r13d
# PeepHole Optimization,var2a
	movl	%ebx,%eax
	leaq	U_$FMSYNTH_$$_VOICES(%rip),%rdx
	movq	(%rdx,%rax,8),%rdx
# PeepHole Optimization,var2a
	movl	%r13d,%eax
	movq	8(%rdx,%rax,8),%rcx
	movl	TC_$FMSYNTH_$$_WAVEIDX(%rip),%eax
	imulq	$40,%rax,%rdx
	leaq	U_$FMSYNTH_$$_WAVES1(%rip),%rax
	cvtsi2sdl	16(%rax,%rdx),%xmm0
	movsd	%xmm0,160(%rcx)
	cmpl	$7,%r13d
	jl	.Lj402
.Ll116:
# [241] for i:=0 to 7 do  voices[channel].operators[i].wlstart:=waves1[waveidx].lstart;
	movl	$0,%r13d
	subl	$1,%r13d
	.balign 8,0x90
.Lj407:
	addl	$1,%r13d
# PeepHole Optimization,var2a
	movl	%ebx,%eax
	leaq	U_$FMSYNTH_$$_VOICES(%rip),%rdx
	movq	(%rdx,%rax,8),%rdx
# PeepHole Optimization,var2a
	movl	%r13d,%eax
	movq	8(%rdx,%rax,8),%rcx
	movl	TC_$FMSYNTH_$$_WAVEIDX(%rip),%eax
	imulq	$40,%rax,%rax
	leaq	U_$FMSYNTH_$$_WAVES1(%rip),%rdx
	cvtsi2sdl	12(%rdx,%rax),%xmm0
	movsd	%xmm0,152(%rcx)
	cmpl	$7,%r13d
	jl	.Lj407
.Ll117:
# [242] for i:=0 to 7 do  voices[channel].operators[i].wlength:=waves1[waveidx].len;
	movl	$0,%r13d
	subl	$1,%r13d
	.balign 8,0x90
.Lj412:
	addl	$1,%r13d
# PeepHole Optimization,var2a
	movl	%ebx,%eax
	leaq	U_$FMSYNTH_$$_VOICES(%rip),%rdx
	movq	(%rdx,%rax,8),%rdx
# PeepHole Optimization,var2a
	movl	%r13d,%eax
	movq	8(%rdx,%rax,8),%rcx
	movl	TC_$FMSYNTH_$$_WAVEIDX(%rip),%eax
	imulq	$40,%rax,%rax
	leaq	U_$FMSYNTH_$$_WAVES1(%rip),%rdx
	cvtsi2sdl	8(%rdx,%rax),%xmm0
	movsd	%xmm0,144(%rcx)
	cmpl	$7,%r13d
	jl	.Lj412
.Ll118:
# [244] for i:=0 to 7 do  voices[channel].operators[i].wavemode:=1;
	movl	$0,%r13d
	subl	$1,%r13d
	.balign 8,0x90
.Lj417:
	addl	$1,%r13d
# PeepHole Optimization,var2a
	movl	%ebx,%eax
	leaq	U_$FMSYNTH_$$_VOICES(%rip),%rdx
	movq	(%rdx,%rax,8),%rdx
# PeepHole Optimization,var2a
	movl	%r13d,%eax
	movq	8(%rdx,%rax,8),%rax
	movl	$1,324(%rax)
	cmpl	$7,%r13d
	jl	.Lj417
.Ll119:
# [247] for i:=0 to 7 do  voices[channel].operators[i].ar1:=att;
	movl	$0,%r13d
	subl	$1,%r13d
	.balign 8,0x90
.Lj422:
	addl	$1,%r13d
# PeepHole Optimization,var2a
	movl	%ebx,%eax
	leaq	U_$FMSYNTH_$$_VOICES(%rip),%rdx
	movq	(%rdx,%rax,8),%rdx
# PeepHole Optimization,var2a
	movl	%r13d,%eax
	movq	8(%rdx,%rax,8),%rdx
	movq	TC_$FMSYNTH_$$_ATT(%rip),%rax
	movq	%rax,176(%rdx)
	cmpl	$7,%r13d
	jl	.Lj422
.Ll120:
# [248] for i:=0 to 7 do voices[channel].operators[i].adsrstate:=1;
	movl	$0,%r13d
	subl	$1,%r13d
	.balign 8,0x90
.Lj427:
	addl	$1,%r13d
# PeepHole Optimization,var2a
	movl	%ebx,%eax
	leaq	U_$FMSYNTH_$$_VOICES(%rip),%rdx
	movq	(%rdx,%rax,8),%rdx
# PeepHole Optimization,var2a
	movl	%r13d,%eax
	movq	8(%rdx,%rax,8),%rax
	movl	$1,320(%rax)
	cmpl	$7,%r13d
	jl	.Lj427
.Ll121:
# [250] for i:=0 to 7 do voices[channel].operators[i].adsrval:=0;
	movl	$0,%r13d
	subl	$1,%r13d
	.balign 8,0x90
.Lj432:
	addl	$1,%r13d
# PeepHole Optimization,var2a
	movl	%ebx,%eax
	leaq	U_$FMSYNTH_$$_VOICES(%rip),%rdx
	movq	(%rdx,%rax,8),%rdx
# PeepHole Optimization,var2a
	movl	%r13d,%eax
	movq	8(%rdx,%rax,8),%rax
	movq	_$SYNTHCONTROL$_Ld4(%rip),%rdx
	movq	%rdx,168(%rax)
	cmpl	$7,%r13d
	jl	.Lj432
.Lj343:
.Ll122:
# [252] end;
	nop
	movdqa	32(%rsp),%xmm6
	leaq	48(%rsp),%rsp
	popq	%r13
	popq	%r12
	popq	%rsi
	popq	%rdi
	popq	%rbx
	ret
.seh_endproc
.Lc29:
.Lt5:
.Ll123:

.section .text.n_synthcontrol_$$_noteoff$longint$longint,"x"
	.balign 16,0x90
.globl	SYNTHCONTROL_$$_NOTEOFF$LONGINT$LONGINT
SYNTHCONTROL_$$_NOTEOFF$LONGINT$LONGINT:
.Lc31:
# Var channel located in register ecx
# Var note located in register edx
# Var i located in register r8d
# [262] begin
.Ll124:
# [263] if channel<maxchannel then for i:=0 to 7 do voices[channel].operators[i].adsrstate:=5;
	cmpl	$32,%ecx
	jnl	.Lj438
	movl	$0,%r8d
	subl	$1,%r8d
	.balign 8,0x90
.Lj441:
	addl	$1,%r8d
# PeepHole Optimization,var2a
	movl	%ecx,%eax
	leaq	U_$FMSYNTH_$$_VOICES(%rip),%r9
	movq	(%r9,%rax,8),%r9
# PeepHole Optimization,var2a
	movl	%r8d,%eax
	movq	8(%r9,%rax,8),%rax
	movl	$5,320(%rax)
	cmpl	$7,%r8d
	jl	.Lj441
.Lj438:
.Ll125:
# [265] end;
	ret
.Lc32:
.Lt6:
.Ll126:
# End asmlist al_procedures
# Begin asmlist al_globals

.section .bss
	.balign 8
# [22] var channels:array[0..maxchannel-1] of int64;
	.globl U_$SYNTHCONTROL_$$_CHANNELS
U_$SYNTHCONTROL_$$_CHANNELS:
	.zero 256

.section .bss
	.balign 4
# [23] notes:array[0..127,0..4] of integer;
	.globl U_$SYNTHCONTROL_$$_NOTES
U_$SYNTHCONTROL_$$_NOTES:
	.zero 2560

.section .data.n_VMT_$SYNTHCONTROL_$$_TSYNTHCTRL,"d"
	.balign 8
.globl	VMT_$SYNTHCONTROL_$$_TSYNTHCTRL
VMT_$SYNTHCONTROL_$$_TSYNTHCTRL:
	.quad	88,-88
	.quad	VMT_$CLASSES_$$_TTHREAD
	.quad	.Ld8
	.quad	0,0,0
	.quad	RTTI_$SYNTHCONTROL_$$_TSYNTHCTRL
	.quad	0,0
	.quad	FPC_EMPTYINTF
	.quad	0
	.quad	CLASSES$_$TTHREAD_$__$$_DESTROY
	.quad	SYSTEM$_$TOBJECT_$__$$_NEWINSTANCE$$TOBJECT
	.quad	SYSTEM$_$TOBJECT_$__$$_FREEINSTANCE
	.quad	SYSTEM$_$TOBJECT_$__$$_SAFECALLEXCEPTION$TOBJECT$POINTER$$HRESULT
	.quad	FPC_EMPTYMETHOD
	.quad	CLASSES$_$TTHREAD_$__$$_AFTERCONSTRUCTION
	.quad	FPC_EMPTYMETHOD
	.quad	FPC_EMPTYMETHOD
	.quad	SYSTEM$_$TOBJECT_$__$$_DISPATCH$formal
	.quad	SYSTEM$_$TOBJECT_$__$$_DISPATCHSTR$formal
	.quad	SYSTEM$_$TOBJECT_$__$$_EQUALS$TOBJECT$$BOOLEAN
	.quad	SYSTEM$_$TOBJECT_$__$$_GETHASHCODE$$INT64
	.quad	SYSTEM$_$TOBJECT_$__$$_TOSTRING$$ANSISTRING
	.quad	CLASSES$_$TTHREAD_$__$$_DOTERMINATE
	.quad	SYNTHCONTROL$_$TSYNTHCTRL_$__$$_EXECUTE
	.quad	0
# [269] 
	.balign 8
.Ld8:
	.byte	10
	.ascii	"TSynthCtrl"
# End asmlist al_globals
# Begin asmlist al_typedconsts

.section .data.n_tc_$synthcontrol_$$_keymap2,"d"
.globl	TC_$SYNTHCONTROL_$$_KEYMAP2
TC_$SYNTHCONTROL_$$_KEYMAP2:
	.byte	0,0,0,0,49,57,53,0,0,54,56,58,79,0,61,63,60,59,81,83,67,72,51,74,77,55,69,52,76,50,66,68,0,0,73,75,0,78,80,0,0,0
	.byte	87,0,72,94,74,76,92,0,78,80,82,0,85,87,0,90,0,0,0,0,0,0,0,0,0,0,0,0,100,101,102,0,0,0,0,0,0,0,0,0,0,0,0,0,0,0,0,0,0,95,0,96
	.byte	0,0,0,0,67,64,63,81,0,66,68,89,70,0,73,71,69,91,93,77,83,61,84,88,65,79,62,86,60,0,0,0,0,0,0,0,0,0,0,0,0,0,0,0,0,0,0,0
	.byte	0,0,0,0,0,0,0,0,0,0,0,0,0,0,0,0,0,0,0,0,0,0,0,0,0,0,0,0,0,0,0,0,0,0,0,0,0,0,0,0,0,0,0,0,0,0,0,0,0,0,0,0,0,0,0,0,0,0,0,0,0,0,0,0,0,0,0,0,0,0,0
	.byte	0,0,0,0,0,0,0,0,0,0,0,0,59,0,0,0,0,0,0,0,0,0,0,0,0,0,0,0,0,0,0,0,0,0,0,0,0,0,0,0,0,0,0
# [55] function allocatechannel(mode:integer):integer;

.section .rodata.n__$SYNTHCONTROL$_Ld1,"d"
	.balign 8
.globl	_$SYNTHCONTROL$_Ld1
_$SYNTHCONTROL$_Ld1:
# value: 0d+7.4920000000000000E+003
	.byte	0,0,0,0,0,68,189,64

.section .rodata.n__$SYNTHCONTROL$_Ld2,"d"
	.balign 8
.globl	_$SYNTHCONTROL$_Ld2
_$SYNTHCONTROL$_Ld2:
# value: 0d+8.3333333333333329E-002
	.byte	85,85,85,85,85,85,181,63

.section .rodata.n__$SYNTHCONTROL$_Ld3,"d"
	.balign 8
.globl	_$SYNTHCONTROL$_Ld3
_$SYNTHCONTROL$_Ld3:
# value: 0d+2.0000000000000000E+000
	.byte	0,0,0,0,0,0,0,64

.section .rodata.n__$SYNTHCONTROL$_Ld4,"d"
	.balign 8
.globl	_$SYNTHCONTROL$_Ld4
_$SYNTHCONTROL$_Ld4:
# value: 0d+0.0000000000000000E+000
	.byte	0,0,0,0,0,0,0,0

.section .rodata.n__$SYNTHCONTROL$_Ld5,"d"
	.balign 8
.globl	_$SYNTHCONTROL$_Ld5
_$SYNTHCONTROL$_Ld5:
# value: 0d+1.0000000000000000E+000
	.byte	0,0,0,0,0,0,240,63

.section .rodata.n__$SYNTHCONTROL$_Ld6,"d"
	.balign 4
.globl	_$SYNTHCONTROL$_Ld6
_$SYNTHCONTROL$_Ld6:
# value: 0d+0.000000000E+00
	.byte	0,0,0,0

.section .rodata.n__$SYNTHCONTROL$_Ld7,"d"
	.balign 4
.globl	_$SYNTHCONTROL$_Ld7
_$SYNTHCONTROL$_Ld7:
# value: 0d+1.000000000E+00
	.byte	0,0,128,63
# End asmlist al_typedconsts
# Begin asmlist al_rtti

.section .data.n_INIT_$SYNTHCONTROL_$$_TSYNTHCTRL,"d"
	.balign 8
.globl	INIT_$SYNTHCONTROL_$$_TSYNTHCTRL
INIT_$SYNTHCONTROL_$$_TSYNTHCTRL:
	.byte	15,10
	.ascii	"TSynthCtrl"
	.long	8,0

.section .data.n_RTTI_$SYNTHCONTROL_$$_TSYNTHCTRL,"d"
	.balign 8
.globl	RTTI_$SYNTHCONTROL_$$_TSYNTHCTRL
RTTI_$SYNTHCONTROL_$$_TSYNTHCTRL:
	.byte	15,10
	.ascii	"TSynthCtrl"
	.quad	VMT_$SYNTHCONTROL_$$_TSYNTHCTRL
	.quad	RTTI_$CLASSES_$$_TTHREAD
	.short	0
	.byte	12
	.ascii	"synthcontrol"
	.short	0
# End asmlist al_rtti
# Begin asmlist al_dwarf_frame

.section .debug_frame
.Lc33:
	.long	.Lc35-.Lc34
.Lc34:
	.long	-1
	.byte	1
	.byte	0
	.uleb128	1
	.sleb128	-4
	.byte	16
	.byte	12
	.uleb128	7
	.uleb128	8
	.byte	5
	.uleb128	16
	.uleb128	2
	.balign 4,0
.Lc35:
	.long	.Lc37-.Lc36
.Lc36:
	.secrel32	.Lc33
	.quad	.Lc1
	.quad	.Lc2-.Lc1
	.byte	4
	.long	.Lc3-.Lc1
	.byte	14
	.uleb128	16
	.byte	4
	.long	.Lc4-.Lc3
	.byte	5
	.uleb128	6
	.uleb128	4
	.byte	4
	.long	.Lc5-.Lc4
	.byte	13
	.uleb128	6
	.balign 4,0
.Lc37:
	.long	.Lc39-.Lc38
.Lc38:
	.secrel32	.Lc33
	.quad	.Lc6
	.quad	.Lc7-.Lc6
	.balign 4,0
.Lc39:
	.long	.Lc41-.Lc40
.Lc40:
	.secrel32	.Lc33
	.quad	.Lc8
	.quad	.Lc9-.Lc8
	.byte	4
	.long	.Lc10-.Lc8
	.byte	14
	.uleb128	16
	.byte	4
	.long	.Lc11-.Lc10
	.byte	5
	.uleb128	6
	.uleb128	4
	.byte	4
	.long	.Lc12-.Lc11
	.byte	13
	.uleb128	6
	.balign 4,0
.Lc41:
	.long	.Lc43-.Lc42
.Lc42:
	.secrel32	.Lc33
	.quad	.Lc13
	.quad	.Lc14-.Lc13
	.byte	4
	.long	.Lc15-.Lc13
	.byte	14
	.uleb128	16
	.byte	4
	.long	.Lc16-.Lc15
	.byte	5
	.uleb128	6
	.uleb128	4
	.byte	4
	.long	.Lc17-.Lc16
	.byte	13
	.uleb128	6
	.balign 4,0
.Lc43:
	.long	.Lc45-.Lc44
.Lc44:
	.secrel32	.Lc33
	.quad	.Lc18
	.quad	.Lc19-.Lc18
	.byte	4
	.long	.Lc20-.Lc18
	.byte	14
	.uleb128	16
	.byte	4
	.long	.Lc21-.Lc20
	.byte	5
	.uleb128	6
	.uleb128	4
	.byte	4
	.long	.Lc22-.Lc21
	.byte	13
	.uleb128	6
	.balign 4,0
.Lc45:
	.long	.Lc47-.Lc46
.Lc46:
	.secrel32	.Lc33
	.quad	.Lc23
	.quad	.Lc24-.Lc23
	.byte	4
	.long	.Lc25-.Lc23
	.byte	14
	.uleb128	16
	.byte	4
	.long	.Lc26-.Lc25
	.byte	5
	.uleb128	6
	.uleb128	4
	.byte	4
	.long	.Lc27-.Lc26
	.byte	13
	.uleb128	6
	.balign 4,0
.Lc47:
	.long	.Lc49-.Lc48
.Lc48:
	.secrel32	.Lc33
	.quad	.Lc28
	.quad	.Lc29-.Lc28
	.byte	4
	.long	.Lc30-.Lc28
	.byte	14
	.uleb128	56
	.balign 4,0
.Lc49:
	.long	.Lc51-.Lc50
.Lc50:
	.secrel32	.Lc33
	.quad	.Lc31
	.quad	.Lc32-.Lc31
	.balign 4,0
.Lc51:
# End asmlist al_dwarf_frame
# Begin asmlist al_dwarf_info

.section .text.z_DEBUGEND_$SYNTHCONTROL,"x"
.globl	DEBUGEND_$SYNTHCONTROL
DEBUGEND_$SYNTHCONTROL:
# End asmlist al_end

