	.file "umain.pas"
# Begin asmlist al_begin

.section .text.b_DEBUGSTART_$UMAIN,"x"
.globl	DEBUGSTART_$UMAIN
DEBUGSTART_$UMAIN:
# End asmlist al_begin
# Begin asmlist al_procedures

.section .text.n_umain$_$main1_$$_fin$0,"x"
	.balign 16,0x90
UMAIN$_$MAIN1_$$_fin$0:
.Lc1:
.seh_proc UMAIN$_$MAIN1_$$_fin$0
.Ll1:
# [umain.pas]
# [51] begin
	pushq	%rbp
.seh_pushreg %rbp
.Lc3:
.Lc4:
	movq	%rcx,%rbp
.Lc5:
	leaq	-32(%rsp),%rsp
.seh_stackalloc 32
# Var $parentfp located in register rbp
.seh_endprologue
.Ll2:
	leaq	-8(%rbp),%rcx
	call	fpc_ansistr_decr_ref
	nop
	leaq	32(%rsp),%rsp
	popq	%rbp
	ret
.seh_endproc
.Lc2:
.Lt2:
.Ll3:

.section .text.n_umain_$$_main1,"x"
	.balign 16,0x90
.globl	UMAIN_$$_MAIN1
UMAIN_$$_MAIN1:
.Lc6:
# Temps allocated between rbp-40 and rbp+0
.seh_proc UMAIN_$$_MAIN1
.Ll4:
	pushq	%rbp
.seh_pushreg %rbp
.Lc8:
.Lc9:
	movq	%rsp,%rbp
.Lc10:
	leaq	-128(%rsp),%rsp
.seh_stackalloc 128
# Var t located in register rbx
# Var i located in register esi
	movq	%rbx,-40(%rbp)
	movq	%rsi,-32(%rbp)
.seh_savereg %rbx, 88
.seh_savereg %rsi, 96
.seh_endprologue
.Ll5:
	movq	$0,-8(%rbp)
.Lj11:
	nop
.Lj7:
.Ll6:
# [55] raml^[$18010]:=$01001100;    raml^[$18011]:=$80040004;
	movq	U_$RETRO_$$_R1(%rip),%rax
	movl	$16781568,393280(%rax)
	movq	U_$RETRO_$$_R1(%rip),%rax
	movl	$-2147221500,393284(%rax)
.Ll7:
# [56] raml^[$18012]:=$01001100;    raml^[$18013]:=$00040004;
	movq	U_$RETRO_$$_R1(%rip),%rax
	movl	$16781568,393288(%rax)
	movq	U_$RETRO_$$_R1(%rip),%rax
	movl	$262148,393292(%rax)
.Ll8:
# [57] raml^[$18014]:=$01001100;    raml^[$18015]:=$00040004;
	movq	U_$RETRO_$$_R1(%rip),%rax
	movl	$16781568,393296(%rax)
	movq	U_$RETRO_$$_R1(%rip),%rax
	movl	$262148,393300(%rax)
.Ll9:
# [58] raml^[$18016]:=$01001100;    raml^[$18017]:=$00040004;
	movq	U_$RETRO_$$_R1(%rip),%rax
	movl	$16781568,393304(%rax)
	movq	U_$RETRO_$$_R1(%rip),%rax
	movl	$262148,393308(%rax)
.Ll10:
# [59] raml^[$18018]:=$01001100;    raml^[$18019]:=$00040004;
	movq	U_$RETRO_$$_R1(%rip),%rax
	movl	$16781568,393312(%rax)
	movq	U_$RETRO_$$_R1(%rip),%rax
	movl	$262148,393316(%rax)
.Ll11:
# [60] raml^[$1801a]:=$01001100;    raml^[$1801b]:=$00040004;
	movq	U_$RETRO_$$_R1(%rip),%rax
	movl	$16781568,393320(%rax)
	movq	U_$RETRO_$$_R1(%rip),%rax
	movl	$262148,393324(%rax)
.Ll12:
# [61] raml^[$1801c]:=$01001100;    raml^[$1801d]:=$00040004;
	movq	U_$RETRO_$$_R1(%rip),%rax
	movl	$16781568,393328(%rax)
	movq	U_$RETRO_$$_R1(%rip),%rax
	movl	$262148,393332(%rax)
.Ll13:
# [62] raml^[$1801e]:=$01001100;    raml^[$1801f]:=$00020002;
	movq	U_$RETRO_$$_R1(%rip),%rax
	movl	$16781568,393336(%rax)
	movq	U_$RETRO_$$_R1(%rip),%rax
	movl	$131074,393340(%rax)
.Ll14:
# [66] for i:=0 to 31 do
	movl	$0,%esi
	subl	$1,%esi
	.balign 8,0x90
.Lj46:
	addl	$1,%esi
.Ll15:
# [67] for j:=0 to 31 do  begin
	movl	$0,U_$UMAIN_$$_J(%rip)
	subl	$1,U_$UMAIN_$$_J(%rip)
	.balign 8,0x90
.Lj49:
	addl	$1,U_$UMAIN_$$_J(%rip)
.Ll16:
# [68] if j<16 then k:=j*16 else k:=(31-j)*16 ;
	cmpl	$16,U_$UMAIN_$$_J(%rip)
	jnl	.Lj51
	movl	U_$UMAIN_$$_J(%rip),%eax
	shll	$4,%eax
	movl	%eax,U_$UMAIN_$$_K(%rip)
	jmp	.Lj54
.Lj51:
	movl	U_$UMAIN_$$_J(%rip),%edx
	movl	$31,%eax
	subl	%edx,%eax
	shll	$4,%eax
	movl	%eax,U_$UMAIN_$$_K(%rip)
.Lj54:
.Ll17:
# [69] if (i<11) or (i>21) or (j<11) or (j>21) then raml^[$14800+i+32*j]:=k else  raml^[$14800+i+32*j]:=$0;
	cmpl	$11,%esi
	jl	.Lj57
	cmpl	$21,%esi
	jg	.Lj57
.Ll18:
	movl	U_$UMAIN_$$_J(%rip),%eax
.Ll19:
	cmpl	$11,%eax
	jl	.Lj57
	cmpl	$21,%eax
	jng	.Lj58
.Lj57:
	movq	U_$RETRO_$$_R1(%rip),%rcx
	movslq	%esi,%rax
	leaq	83968(%rax),%rdx
	movslq	U_$UMAIN_$$_J(%rip),%rax
	shlq	$5,%rax
	leaq	(%rdx,%rax),%rax
	movl	U_$UMAIN_$$_K(%rip),%edx
	movl	%edx,(%rcx,%rax,4)
	jmp	.Lj66
.Lj58:
	movq	U_$RETRO_$$_R1(%rip),%rcx
	movslq	%esi,%rax
	leaq	83968(%rax),%rdx
	movslq	U_$UMAIN_$$_J(%rip),%rax
	shlq	$5,%rax
	leaq	(%rdx,%rax),%rax
	movl	$0,(%rcx,%rax,4)
.Lj66:
.Ll20:
	cmpl	$31,U_$UMAIN_$$_J(%rip)
	jl	.Lj49
.Ll21:
	cmpl	$31,%esi
	jl	.Lj46
.Ll22:
# [72] for i:=0 to 31 do
	movl	$0,%esi
	subl	$1,%esi
	.balign 8,0x90
.Lj71:
	addl	$1,%esi
.Ll23:
# [73] for j:=0 to 31 do  begin
	movl	$0,U_$UMAIN_$$_J(%rip)
	subl	$1,U_$UMAIN_$$_J(%rip)
	.balign 8,0x90
.Lj74:
	addl	$1,U_$UMAIN_$$_J(%rip)
.Ll24:
# [74] if j<16 then k:=j*16 else k:=(31-j)*16 ;
	cmpl	$16,U_$UMAIN_$$_J(%rip)
	jnl	.Lj76
	movl	U_$UMAIN_$$_J(%rip),%eax
	shll	$4,%eax
	movl	%eax,U_$UMAIN_$$_K(%rip)
	jmp	.Lj79
.Lj76:
	movl	U_$UMAIN_$$_J(%rip),%edx
	movl	$31,%eax
	subl	%edx,%eax
	shll	$4,%eax
	movl	%eax,U_$UMAIN_$$_K(%rip)
.Lj79:
# PeepHole Optimization,var2
# P=movl
# HP1=shll
# HP2=movl
# PeepHole Optimization,var2
.Ll25:
# [75] k:=k shl 8;
	shll	$8,U_$UMAIN_$$_K(%rip)
.Ll26:
# [76] if (i<11) or (i>21) or (j<11) or (j>21) then raml^[$14C00+i+32*j]:=k else  raml^[$14C00+i+32*j]:=$0;
	cmpl	$11,%esi
	jl	.Lj84
	cmpl	$21,%esi
	jg	.Lj84
.Ll27:
	movl	U_$UMAIN_$$_J(%rip),%eax
.Ll28:
	cmpl	$11,%eax
	jl	.Lj84
	cmpl	$21,%eax
	jng	.Lj85
.Lj84:
	movq	U_$RETRO_$$_R1(%rip),%rcx
	movslq	%esi,%rax
	leaq	84992(%rax),%rdx
	movslq	U_$UMAIN_$$_J(%rip),%rax
	shlq	$5,%rax
	leaq	(%rdx,%rax),%rdx
	movl	U_$UMAIN_$$_K(%rip),%eax
	movl	%eax,(%rcx,%rdx,4)
	jmp	.Lj93
.Lj85:
	movq	U_$RETRO_$$_R1(%rip),%rcx
	movslq	%esi,%rax
	leaq	84992(%rax),%rdx
	movslq	U_$UMAIN_$$_J(%rip),%rax
	shlq	$5,%rax
	leaq	(%rdx,%rax),%rax
	movl	$0,(%rcx,%rax,4)
.Lj93:
.Ll29:
	cmpl	$31,U_$UMAIN_$$_J(%rip)
	jl	.Lj74
.Ll30:
	cmpl	$31,%esi
	jl	.Lj71
.Ll31:
# [79] for i:=0 to 31 do
	movl	$0,%esi
	subl	$1,%esi
	.balign 8,0x90
.Lj98:
	addl	$1,%esi
.Ll32:
# [80] for j:=0 to 31 do  begin
	movl	$0,U_$UMAIN_$$_J(%rip)
	subl	$1,U_$UMAIN_$$_J(%rip)
	.balign 8,0x90
.Lj101:
	addl	$1,U_$UMAIN_$$_J(%rip)
.Ll33:
# [81] if j<16 then k:=j*16 else k:=(31-j)*16 ;
	cmpl	$16,U_$UMAIN_$$_J(%rip)
	jnl	.Lj103
	movl	U_$UMAIN_$$_J(%rip),%eax
	shll	$4,%eax
	movl	%eax,U_$UMAIN_$$_K(%rip)
	jmp	.Lj106
.Lj103:
	movl	U_$UMAIN_$$_J(%rip),%edx
	movl	$31,%eax
	subl	%edx,%eax
	shll	$4,%eax
	movl	%eax,U_$UMAIN_$$_K(%rip)
.Lj106:
# PeepHole Optimization,var2
# P=movl
# HP1=shll
# HP2=movl
# PeepHole Optimization,var2
.Ll34:
# [82] k:=k shl 16;
	shll	$16,U_$UMAIN_$$_K(%rip)
.Ll35:
# [83] if (i<11) or (i>21) or (j<11) or (j>21) then raml^[$15000+i+32*j]:=k else  raml^[$15000+i+32*j]:=$0;
	cmpl	$11,%esi
	jl	.Lj111
	cmpl	$21,%esi
	jg	.Lj111
.Ll36:
	movl	U_$UMAIN_$$_J(%rip),%eax
.Ll37:
	cmpl	$11,%eax
	jl	.Lj111
	cmpl	$21,%eax
	jng	.Lj112
.Lj111:
	movq	U_$RETRO_$$_R1(%rip),%rcx
	movslq	%esi,%rax
	leaq	86016(%rax),%rdx
	movslq	U_$UMAIN_$$_J(%rip),%rax
	shlq	$5,%rax
	leaq	(%rdx,%rax),%rax
	movl	U_$UMAIN_$$_K(%rip),%edx
	movl	%edx,(%rcx,%rax,4)
	jmp	.Lj120
.Lj112:
	movq	U_$RETRO_$$_R1(%rip),%rcx
	movslq	%esi,%rax
	leaq	86016(%rax),%rdx
	movslq	U_$UMAIN_$$_J(%rip),%rax
	shlq	$5,%rax
	leaq	(%rdx,%rax),%rax
	movl	$0,(%rcx,%rax,4)
.Lj120:
.Ll38:
	cmpl	$31,U_$UMAIN_$$_J(%rip)
	jl	.Lj101
.Ll39:
	cmpl	$31,%esi
	jl	.Lj98
.Ll40:
# [90] graphics(16);
	movl	$16,%ecx
	call	RETRO_$$_GRAPHICS$LONGINT
.Ll41:
# [91] cls(146);
	movl	$146,%ecx
	call	RETRO_$$_CLS$LONGINT
.Ll42:
# [92] ttt:=gettime;
	call	RETRO_$$_GETTIME$$INT64
	movq	%rax,U_$UMAIN_$$_TTT(%rip)
.Ll43:
# [93] outtextxyz(96,16,'The retromachine SID player v. 0.04 --- 2016.04.28',154,4,2);
	movl	$2,40(%rsp)
	movl	$4,32(%rsp)
	leaq	_$UMAIN$_Ld1(%rip),%r8
	movl	$154,%r9d
	movl	$16,%edx
	movl	$96,%ecx
	call	RETRO_$$_OUTTEXTXYZ$LONGINT$LONGINT$ANSISTRING$LONGINT$LONGINT$LONGINT
.Ll44:
# [94] box2(8,64,1784,1112,0);
	movl	$0,32(%rsp)
	movl	$1112,%r9d
	movl	$1784,%r8d
	movl	$64,%edx
	movl	$8,%ecx
	call	RETRO_$$_BOX2$LONGINT$LONGINT$LONGINT$LONGINT$LONGINT
.Ll45:
# [95] box2(10,1062,1782,1110,120);
	movl	$120,32(%rsp)
	movl	$1110,%r9d
	movl	$1782,%r8d
	movl	$1062,%edx
	movl	$10,%ecx
	call	RETRO_$$_BOX2$LONGINT$LONGINT$LONGINT$LONGINT$LONGINT
.Ll46:
# [96] outtextxyz(32,1070,'Screen time:',124,2,2);
	movl	$2,40(%rsp)
	movl	$2,32(%rsp)
	leaq	_$UMAIN$_Ld2(%rip),%r8
	movl	$124,%r9d
	movl	$1070,%edx
	movl	$32,%ecx
	call	RETRO_$$_OUTTEXTXYZ$LONGINT$LONGINT$ANSISTRING$LONGINT$LONGINT$LONGINT
.Ll47:
# [97] k:=raml^[$18000];
	movq	U_$RETRO_$$_R1(%rip),%rax
	movl	393216(%rax),%eax
	movl	%eax,U_$UMAIN_$$_K(%rip)
.Ll48:
# [98] raml^[$18003]:=$002040;
	movq	U_$RETRO_$$_R1(%rip),%rax
	movl	$8256,393228(%rax)
.Ll49:
# [99] setataripallette(1);
	movl	$1,%ecx
	call	RETRO_$$_SETATARIPALLETTE$LONGINT
.Ll50:
# [100] setataripallette(2);
	movl	$2,%ecx
	call	RETRO_$$_SETATARIPALLETTE$LONGINT
.Ll51:
# [101] setataripallette(3);
	movl	$3,%ecx
	call	RETRO_$$_SETATARIPALLETTE$LONGINT
.Ll52:
# [102] sethidecolor(250,0,$FF);
	movl	$255,%r8d
	movl	$0,%edx
	movl	$250,%ecx
	call	RETRO_$$_SETHIDECOLOR$LONGINT$LONGINT$LONGINT
.Ll53:
# [103] sethidecolor(44,0,$FF);
	movl	$255,%r8d
	movl	$0,%edx
	movl	$44,%ecx
	call	RETRO_$$_SETHIDECOLOR$LONGINT$LONGINT$LONGINT
.Ll54:
# [104] sethidecolor(190,0,$FF);
	movl	$255,%r8d
	movl	$0,%edx
	movl	$190,%ecx
	call	RETRO_$$_SETHIDECOLOR$LONGINT$LONGINT$LONGINT
.Ll55:
# [105] sethidecolor(188,0,$FF);
	movl	$255,%r8d
	movl	$0,%edx
	movl	$188,%ecx
	call	RETRO_$$_SETHIDECOLOR$LONGINT$LONGINT$LONGINT
.Ll56:
# [106] c:=0;
	movq	$0,TC_$UMAIN_$$_C(%rip)
.Ll57:
# [107] avsct:=0;
	movq	$0,TC_$UMAIN_$$_AVSCT(%rip)
.Ll58:
# [108] avspt:=0;
	movq	$0,TC_$UMAIN_$$_AVSPT(%rip)
.Ll59:
# [109] avall:=0;
	movq	$0,TC_$UMAIN_$$_AVALL(%rip)
.Ll60:
# [110] avsid:=0;
	movq	$0,TC_$UMAIN_$$_AVSID(%rip)
.Ll61:
# [111] box2(10,1011,1782,1012,256+16);
	movl	$272,32(%rsp)
	movl	$1012,%r9d
	movl	$1782,%r8d
	movl	$1011,%edx
	movl	$10,%ecx
	call	RETRO_$$_BOX2$LONGINT$LONGINT$LONGINT$LONGINT$LONGINT
.Ll62:
# [112] box2(10,1013,1782,1014,256+17);
	movl	$273,32(%rsp)
	movl	$1014,%r9d
	movl	$1782,%r8d
	movl	$1013,%edx
	movl	$10,%ecx
	call	RETRO_$$_BOX2$LONGINT$LONGINT$LONGINT$LONGINT$LONGINT
.Ll63:
# [113] box2(10,1015,1782,1016,256+18);
	movl	$274,32(%rsp)
	movl	$1016,%r9d
	movl	$1782,%r8d
	movl	$1015,%edx
	movl	$10,%ecx
	call	RETRO_$$_BOX2$LONGINT$LONGINT$LONGINT$LONGINT$LONGINT
.Ll64:
# [114] box2(10,1017,1782,1018,256+19);
	movl	$275,32(%rsp)
	movl	$1018,%r9d
	movl	$1782,%r8d
	movl	$1017,%edx
	movl	$10,%ecx
	call	RETRO_$$_BOX2$LONGINT$LONGINT$LONGINT$LONGINT$LONGINT
.Ll65:
# [115] box2(10,1019,1782,1020,256+20);
	movl	$276,32(%rsp)
	movl	$1020,%r9d
	movl	$1782,%r8d
	movl	$1019,%edx
	movl	$10,%ecx
	call	RETRO_$$_BOX2$LONGINT$LONGINT$LONGINT$LONGINT$LONGINT
.Ll66:
# [116] box2(10,1021,1782,1022,256+21);
	movl	$277,32(%rsp)
	movl	$1022,%r9d
	movl	$1782,%r8d
	movl	$1021,%edx
	movl	$10,%ecx
	call	RETRO_$$_BOX2$LONGINT$LONGINT$LONGINT$LONGINT$LONGINT
.Ll67:
# [117] box2(10,1023,1782,1024,256+22);
	movl	$278,32(%rsp)
	movl	$1024,%r9d
	movl	$1782,%r8d
	movl	$1023,%edx
	movl	$10,%ecx
	call	RETRO_$$_BOX2$LONGINT$LONGINT$LONGINT$LONGINT$LONGINT
.Ll68:
# [118] box2(10,1025,1782,1026,256+23);
	movl	$279,32(%rsp)
	movl	$1026,%r9d
	movl	$1782,%r8d
	movl	$1025,%edx
	movl	$10,%ecx
	call	RETRO_$$_BOX2$LONGINT$LONGINT$LONGINT$LONGINT$LONGINT
.Ll69:
# [119] box2(10,1027,1782,1028,256+24);
	movl	$280,32(%rsp)
	movl	$1028,%r9d
	movl	$1782,%r8d
	movl	$1027,%edx
	movl	$10,%ecx
	call	RETRO_$$_BOX2$LONGINT$LONGINT$LONGINT$LONGINT$LONGINT
.Ll70:
# [120] box2(10,1029,1782,1030,256+25);
	movl	$281,32(%rsp)
	movl	$1030,%r9d
	movl	$1782,%r8d
	movl	$1029,%edx
	movl	$10,%ecx
	call	RETRO_$$_BOX2$LONGINT$LONGINT$LONGINT$LONGINT$LONGINT
.Ll71:
# [121] box2(10,1031,1782,1032,256+26);
	movl	$282,32(%rsp)
	movl	$1032,%r9d
	movl	$1782,%r8d
	movl	$1031,%edx
	movl	$10,%ecx
	call	RETRO_$$_BOX2$LONGINT$LONGINT$LONGINT$LONGINT$LONGINT
.Ll72:
# [122] box2(10,1033,1782,1034,256+27);
	movl	$283,32(%rsp)
	movl	$1034,%r9d
	movl	$1782,%r8d
	movl	$1033,%edx
	movl	$10,%ecx
	call	RETRO_$$_BOX2$LONGINT$LONGINT$LONGINT$LONGINT$LONGINT
.Ll73:
# [123] box2(10,1035,1782,1036,256+28);
	movl	$284,32(%rsp)
	movl	$1036,%r9d
	movl	$1782,%r8d
	movl	$1035,%edx
	movl	$10,%ecx
	call	RETRO_$$_BOX2$LONGINT$LONGINT$LONGINT$LONGINT$LONGINT
.Ll74:
# [124] box2(10,1037,1782,1038,256+29);
	movl	$285,32(%rsp)
	movl	$1038,%r9d
	movl	$1782,%r8d
	movl	$1037,%edx
	movl	$10,%ecx
	call	RETRO_$$_BOX2$LONGINT$LONGINT$LONGINT$LONGINT$LONGINT
.Ll75:
# [125] box2(10,1039,1782,1040,256+30);
	movl	$286,32(%rsp)
	movl	$1040,%r9d
	movl	$1782,%r8d
	movl	$1039,%edx
	movl	$10,%ecx
	call	RETRO_$$_BOX2$LONGINT$LONGINT$LONGINT$LONGINT$LONGINT
.Ll76:
# [126] box2(10,1041,1782,1042,256+31);
	movl	$287,32(%rsp)
	movl	$1042,%r9d
	movl	$1782,%r8d
	movl	$1041,%edx
	movl	$10,%ecx
	call	RETRO_$$_BOX2$LONGINT$LONGINT$LONGINT$LONGINT$LONGINT
.Ll77:
# [127] box2(10,1043,1782,1044,256+32);
	movl	$288,32(%rsp)
	movl	$1044,%r9d
	movl	$1782,%r8d
	movl	$1043,%edx
	movl	$10,%ecx
	call	RETRO_$$_BOX2$LONGINT$LONGINT$LONGINT$LONGINT$LONGINT
.Ll78:
# [128] box2(10,1045,1782,1046,256+33);
	movl	$289,32(%rsp)
	movl	$1046,%r9d
	movl	$1782,%r8d
	movl	$1045,%edx
	movl	$10,%ecx
	call	RETRO_$$_BOX2$LONGINT$LONGINT$LONGINT$LONGINT$LONGINT
.Ll79:
# [129] box2(10,1047,1782,1048,256+34);
	movl	$290,32(%rsp)
	movl	$1048,%r9d
	movl	$1782,%r8d
	movl	$1047,%edx
	movl	$10,%ecx
	call	RETRO_$$_BOX2$LONGINT$LONGINT$LONGINT$LONGINT$LONGINT
.Ll80:
# [130] box2(10,1049,1782,1050,256+35);
	movl	$291,32(%rsp)
	movl	$1050,%r9d
	movl	$1782,%r8d
	movl	$1049,%edx
	movl	$10,%ecx
	call	RETRO_$$_BOX2$LONGINT$LONGINT$LONGINT$LONGINT$LONGINT
.Ll81:
# [131] box2(10,1051,1782,1052,256+36);
	movl	$292,32(%rsp)
	movl	$1052,%r9d
	movl	$1782,%r8d
	movl	$1051,%edx
	movl	$10,%ecx
	call	RETRO_$$_BOX2$LONGINT$LONGINT$LONGINT$LONGINT$LONGINT
.Ll82:
# [132] box2(10,1053,1782,1054,256+37);
	movl	$293,32(%rsp)
	movl	$1054,%r9d
	movl	$1782,%r8d
	movl	$1053,%edx
	movl	$10,%ecx
	call	RETRO_$$_BOX2$LONGINT$LONGINT$LONGINT$LONGINT$LONGINT
.Ll83:
# [133] box2(10,1055,1782,1056,256+38);
	movl	$294,32(%rsp)
	movl	$1056,%r9d
	movl	$1782,%r8d
	movl	$1055,%edx
	movl	$10,%ecx
	call	RETRO_$$_BOX2$LONGINT$LONGINT$LONGINT$LONGINT$LONGINT
.Ll84:
# [134] box2(10,1057,1782,1058,256+39);
	movl	$295,32(%rsp)
	movl	$1058,%r9d
	movl	$1782,%r8d
	movl	$1057,%edx
	movl	$10,%ecx
	call	RETRO_$$_BOX2$LONGINT$LONGINT$LONGINT$LONGINT$LONGINT
.Ll85:
# [135] outtextxyz(24,1019,'A retromachine SID player by pik33 --- inspired by Johannes Ahlebrand''s Parallax Propeller SIDCog',256+135,2,2);
	movl	$2,40(%rsp)
	movl	$2,32(%rsp)
	leaq	_$UMAIN$_Ld3(%rip),%r8
	movl	$391,%r9d
	movl	$1019,%edx
	movl	$24,%ecx
	call	RETRO_$$_OUTTEXTXYZ$LONGINT$LONGINT$ANSISTRING$LONGINT$LONGINT$LONGINT
.Ll86:
# [136] blit($F000000,10,1011,$F800000,10,1011,1771,48,1792,1792);
	movl	$1792,72(%rsp)
	movl	$1792,64(%rsp)
	movl	$48,56(%rsp)
	movl	$1771,48(%rsp)
	movl	$1011,40(%rsp)
	movl	$10,32(%rsp)
	movl	$260046848,%r9d
	movl	$1011,%r8d
	movl	$10,%edx
	movl	$251658240,%ecx
	call	RETRO_$$_BLIT$crc5A667533
.Ll87:
# [137] box2(10,800,894,848,246);
	movl	$246,32(%rsp)
	movl	$848,%r9d
	movl	$894,%r8d
	movl	$800,%edx
	movl	$10,%ecx
	call	RETRO_$$_BOX2$LONGINT$LONGINT$LONGINT$LONGINT$LONGINT
.Ll88:
# [138] box2(10,851,894,1008,244);
	movl	$244,32(%rsp)
	movl	$1008,%r9d
	movl	$894,%r8d
	movl	$851,%edx
	movl	$10,%ecx
	call	RETRO_$$_BOX2$LONGINT$LONGINT$LONGINT$LONGINT$LONGINT
.Ll89:
# [139] outtextxyz(320,808,'Now playing',250,2,2);
	movl	$2,40(%rsp)
	movl	$2,32(%rsp)
	leaq	_$UMAIN$_Ld4(%rip),%r8
	movl	$250,%r9d
	movl	$808,%edx
	movl	$320,%ecx
	call	RETRO_$$_OUTTEXTXYZ$LONGINT$LONGINT$ANSISTRING$LONGINT$LONGINT$LONGINT
.Ll90:
# [140] box2(10,118,894,797,178);
	movl	$178,32(%rsp)
	movl	$797,%r9d
	movl	$894,%r8d
	movl	$118,%edx
	movl	$10,%ecx
	call	RETRO_$$_BOX2$LONGINT$LONGINT$LONGINT$LONGINT$LONGINT
.Ll91:
# [141] box2(10,67,894,115,180);
	movl	$180,32(%rsp)
	movl	$115,%r9d
	movl	$894,%r8d
	movl	$67,%edx
	movl	$10,%ecx
	call	RETRO_$$_BOX2$LONGINT$LONGINT$LONGINT$LONGINT$LONGINT
.Ll92:
# [142] outtextxyz(320,75,'File info',188,2,2);
	movl	$2,40(%rsp)
	movl	$2,32(%rsp)
	leaq	_$UMAIN$_Ld5(%rip),%r8
	movl	$188,%r9d
	movl	$75,%edx
	movl	$320,%ecx
	call	RETRO_$$_OUTTEXTXYZ$LONGINT$LONGINT$ANSISTRING$LONGINT$LONGINT$LONGINT
.Ll93:
# [143] box2(897,118,1782,1008,34);
	movl	$34,32(%rsp)
	movl	$1008,%r9d
	movl	$1782,%r8d
	movl	$118,%edx
	movl	$897,%ecx
	call	RETRO_$$_BOX2$LONGINT$LONGINT$LONGINT$LONGINT$LONGINT
.Ll94:
# [144] box2(897,67,1782,115,36);
	movl	$36,32(%rsp)
	movl	$115,%r9d
	movl	$1782,%r8d
	movl	$67,%edx
	movl	$897,%ecx
	call	RETRO_$$_BOX2$LONGINT$LONGINT$LONGINT$LONGINT$LONGINT
.Ll95:
# [145] outtextxyz(1296,75,'Files',47,2,2);
	movl	$2,40(%rsp)
	movl	$2,32(%rsp)
	leaq	_$UMAIN$_Ld6(%rip),%r8
	movl	$47,%r9d
	movl	$75,%edx
	movl	$1296,%ecx
	call	RETRO_$$_OUTTEXTXYZ$LONGINT$LONGINT$ANSISTRING$LONGINT$LONGINT$LONGINT
.Ll96:
# [146] sdl_pauseaudio(1); sleep(1000);
	movl	$1,%ecx
	call	_$dll$sdl2$SDL_PauseAudio
	movl	$1000,%ecx
	call	SYSUTILS_$$_SLEEP$LONGWORD
.Ll97:
# [147] t:=gettime;
	call	RETRO_$$_GETTIME$$INT64
	movq	%rax,%rbx
.Ll98:
# [148] for i:=1 to 1000000 do
	movl	$1,%esi
	subl	$1,%esi
	.balign 8,0x90
.Lj593:
	addl	$1,%esi
.Ll99:
# [149] testvoice.getsample;
	movq	U_$RETRO_$$_TESTVOICE(%rip),%rcx
	call	FMSYNTH$_$TFMVOICE_$__$$_GETSAMPLE$$DOUBLE
.Ll100:
	cmpl	$1000000,%esi
	jl	.Lj593
.Ll101:
# [150] t:=gettime-t;
	call	RETRO_$$_GETTIME$$INT64
	subq	%rbx,%rax
	movq	%rax,%rbx
.Ll102:
# [151] box(100,100,200,100,0);
	movl	$0,32(%rsp)
	movl	$100,%r9d
	movl	$200,%r8d
	movl	$100,%edx
	movl	$100,%ecx
	call	RETRO_$$_BOX$LONGINT$LONGINT$LONGINT$LONGINT$LONGINT
.Ll103:
# [152] outtextxyz(100,100,inttostr(t),44,2,2);
	movl	$2,40(%rsp)
	movl	$2,32(%rsp)
	movq	%rbx,%rdx
	leaq	-8(%rbp),%rcx
	call	SYSUTILS_$$_INTTOSTR$INT64$$ANSISTRING
	movq	-8(%rbp),%r8
	movl	$44,%r9d
	movl	$100,%edx
	movl	$100,%ecx
	call	RETRO_$$_OUTTEXTXYZ$LONGINT$LONGINT$ANSISTRING$LONGINT$LONGINT$LONGINT
.Ll104:
# [153] sdl_pauseaudio(0);
	movl	$0,%ecx
	call	_$dll$sdl2$SDL_PauseAudio
.Lj626:
.Ll105:
	nop
.Lj8:
	movq	%rbp,%rcx
	call	UMAIN$_$MAIN1_$$_fin$0
.Ll106:
# [154] end;
	movq	-40(%rbp),%rbx
	movq	-32(%rbp),%rsi
	leaq	(%rbp),%rsp
	popq	%rbp
	ret
.seh_handler __FPC_specific_handler,@unwind
.seh_handlerdata
	.long	1
	.long	0
	.rva	.Lj7
	.rva	.Lj8
	.rva	UMAIN$_$MAIN1_$$_fin$0

.section .text.n_umain_$$_main1,"x"
.seh_endproc
.Lc7:
.Lt1:
.Ll107:

.section .text.n_umain$_$main2_$$_fin$1,"x"
	.balign 16,0x90
UMAIN$_$MAIN2_$$_fin$1:
.Lc11:
.seh_proc UMAIN$_$MAIN2_$$_fin$1
.Ll108:
# [167] begin
	pushq	%rbp
.seh_pushreg %rbp
.Lc13:
.Lc14:
	movq	%rcx,%rbp
.Lc15:
	leaq	-32(%rsp),%rsp
.seh_stackalloc 32
# Var $parentfp located in register rbp
.seh_endprologue
.Ll109:
	leaq	-136(%rbp),%rcx
	call	fpc_ansistr_decr_ref
	leaq	-88(%rbp),%rcx
	call	fpc_ansistr_decr_ref
	leaq	-40(%rbp),%rax
	movq	%rax,%rcx
	call	fpc_ansistr_decr_ref
	leaq	-48(%rbp),%rcx
	call	fpc_ansistr_decr_ref
	leaq	-56(%rbp),%rcx
	call	fpc_ansistr_decr_ref
	nop
	leaq	32(%rsp),%rsp
	popq	%rbp
	ret
.seh_endproc
.Lc12:
.Lt4:
.Ll110:

.section .text.n_umain_$$_main2,"x"
	.balign 16,0x90
.globl	UMAIN_$$_MAIN2
UMAIN_$$_MAIN2:
.Lc16:
# Temps allocated between rbp-176 and rbp-80
.seh_proc UMAIN_$$_MAIN2
.Ll111:
	pushq	%rbp
.seh_pushreg %rbp
.Lc18:
.Lc19:
	movq	%rsp,%rbp
.Lc20:
	leaq	-256(%rsp),%rsp
.seh_stackalloc 256
# Var ii located in register eax
# Var iii located in register eax
# Var il located in register eax
# Var i located in register ebx
# Var mm located in register rsi
# Var hh located in register rdi
# Var ss located in register rbx
# Var f located in register eax
# Var aa located in register eax
# Var aaa located in register eax
# Var aaaa located in register eax
# Var md located in register eax
	movq	%rbx,-176(%rbp)
	movq	%rdi,-168(%rbp)
	movq	%rsi,-160(%rbp)
.seh_savereg %rbx, 80
.seh_savereg %rdi, 88
.seh_savereg %rsi, 96
.seh_endprologue
# Var buf located at rbp-32, size=OS_NO
# Var mms located at rbp-40, size=OS_64
# Var hhs located at rbp-48, size=OS_64
# Var sss located at rbp-56, size=OS_64
# Var kwas located at rbp-64, size=OS_64
# Var rect located at rbp-80, size=OS_128
.Ll112:
	movq	$0,-40(%rbp)
	movq	$0,-48(%rbp)
	movq	$0,-56(%rbp)
	movq	$0,-136(%rbp)
	movq	$0,-88(%rbp)
.Lj637:
	nop
.Lj633:
.Ll113:
# [170] k:=raml^[$18000];
	movq	U_$RETRO_$$_R1(%rip),%rax
	movl	393216(%rax),%eax
	movl	%eax,U_$UMAIN_$$_K(%rip)
	.balign 8,0x90
.Lj640:
.Ll114:
# [172] until raml^[$18000]>k;
	movq	U_$RETRO_$$_R1(%rip),%rax
	movl	393216(%rax),%eax
	cmpl	U_$UMAIN_$$_K(%rip),%eax
	jng	.Lj640
.Ll115:
# [177] c:=c+1;
	movq	TC_$UMAIN_$$_C(%rip),%rax
	leaq	1(%rax),%rax
	movq	%rax,TC_$UMAIN_$$_C(%rip)
.Ll116:
# [178] if time6502>0 then c6+=1;
	cmpq	$0,U_$RETRO_$$_TIME6502(%rip)
	jng	.Lj646
	movq	TC_$UMAIN_$$_C6(%rip),%rax
	leaq	1(%rax),%rax
	movq	%rax,TC_$UMAIN_$$_C6(%rip)
.Lj646:
.Ll117:
# [179] ss:=(songtime div 1000000) mod 60;
	movq	U_$RETRO_$$_SONGTIME(%rip),%rcx
	movq	$4835703278458516699,%rax
	imulq	%rcx
	sarq	$18,%rdx
	shrq	$63,%rcx
	addq	%rcx,%rdx
	movq	%rdx,%rax
	cqto
	movq	$60,%rcx
	idivq	%rcx
	movq	%rdx,%rbx
.Ll118:
# [180] mm:=(songtime div 60000000) mod 60;
	movq	U_$RETRO_$$_SONGTIME(%rip),%rcx
	movq	$-8130577079664715991,%rax
	imulq	%rcx
	addq	%rcx,%rdx
	sarq	$25,%rdx
	shrq	$63,%rcx
	addq	%rcx,%rdx
	movq	%rdx,%rax
	cqto
	movq	$60,%rcx
	idivq	%rcx
	movq	%rdx,%rsi
.Ll119:
# [181] hh:=(songtime div 3600000000);
	movq	U_$RETRO_$$_SONGTIME(%rip),%rcx
	movq	$-7442832613395060283,%rax
	imulq	%rcx
	addq	%rcx,%rdx
	sarq	$31,%rdx
	shrq	$63,%rcx
	addq	%rcx,%rdx
	movq	%rdx,%rdi
.Ll120:
# [182] sss:=inttostr(ss); if ss<10 then sss:='0'+sss;
	movq	%rbx,%rdx
	leaq	-56(%rbp),%rcx
	call	SYSUTILS_$$_INTTOSTR$INT64$$ANSISTRING
	cmpq	$10,%rbx
	jnl	.Lj660
	movq	-56(%rbp),%r8
	leaq	_$UMAIN$_Ld7(%rip),%rdx
	leaq	-56(%rbp),%rcx
	movl	$0,%r9d
	call	fpc_ansistr_concat
.Lj660:
.Ll121:
# [183] mms:=inttostr(mm); if mm<10 then mms:='0'+mms;
	movq	%rsi,%rdx
	leaq	-40(%rbp),%rcx
	call	SYSUTILS_$$_INTTOSTR$INT64$$ANSISTRING
	cmpq	$10,%rsi
	jnl	.Lj674
	movq	-40(%rbp),%r8
	leaq	_$UMAIN$_Ld7(%rip),%rdx
	leaq	-40(%rbp),%rcx
	movl	$0,%r9d
	call	fpc_ansistr_concat
.Lj674:
.Ll122:
# [184] hhs:=inttostr(hh); if hh<10 then hhs:='0'+hhs;
	movq	%rdi,%rdx
	leaq	-48(%rbp),%rcx
	call	SYSUTILS_$$_INTTOSTR$INT64$$ANSISTRING
	cmpq	$10,%rdi
	jnl	.Lj688
	movq	-48(%rbp),%r8
	leaq	_$UMAIN$_Ld7(%rip),%rdx
	leaq	-48(%rbp),%rcx
	movl	$0,%r9d
	call	fpc_ansistr_concat
.Lj688:
.Ll123:
# [185] songfreq:=1000000 div siddelay;
	movq	$1000000,%rax
	cqto
	idivq	TC_$RETRO_$$_SIDDELAY(%rip)
	movq	%rax,U_$RETRO_$$_SONGFREQ(%rip)
.Ll124:
# [187] box(18,864,512,32,244);
	movl	$244,32(%rsp)
	movl	$32,%r9d
	movl	$512,%r8d
	movl	$864,%edx
	movl	$18,%ecx
	call	RETRO_$$_BOX$LONGINT$LONGINT$LONGINT$LONGINT$LONGINT
.Ll125:
# [188] box(18,960,512,32,244);
	movl	$244,32(%rsp)
	movl	$32,%r9d
	movl	$512,%r8d
	movl	$960,%edx
	movl	$18,%ecx
	call	RETRO_$$_BOX$LONGINT$LONGINT$LONGINT$LONGINT$LONGINT
.Ll126:
# [189] outtextxyz(18,864,songname,250,2,2);
	movl	$2,40(%rsp)
	movl	$2,32(%rsp)
	movq	U_$UMAIN_$$_SONGNAME(%rip),%r8
	movl	$250,%r9d
	movl	$864,%edx
	movl	$18,%ecx
	call	RETRO_$$_OUTTEXTXYZ$LONGINT$LONGINT$ANSISTRING$LONGINT$LONGINT$LONGINT
.Ll127:
# [195] outtextxyz(18,960,hhs+':'+mms+':'+sss,190,4,2);
	leaq	-88(%rbp),%rcx
	call	fpc_ansistr_decr_ref
	movq	-48(%rbp),%rax
	movq	%rax,-128(%rbp)
	leaq	_$UMAIN$_Ld8(%rip),%rax
	movq	%rax,-120(%rbp)
	movq	-40(%rbp),%rax
	movq	%rax,-112(%rbp)
	leaq	_$UMAIN$_Ld8(%rip),%rax
	movq	%rax,-104(%rbp)
	movq	-56(%rbp),%rax
	movq	%rax,-96(%rbp)
	leaq	-128(%rbp),%rdx
	leaq	-88(%rbp),%rcx
	movl	$0,%r9d
	movq	$4,%r8
	call	fpc_ansistr_concat_multi
	movq	-88(%rbp),%r8
	movl	$2,40(%rsp)
	movl	$4,32(%rsp)
	movl	$190,%r9d
	movl	$960,%edx
	movl	$18,%ecx
	call	RETRO_$$_OUTTEXTXYZ$LONGINT$LONGINT$ANSISTRING$LONGINT$LONGINT$LONGINT
.Ll128:
# [196] avsid+=sidtime;
	movq	TC_$UMAIN_$$_AVSID(%rip),%rdx
	movq	U_$RETRO_$$_SIDTIME(%rip),%rax
	leaq	(%rdx,%rax),%rax
	movq	%rax,TC_$UMAIN_$$_AVSID(%rip)
.Ll129:
# [197] avsct:=avsct+tim;
	movq	TC_$UMAIN_$$_AVSCT(%rip),%rax
	movq	U_$RETRO_$$_TIM(%rip),%rdx
	leaq	(%rax,%rdx),%rax
	movq	%rax,TC_$UMAIN_$$_AVSCT(%rip)
.Ll130:
# [198] avspt:=avspt+ts;
	movq	TC_$UMAIN_$$_AVSPT(%rip),%rax
	movq	U_$RETRO_$$_TS(%rip),%rdx
	leaq	(%rax,%rdx),%rax
	movq	%rax,TC_$UMAIN_$$_AVSPT(%rip)
.Ll131:
# [199] avall:=avall+t3;
	movq	TC_$UMAIN_$$_AVALL(%rip),%rax
	movq	U_$RETRO_$$_T3(%rip),%rdx
	leaq	(%rax,%rdx),%rax
	movq	%rax,TC_$UMAIN_$$_AVALL(%rip)
.Ll132:
# [200] av6502:=av6502+time6502;
	movq	TC_$UMAIN_$$_AV6502(%rip),%rax
	movq	U_$RETRO_$$_TIME6502(%rip),%rdx
	leaq	(%rax,%rdx),%rax
	movq	%rax,TC_$UMAIN_$$_AV6502(%rip)
.Ll133:
# [201] box2(10,1062,1782,1110,118);
	movl	$118,32(%rsp)
	movl	$1110,%r9d
	movl	$1782,%r8d
	movl	$1062,%edx
	movl	$10,%ecx
	call	RETRO_$$_BOX2$LONGINT$LONGINT$LONGINT$LONGINT$LONGINT
.Ll134:
# [202] outtextxyz(32,1070,'Avg screen time: '+inttostr(round(avsct/c))+' us',76,2,2);
	leaq	-88(%rbp),%rcx
	call	fpc_ansistr_decr_ref
	leaq	_$UMAIN$_Ld9(%rip),%rax
	movq	%rax,-112(%rbp)
	cvtsi2sdq	TC_$UMAIN_$$_AVSCT(%rip),%xmm0
	cvtsi2sdq	TC_$UMAIN_$$_C(%rip),%xmm1
	divsd	%xmm1,%xmm0
	cvtsd2siq	%xmm0,%rdx
	leaq	-136(%rbp),%rcx
	call	SYSUTILS_$$_INTTOSTR$INT64$$ANSISTRING
	movq	-136(%rbp),%rax
	movq	%rax,-104(%rbp)
	leaq	_$UMAIN$_Ld10(%rip),%rax
	movq	%rax,-96(%rbp)
	leaq	-112(%rbp),%rdx
	leaq	-88(%rbp),%rcx
	movl	$0,%r9d
	movq	$2,%r8
	call	fpc_ansistr_concat_multi
	movq	-88(%rbp),%r8
	movl	$2,40(%rsp)
	movl	$2,32(%rsp)
	movl	$76,%r9d
	movl	$1070,%edx
	movl	$32,%ecx
	call	RETRO_$$_OUTTEXTXYZ$LONGINT$LONGINT$ANSISTRING$LONGINT$LONGINT$LONGINT
.Ll135:
# [203] outtextxyz(438,1070,'Avg sprite time: '+inttostr(round(avspt/c))+' us',186,2,2);
	leaq	-88(%rbp),%rcx
	call	fpc_ansistr_decr_ref
	leaq	_$UMAIN$_Ld11(%rip),%rax
	movq	%rax,-112(%rbp)
	cvtsi2sdq	TC_$UMAIN_$$_AVSPT(%rip),%xmm0
	cvtsi2sdq	TC_$UMAIN_$$_C(%rip),%xmm1
	divsd	%xmm1,%xmm0
	cvtsd2siq	%xmm0,%rdx
	leaq	-136(%rbp),%rcx
	call	SYSUTILS_$$_INTTOSTR$INT64$$ANSISTRING
	movq	-136(%rbp),%rax
	movq	%rax,-104(%rbp)
	leaq	_$UMAIN$_Ld10(%rip),%rax
	movq	%rax,-96(%rbp)
	leaq	-112(%rbp),%rdx
	leaq	-88(%rbp),%rcx
	movl	$0,%r9d
	movq	$2,%r8
	call	fpc_ansistr_concat_multi
	movq	-88(%rbp),%r8
	movl	$2,40(%rsp)
	movl	$2,32(%rsp)
	movl	$186,%r9d
	movl	$1070,%edx
	movl	$438,%ecx
	call	RETRO_$$_OUTTEXTXYZ$LONGINT$LONGINT$ANSISTRING$LONGINT$LONGINT$LONGINT
.Ll136:
# [204] outtextxyz(828,1070,'Avg SID time: '+inttostr(round(avsid/c))+' us',233,2,2);
	leaq	-88(%rbp),%rcx
	call	fpc_ansistr_decr_ref
	leaq	_$UMAIN$_Ld12(%rip),%rax
	movq	%rax,-112(%rbp)
	cvtsi2sdq	TC_$UMAIN_$$_AVSID(%rip),%xmm0
	cvtsi2sdq	TC_$UMAIN_$$_C(%rip),%xmm1
	divsd	%xmm1,%xmm0
	cvtsd2siq	%xmm0,%rdx
	leaq	-136(%rbp),%rcx
	call	SYSUTILS_$$_INTTOSTR$INT64$$ANSISTRING
	movq	-136(%rbp),%rax
	movq	%rax,-104(%rbp)
	leaq	_$UMAIN$_Ld10(%rip),%rax
	movq	%rax,-96(%rbp)
	leaq	-112(%rbp),%rdx
	leaq	-88(%rbp),%rcx
	movl	$0,%r9d
	movq	$2,%r8
	call	fpc_ansistr_concat_multi
	movq	-88(%rbp),%r8
	movl	$2,40(%rsp)
	movl	$2,32(%rsp)
	movl	$233,%r9d
	movl	$1070,%edx
	movl	$828,%ecx
	call	RETRO_$$_OUTTEXTXYZ$LONGINT$LONGINT$ANSISTRING$LONGINT$LONGINT$LONGINT
.Ll137:
# [205] outtextxyz(1190,1070,'6502 time: '+floattostrf((time6502/16),fffixed,4,1)+' us',124,2,2);
	leaq	-88(%rbp),%rcx
	call	fpc_ansistr_decr_ref
	leaq	_$UMAIN$_Ld13(%rip),%rax
	movq	%rax,-112(%rbp)
	movl	$1,32(%rsp)
	cvtsi2sdq	U_$RETRO_$$_TIME6502(%rip),%xmm1
	mulsd	_$UMAIN$_Ld14(%rip),%xmm1
	leaq	-136(%rbp),%rcx
	movl	$4,%r9d
	movl	$2,%r8d
	call	SYSUTILS_$$_FLOATTOSTRF$DOUBLE$TFLOATFORMAT$LONGINT$LONGINT$$ANSISTRING
	movq	-136(%rbp),%rax
	movq	%rax,-104(%rbp)
	leaq	_$UMAIN$_Ld10(%rip),%rax
	movq	%rax,-96(%rbp)
	leaq	-112(%rbp),%rdx
	leaq	-88(%rbp),%rcx
	movl	$0,%r9d
	movq	$2,%r8
	call	fpc_ansistr_concat_multi
	movq	-88(%rbp),%r8
	movl	$2,40(%rsp)
	movl	$2,32(%rsp)
	movl	$124,%r9d
	movl	$1070,%edx
	movl	$1190,%ecx
	call	RETRO_$$_OUTTEXTXYZ$LONGINT$LONGINT$ANSISTRING$LONGINT$LONGINT$LONGINT
.Ll138:
# [206] if peek($70003)=1 then outtextxyz(1500,1070,inttostr(peek($d404)shr 4),108,2,2);
	movl	$458755,%ecx
	call	RETRO_$$_PEEK$LONGINT$$BYTE
	cmpb	$1,%al
	jne	.Lj874
	movl	$2,40(%rsp)
	movl	$2,32(%rsp)
	movl	$54276,%ecx
	call	RETRO_$$_PEEK$LONGINT$$BYTE
	movb	%al,%dl
# PeepHole Optimization,var9
	andl	$255,%edx
	shrl	$4,%edx
	andl	$4294967295,%edx
	leaq	-88(%rbp),%rcx
	call	SYSUTILS_$$_INTTOSTR$QWORD$$ANSISTRING
	movq	-88(%rbp),%r8
	movl	$108,%r9d
	movl	$1070,%edx
	movl	$1500,%ecx
	call	RETRO_$$_OUTTEXTXYZ$LONGINT$LONGINT$ANSISTRING$LONGINT$LONGINT$LONGINT
.Lj874:
.Ll139:
# [207] if peek($70004)=1 then outtextxyz(1540,1070,inttostr(peek($d40b)shr 4),200,2,2);
	movl	$458756,%ecx
	call	RETRO_$$_PEEK$LONGINT$$BYTE
	cmpb	$1,%al
	jne	.Lj896
	movl	$2,40(%rsp)
	movl	$2,32(%rsp)
	movl	$54283,%ecx
	call	RETRO_$$_PEEK$LONGINT$$BYTE
	movb	%al,%dl
# PeepHole Optimization,var9
	andl	$255,%edx
	shrl	$4,%edx
	andl	$4294967295,%edx
	leaq	-88(%rbp),%rcx
	call	SYSUTILS_$$_INTTOSTR$QWORD$$ANSISTRING
	movq	-88(%rbp),%r8
	movl	$200,%r9d
	movl	$1070,%edx
	movl	$1540,%ecx
	call	RETRO_$$_OUTTEXTXYZ$LONGINT$LONGINT$ANSISTRING$LONGINT$LONGINT$LONGINT
.Lj896:
.Ll140:
# [208] if peek($70005)=1 then outtextxyz(1580,1070,inttostr(peek($d412)shr 4),40,2,2);
	movl	$458757,%ecx
	call	RETRO_$$_PEEK$LONGINT$$BYTE
	cmpb	$1,%al
	jne	.Lj918
	movl	$2,40(%rsp)
	movl	$2,32(%rsp)
	movl	$54290,%ecx
	call	RETRO_$$_PEEK$LONGINT$$BYTE
	movb	%al,%dl
# PeepHole Optimization,var9
	andl	$255,%edx
	shrl	$4,%edx
	andl	$4294967295,%edx
	leaq	-88(%rbp),%rcx
	call	SYSUTILS_$$_INTTOSTR$QWORD$$ANSISTRING
	movq	-88(%rbp),%r8
	movl	$40,%r9d
	movl	$1070,%edx
	movl	$1580,%ecx
	call	RETRO_$$_OUTTEXTXYZ$LONGINT$LONGINT$ANSISTRING$LONGINT$LONGINT$LONGINT
.Lj918:
.Ll141:
# [209] outtextxyz(1650,1070,inttostr(dpeek($60028)),44,2,2);
	movl	$2,40(%rsp)
	movl	$2,32(%rsp)
	movl	$393256,%ecx
	call	RETRO_$$_DPEEK$LONGINT$$WORD
	movw	%ax,%dx
# PeepHole Optimization,var11
	andl	$65535,%edx
	leaq	-88(%rbp),%rcx
	call	SYSUTILS_$$_INTTOSTR$LONGINT$$ANSISTRING
	movq	-88(%rbp),%r8
	movl	$44,%r9d
	movl	$1070,%edx
	movl	$1650,%ecx
	call	RETRO_$$_OUTTEXTXYZ$LONGINT$LONGINT$ANSISTRING$LONGINT$LONGINT$LONGINT
.Ll142:
# [211] for i:=16 to 39 do lpoke($10000+1024+4*i,lpeek($10000+2048+4*((c div 2) mod 256)+4*i));
	movl	$16,%ebx
	subl	$1,%ebx
	.balign 8,0x90
.Lj959:
	addl	$1,%ebx
	movq	TC_$UMAIN_$$_C(%rip),%rax
	movq	%rax,%rdx
	sarq	$63,%rdx
	andq	$1,%rdx
	addq	%rdx,%rax
	sarq	$1,%rax
	cqto
	movq	$256,%rcx
	idivq	%rcx
	shlq	$2,%rdx
	leaq	67584(%rdx),%rdx
	movslq	%ebx,%rax
	shlq	$2,%rax
	leaq	(%rdx,%rax),%rcx
	call	RETRO_$$_LPEEK$LONGINT$$LONGWORD
	movl	%eax,%edx
	movl	%ebx,%eax
	shll	$2,%eax
	leal	66560(%eax),%ecx
	call	RETRO_$$_LPOKE$LONGINT$LONGWORD
	cmpl	$39,%ebx
	jl	.Lj959
.Ll143:
# [212] if (c mod 64)=0 then lpoke($10000+1024+4*135,lpeek($10000+2048+(4*(c div 64) mod 256)))   ;
	movq	TC_$UMAIN_$$_C(%rip),%rax
	cqto
	movq	$64,%rcx
	idivq	%rcx
	testq	%rdx,%rdx
	jne	.Lj967
	movq	TC_$UMAIN_$$_C(%rip),%rax
	movq	%rax,%rdx
	sarq	$63,%rdx
	andq	$63,%rdx
	addq	%rdx,%rax
	sarq	$6,%rax
	shlq	$2,%rax
	cqto
	movq	$256,%rcx
	idivq	%rcx
	leaq	67584(%rdx),%rcx
	call	RETRO_$$_LPEEK$LONGINT$$LONGWORD
	movl	%eax,%edx
	movl	$67100,%ecx
	call	RETRO_$$_LPOKE$LONGINT$LONGWORD
.Lj967:
.Ll144:
# [213] blit($F800000,10+(c mod 1772),1011,$F000000,12,1011,1771-(c mod 1772),48,1792,1792);
	movl	$1792,72(%rsp)
	movl	$1792,64(%rsp)
	movl	$48,56(%rsp)
	movl	$1011,40(%rsp)
	movl	$12,32(%rsp)
	movq	TC_$UMAIN_$$_C(%rip),%rax
	cqto
	movq	$1772,%rcx
	idivq	%rcx
	movq	$1771,%rax
	subq	%rdx,%rax
	movl	%eax,48(%rsp)
	movq	TC_$UMAIN_$$_C(%rip),%rax
	cqto
	movq	$1772,%rcx
	idivq	%rcx
	leaq	10(%rdx),%rdx
	movl	$251658240,%r9d
	movl	$1011,%r8d
	movl	$260046848,%ecx
	call	RETRO_$$_BLIT$crc5A667533
.Ll145:
# [214] blit($F800000,10,1011,$F000000,11+1771-(c mod 1772),1011,(c mod 1772),48,1792,1792);
	movl	$1792,72(%rsp)
	movl	$1792,64(%rsp)
	movl	$48,56(%rsp)
	movl	$1011,40(%rsp)
	movq	TC_$UMAIN_$$_C(%rip),%rax
	cqto
	movq	$1772,%rcx
	idivq	%rcx
	movl	%edx,48(%rsp)
	movq	TC_$UMAIN_$$_C(%rip),%rax
	cqto
	movq	$1772,%rcx
	idivq	%rcx
	movq	$1782,%rax
	subq	%rdx,%rax
	movl	%eax,32(%rsp)
	movl	$251658240,%r9d
	movl	$1011,%r8d
	movl	$10,%edx
	movl	$260046848,%ecx
	call	RETRO_$$_BLIT$crc5A667533
.Ll146:
# [215] box2(10,610,894,797,178);
	movl	$178,32(%rsp)
	movl	$797,%r9d
	movl	$894,%r8d
	movl	$610,%edx
	movl	$10,%ecx
	call	RETRO_$$_BOX2$LONGINT$LONGINT$LONGINT$LONGINT$LONGINT
.Ll147:
# [216] box2(10,700,890,701,40);
	movl	$40,32(%rsp)
	movl	$701,%r9d
	movl	$890,%r8d
	movl	$700,%edx
	movl	$10,%ecx
	call	RETRO_$$_BOX2$LONGINT$LONGINT$LONGINT$LONGINT$LONGINT
.Ll148:
# [217] box2(10,764,890,765,40);
	movl	$40,32(%rsp)
	movl	$765,%r9d
	movl	$890,%r8d
	movl	$764,%edx
	movl	$10,%ecx
	call	RETRO_$$_BOX2$LONGINT$LONGINT$LONGINT$LONGINT$LONGINT
.Ll149:
# [218] box2(10,636,890,637,40);
	movl	$40,32(%rsp)
	movl	$637,%r9d
	movl	$890,%r8d
	movl	$636,%edx
	movl	$10,%ecx
	call	RETRO_$$_BOX2$LONGINT$LONGINT$LONGINT$LONGINT$LONGINT
.Ll150:
# [219] for j:=20 to 840 do if abs(scope[j])<46000 then box(20+j,700-scope[j] div 512,2,2,190);
	movl	$20,U_$UMAIN_$$_J(%rip)
	subl	$1,U_$UMAIN_$$_J(%rip)
	.balign 8,0x90
.Lj1056:
	addl	$1,U_$UMAIN_$$_J(%rip)
	movl	U_$UMAIN_$$_J(%rip),%edx
	leaq	U_$RETRO_$$_SCOPE(%rip),%rax
	movl	(%rax,%rdx,4),%edx
	movl	%edx,%eax
	negl	%eax
	cmovnsl	%eax,%edx
	cmpl	$46000,%edx
	jnl	.Lj1058
	movl	$190,32(%rsp)
	movl	U_$UMAIN_$$_J(%rip),%edx
	leaq	U_$RETRO_$$_SCOPE(%rip),%rax
	movslq	(%rax,%rdx,4),%rax
	movq	%rax,%rdx
	sarq	$63,%rdx
	andq	$511,%rdx
	addq	%rdx,%rax
	sarq	$9,%rax
	movq	$700,%rdx
	subq	%rax,%rdx
	movl	U_$UMAIN_$$_J(%rip),%eax
	leal	20(%eax),%ecx
	movl	$2,%r9d
	movl	$2,%r8d
	call	RETRO_$$_BOX$LONGINT$LONGINT$LONGINT$LONGINT$LONGINT
.Lj1058:
	cmpl	$840,U_$UMAIN_$$_J(%rip)
	jl	.Lj1056
.Ll151:
# [222] sprx:=round(dpeek($d400)/40+74);
	movl	$54272,%ecx
	call	RETRO_$$_DPEEK$LONGINT$$WORD
# PeepHole Optimization,var11
	andl	$65535,%eax
	cvtsi2sd	%eax,%xmm0
	mulsd	_$UMAIN$_Ld15(%rip),%xmm0
	addsd	_$UMAIN$_Ld16(%rip),%xmm0
	cvtsd2siq	%xmm0,%rax
	movl	%eax,U_$UMAIN_$$_SPRX(%rip)
.Ll152:
# [223] spry:=920-3*(peek($d406) and $F0);
	movl	$54278,%ecx
	call	RETRO_$$_PEEK$LONGINT$$BYTE
# PeepHole Optimization,var1
# PeepHole Optimization,var9
	andl	$240,%eax
	leal	(%eax,%eax,2),%edx
	movl	$920,%eax
	subl	%edx,%eax
# PeepHole Optimization,MovMov2Mov1
	movl	%eax,U_$UMAIN_$$_SPRY(%rip)
.Ll153:
# [224] raml^[$18010]:=(spry shl 16)+sprx+2048*(1-peek($70003));
	shll	$16,%eax
	movl	U_$UMAIN_$$_SPRX(%rip),%edx
	leal	(%eax,%edx),%ebx
	movl	$458755,%ecx
	call	RETRO_$$_PEEK$LONGINT$$BYTE
# PeepHole Optimization,var9
	andl	$255,%eax
	movl	$1,%edx
	subl	%eax,%edx
	shll	$11,%edx
	leal	(%ebx,%edx),%eax
	movq	U_$RETRO_$$_R1(%rip),%rdx
	movl	%eax,393280(%rdx)
.Ll154:
# [226] spr2x:=round(dpeek($d407)/40+74);
	movl	$54279,%ecx
	call	RETRO_$$_DPEEK$LONGINT$$WORD
# PeepHole Optimization,var11
	andl	$65535,%eax
	cvtsi2sd	%eax,%xmm0
	mulsd	_$UMAIN$_Ld15(%rip),%xmm0
	addsd	_$UMAIN$_Ld16(%rip),%xmm0
	cvtsd2siq	%xmm0,%rax
	movl	%eax,U_$UMAIN_$$_SPR2X(%rip)
.Ll155:
# [227] spr2y:=920-3*(peek($d40d) and $F0);
	movl	$54285,%ecx
	call	RETRO_$$_PEEK$LONGINT$$BYTE
# PeepHole Optimization,var1
# PeepHole Optimization,var9
	andl	$240,%eax
	leal	(%eax,%eax,2),%edx
	movl	$920,%eax
	subl	%edx,%eax
# PeepHole Optimization,MovMov2Mov1
	movl	%eax,U_$UMAIN_$$_SPR2Y(%rip)
.Ll156:
# [229] raml^[$18012]:=(spr2y shl 16)+spr2x+2048*(1-peek($70004));
	shll	$16,%eax
	movl	U_$UMAIN_$$_SPR2X(%rip),%edx
	leal	(%eax,%edx),%ebx
	movl	$458756,%ecx
	call	RETRO_$$_PEEK$LONGINT$$BYTE
# PeepHole Optimization,var9
	andl	$255,%eax
	movl	$1,%edx
	subl	%eax,%edx
	shll	$11,%edx
	leal	(%ebx,%edx),%eax
	movq	U_$RETRO_$$_R1(%rip),%rdx
	movl	%eax,393288(%rdx)
.Ll157:
# [231] spr3x:=round(dpeek($d40e)/40+74);
	movl	$54286,%ecx
	call	RETRO_$$_DPEEK$LONGINT$$WORD
# PeepHole Optimization,var11
	andl	$65535,%eax
	cvtsi2sd	%eax,%xmm0
	mulsd	_$UMAIN$_Ld15(%rip),%xmm0
	addsd	_$UMAIN$_Ld16(%rip),%xmm0
	cvtsd2siq	%xmm0,%rax
	movl	%eax,U_$UMAIN_$$_SPR3X(%rip)
.Ll158:
# [232] spr3y:=920-3*(peek($d414) and $F0);
	movl	$54292,%ecx
	call	RETRO_$$_PEEK$LONGINT$$BYTE
# PeepHole Optimization,var1
# PeepHole Optimization,var9
	andl	$240,%eax
	leal	(%eax,%eax,2),%edx
	movl	$920,%eax
	subl	%edx,%eax
# PeepHole Optimization,MovMov2Mov1
	movl	%eax,U_$UMAIN_$$_SPR3Y(%rip)
.Ll159:
# [234] raml^[$18014]:=(spr3y shl 16)+spr3x+2048*(1-peek($70005));
	shll	$16,%eax
	movl	U_$UMAIN_$$_SPR3X(%rip),%edx
	leal	(%eax,%edx),%ebx
	movl	$458757,%ecx
	call	RETRO_$$_PEEK$LONGINT$$BYTE
# PeepHole Optimization,var9
	andl	$255,%eax
	movl	$1,%edx
	subl	%eax,%edx
	shll	$11,%edx
	leal	(%ebx,%edx),%eax
	movq	U_$RETRO_$$_R1(%rip),%rdx
	movl	%eax,393296(%rdx)
.Ll160:
# [236] raml^[$1801e]:=raml^[$1800B];
	movq	U_$RETRO_$$_R1(%rip),%rdx
	movq	U_$RETRO_$$_R1(%rip),%rax
	movl	393260(%rax),%eax
	movl	%eax,393336(%rdx)
.Ll161:
# [237] box(0,0,300,100,0); outtextxyz(0,0,floattostr(ftt),15,2,2) ;
	movl	$0,32(%rsp)
	movl	$100,%r9d
	movl	$300,%r8d
	movl	$0,%edx
	movl	$0,%ecx
	call	RETRO_$$_BOX$LONGINT$LONGINT$LONGINT$LONGINT$LONGINT
	movl	$2,40(%rsp)
	movl	$2,32(%rsp)
	movq	U_$RETRO_$$_FTT(%rip),%rdx
	leaq	-88(%rbp),%rcx
	call	SYSUTILS_$$_FLOATTOSTR$INT64$$ANSISTRING
	movq	-88(%rbp),%r8
	movl	$15,%r9d
	movl	$0,%edx
	movl	$0,%ecx
	call	RETRO_$$_OUTTEXTXYZ$LONGINT$LONGINT$ANSISTRING$LONGINT$LONGINT$LONGINT
.Ll162:
# [238] box(500,500,300,100,0); outtextxyz(500,500,floattostr(testoperator.adsrstate),15,2,2);        outtextxyz(500,532,floattostr(testoperator.adsrval),15,2,2);
	movl	$0,32(%rsp)
	movl	$100,%r9d
	movl	$300,%r8d
	movl	$500,%edx
	movl	$500,%ecx
	call	RETRO_$$_BOX$LONGINT$LONGINT$LONGINT$LONGINT$LONGINT
	movl	$2,40(%rsp)
	movl	$2,32(%rsp)
	movq	U_$RETRO_$$_TESTOPERATOR(%rip),%rax
	movslq	296(%rax),%rdx
	leaq	-88(%rbp),%rcx
	call	SYSUTILS_$$_FLOATTOSTR$INT64$$ANSISTRING
	movq	-88(%rbp),%r8
	movl	$15,%r9d
	movl	$500,%edx
	movl	$500,%ecx
	call	RETRO_$$_OUTTEXTXYZ$LONGINT$LONGINT$ANSISTRING$LONGINT$LONGINT$LONGINT
	movl	$2,40(%rsp)
	movl	$2,32(%rsp)
	movq	U_$RETRO_$$_TESTOPERATOR(%rip),%rax
	movsd	168(%rax),%xmm1
	leaq	-88(%rbp),%rcx
	call	SYSUTILS_$$_FLOATTOSTR$DOUBLE$$ANSISTRING
	movq	-88(%rbp),%r8
	movl	$15,%r9d
	movl	$532,%edx
	movl	$500,%ecx
	call	RETRO_$$_OUTTEXTXYZ$LONGINT$LONGINT$ANSISTRING$LONGINT$LONGINT$LONGINT
.Lj1175:
.Ll163:
	nop
.Lj634:
	movq	%rbp,%rcx
	call	UMAIN$_$MAIN2_$$_fin$1
.Ll164:
# [240] end;
	movq	-176(%rbp),%rbx
	movq	-168(%rbp),%rdi
	movq	-160(%rbp),%rsi
	leaq	(%rbp),%rsp
	popq	%rbp
	ret
.seh_handler __FPC_specific_handler,@unwind
.seh_handlerdata
	.long	1
	.long	0
	.rva	.Lj633
	.rva	.Lj634
	.rva	UMAIN$_$MAIN2_$$_fin$1

.section .text.n_umain_$$_main2,"x"
.seh_endproc
.Lc17:
.Lt3:
.Ll165:

.section .text.n_umain_$$_init_implicit$,"x"
	.balign 16,0x90
.globl	INIT$_$UMAIN
INIT$_$UMAIN:
.globl	UMAIN_$$_init_implicit$
UMAIN_$$_init_implicit$:
.Lc21:
.seh_proc UMAIN_$$_init_implicit$
	leaq	-40(%rsp),%rsp
.Lc23:
.seh_stackalloc 40
.seh_endprologue
	nop
	leaq	40(%rsp),%rsp
	ret
.seh_endproc
.Lc22:
.Lt5:
.Ll166:

.section .text.n_umain_$$_finalize_implicit$,"x"
	.balign 16,0x90
.globl	FINALIZE$_$UMAIN
FINALIZE$_$UMAIN:
.globl	UMAIN_$$_finalize_implicit$
UMAIN_$$_finalize_implicit$:
.Lc24:
.seh_proc UMAIN_$$_finalize_implicit$
	leaq	-40(%rsp),%rsp
.Lc26:
.seh_stackalloc 40
.seh_endprologue
	leaq	U_$UMAIN_$$_SONGNAME(%rip),%rax
	movq	%rax,%rcx
	call	fpc_ansistr_decr_ref
	nop
	leaq	40(%rsp),%rsp
	ret
.seh_endproc
.Lc25:
.Lt6:
.Ll167:
# End asmlist al_procedures
# Begin asmlist al_globals

.section .bss
	.balign 4
# [umain.pas]
# [10] test:integer ;
	.globl U_$UMAIN_$$_TEST
U_$UMAIN_$$_TEST:
	.zero 4

.section .bss
	.balign 4
# [11] iii, i,j,k,l,fh2,lines:integer;
	.globl U_$UMAIN_$$_III
U_$UMAIN_$$_III:
	.zero 4

.section .bss
	.balign 4
	.globl U_$UMAIN_$$_I
U_$UMAIN_$$_I:
	.zero 4

.section .bss
	.balign 4
	.globl U_$UMAIN_$$_J
U_$UMAIN_$$_J:
	.zero 4

.section .bss
	.balign 4
	.globl U_$UMAIN_$$_K
U_$UMAIN_$$_K:
	.zero 4

.section .bss
	.balign 4
	.globl U_$UMAIN_$$_L
U_$UMAIN_$$_L:
	.zero 4

.section .bss
	.balign 4
	.globl U_$UMAIN_$$_FH2
U_$UMAIN_$$_FH2:
	.zero 4

.section .bss
	.balign 4
	.globl U_$UMAIN_$$_LINES
U_$UMAIN_$$_LINES:
	.zero 4

.section .bss
	.balign 8
# [13] event:tsdl_event;
	.globl U_$UMAIN_$$_EVENT
U_$UMAIN_$$_EVENT:
	.zero 56

.section .bss
	.balign 8
# [15] songname:string;
	.globl U_$UMAIN_$$_SONGNAME
U_$UMAIN_$$_SONGNAME:
	.zero 8

.section .bss
	.balign 8
# [16] q1,q2,q3:extended;
	.globl U_$UMAIN_$$_Q1
U_$UMAIN_$$_Q1:
	.zero 8

.section .bss
	.balign 8
	.globl U_$UMAIN_$$_Q2
U_$UMAIN_$$_Q2:
	.zero 8

.section .bss
	.balign 8
	.globl U_$UMAIN_$$_Q3
U_$UMAIN_$$_Q3:
	.zero 8

.section .bss
	.balign 8
# [17] thread:TRetro;
	.globl U_$UMAIN_$$_THREAD
U_$UMAIN_$$_THREAD:
	.zero 8

.section .bss
	.balign 4
# [19] sprx,sprxd,spryd,spry:integer;
	.globl U_$UMAIN_$$_SPRX
U_$UMAIN_$$_SPRX:
	.zero 4

.section .bss
	.balign 4
	.globl U_$UMAIN_$$_SPRXD
U_$UMAIN_$$_SPRXD:
	.zero 4

.section .bss
	.balign 4
	.globl U_$UMAIN_$$_SPRYD
U_$UMAIN_$$_SPRYD:
	.zero 4

.section .bss
	.balign 4
	.globl U_$UMAIN_$$_SPRY
U_$UMAIN_$$_SPRY:
	.zero 4

.section .bss
	.balign 4
# [20] spr2x,spr2xd,spr2yd,spr2y:integer;
	.globl U_$UMAIN_$$_SPR2X
U_$UMAIN_$$_SPR2X:
	.zero 4

.section .bss
	.balign 4
	.globl U_$UMAIN_$$_SPR2XD
U_$UMAIN_$$_SPR2XD:
	.zero 4

.section .bss
	.balign 4
	.globl U_$UMAIN_$$_SPR2YD
U_$UMAIN_$$_SPR2YD:
	.zero 4

.section .bss
	.balign 4
	.globl U_$UMAIN_$$_SPR2Y
U_$UMAIN_$$_SPR2Y:
	.zero 4

.section .bss
	.balign 4
# [21] spr3x,spr3xd,spr3yd,spr3y:integer;
	.globl U_$UMAIN_$$_SPR3X
U_$UMAIN_$$_SPR3X:
	.zero 4

.section .bss
	.balign 4
	.globl U_$UMAIN_$$_SPR3XD
U_$UMAIN_$$_SPR3XD:
	.zero 4

.section .bss
	.balign 4
	.globl U_$UMAIN_$$_SPR3YD
U_$UMAIN_$$_SPR3YD:
	.zero 4

.section .bss
	.balign 4
	.globl U_$UMAIN_$$_SPR3Y
U_$UMAIN_$$_SPR3Y:
	.zero 4

.section .bss
	.balign 4
# [22] spr4x,spr4xd,spr4yd,spr4y:integer;
	.globl U_$UMAIN_$$_SPR4X
U_$UMAIN_$$_SPR4X:
	.zero 4

.section .bss
	.balign 4
	.globl U_$UMAIN_$$_SPR4XD
U_$UMAIN_$$_SPR4XD:
	.zero 4

.section .bss
	.balign 4
	.globl U_$UMAIN_$$_SPR4YD
U_$UMAIN_$$_SPR4YD:
	.zero 4

.section .bss
	.balign 4
	.globl U_$UMAIN_$$_SPR4Y
U_$UMAIN_$$_SPR4Y:
	.zero 4

.section .bss
	.balign 4
# [23] spr5x,spr5xd,spr5yd,spr5y:integer;
	.globl U_$UMAIN_$$_SPR5X
U_$UMAIN_$$_SPR5X:
	.zero 4

.section .bss
	.balign 4
	.globl U_$UMAIN_$$_SPR5XD
U_$UMAIN_$$_SPR5XD:
	.zero 4

.section .bss
	.balign 4
	.globl U_$UMAIN_$$_SPR5YD
U_$UMAIN_$$_SPR5YD:
	.zero 4

.section .bss
	.balign 4
	.globl U_$UMAIN_$$_SPR5Y
U_$UMAIN_$$_SPR5Y:
	.zero 4

.section .bss
	.balign 4
# [24] spr6x,spr6xd,spr6yd,spr6y:integer;
	.globl U_$UMAIN_$$_SPR6X
U_$UMAIN_$$_SPR6X:
	.zero 4

.section .bss
	.balign 4
	.globl U_$UMAIN_$$_SPR6XD
U_$UMAIN_$$_SPR6XD:
	.zero 4

.section .bss
	.balign 4
	.globl U_$UMAIN_$$_SPR6YD
U_$UMAIN_$$_SPR6YD:
	.zero 4

.section .bss
	.balign 4
	.globl U_$UMAIN_$$_SPR6Y
U_$UMAIN_$$_SPR6Y:
	.zero 4

.section .bss
	.balign 4
# [25] spr7x,spr7xd,spr7yd,spr7y:integer;
	.globl U_$UMAIN_$$_SPR7X
U_$UMAIN_$$_SPR7X:
	.zero 4

.section .bss
	.balign 4
	.globl U_$UMAIN_$$_SPR7XD
U_$UMAIN_$$_SPR7XD:
	.zero 4

.section .bss
	.balign 4
	.globl U_$UMAIN_$$_SPR7YD
U_$UMAIN_$$_SPR7YD:
	.zero 4

.section .bss
	.balign 4
	.globl U_$UMAIN_$$_SPR7Y
U_$UMAIN_$$_SPR7Y:
	.zero 4

.section .bss
	.balign 4
# [26] spr8x,spr8xd,spr8yd,spr8y:integer;
	.globl U_$UMAIN_$$_SPR8X
U_$UMAIN_$$_SPR8X:
	.zero 4

.section .bss
	.balign 4
	.globl U_$UMAIN_$$_SPR8XD
U_$UMAIN_$$_SPR8XD:
	.zero 4

.section .bss
	.balign 4
	.globl U_$UMAIN_$$_SPR8YD
U_$UMAIN_$$_SPR8YD:
	.zero 4

.section .bss
	.balign 4
	.globl U_$UMAIN_$$_SPR8Y
U_$UMAIN_$$_SPR8Y:
	.zero 4

.section .bss
	.balign 8
# [35] ttttt,ttt:int64;
	.globl U_$UMAIN_$$_TTTTT
U_$UMAIN_$$_TTTTT:
	.zero 8

.section .bss
	.balign 8
	.globl U_$UMAIN_$$_TTT
U_$UMAIN_$$_TTT:
	.zero 8

.section .bss
	.balign 4
# [36] qq:integer;
	.globl U_$UMAIN_$$_QQ
U_$UMAIN_$$_QQ:
	.zero 4
# End asmlist al_globals
# Begin asmlist al_typedconsts

.section .data.n_tc_$umain_$$_licznik,"d"
	.balign 4
.globl	TC_$UMAIN_$$_LICZNIK
TC_$UMAIN_$$_LICZNIK:
	.long	0

.section .data.n_tc_$umain_$$_c,"d"
	.balign 8
.globl	TC_$UMAIN_$$_C
TC_$UMAIN_$$_C:
	.quad	0
# [29] c6:int64=1;

.section .data.n_tc_$umain_$$_c6,"d"
	.balign 8
.globl	TC_$UMAIN_$$_C6
TC_$UMAIN_$$_C6:
	.quad	1
# [30] avsct:int64=0;

.section .data.n_tc_$umain_$$_avsct,"d"
	.balign 8
.globl	TC_$UMAIN_$$_AVSCT
TC_$UMAIN_$$_AVSCT:
	.quad	0
# [31] avspt:int64=0;

.section .data.n_tc_$umain_$$_avspt,"d"
	.balign 8
.globl	TC_$UMAIN_$$_AVSPT
TC_$UMAIN_$$_AVSPT:
	.quad	0
# [32] avall:int64=0;

.section .data.n_tc_$umain_$$_avall,"d"
	.balign 8
.globl	TC_$UMAIN_$$_AVALL
TC_$UMAIN_$$_AVALL:
	.quad	0
# [33] avsid:int64=0;

.section .data.n_tc_$umain_$$_avsid,"d"
	.balign 8
.globl	TC_$UMAIN_$$_AVSID
TC_$UMAIN_$$_AVSID:
	.quad	0
# [34] av6502:int64=0;

.section .data.n_tc_$umain_$$_av6502,"d"
	.balign 8
.globl	TC_$UMAIN_$$_AV6502
TC_$UMAIN_$$_AV6502:
	.quad	0

.section .data.n_tc_$umain_$$_pause,"d"
.globl	TC_$UMAIN_$$_PAUSE
TC_$UMAIN_$$_PAUSE:
	.byte	0
# [40] procedure main1;

.section .rodata.n__$UMAIN$_Ld1,"d"
	.balign 8
	.short	0,1
	.long	0
	.quad	-1,50
.globl	_$UMAIN$_Ld1
_$UMAIN$_Ld1:
	.ascii	"The retromachine SID player v. 0.04 --- 2016.04.28\000"

.section .rodata.n__$UMAIN$_Ld2,"d"
	.balign 8
	.short	0,1
	.long	0
	.quad	-1,12
.globl	_$UMAIN$_Ld2
_$UMAIN$_Ld2:
	.ascii	"Screen time:\000"

.section .rodata.n__$UMAIN$_Ld3,"d"
	.balign 8
	.short	0,1
	.long	0
	.quad	-1,97
.globl	_$UMAIN$_Ld3
_$UMAIN$_Ld3:
	.ascii	"A retromachine SID player by pik33 --- inspired by "
	.ascii	"Johannes Ahlebrand's Parallax Propeller SIDCog\000"

.section .rodata.n__$UMAIN$_Ld4,"d"
	.balign 8
	.short	0,1
	.long	0
	.quad	-1,11
.globl	_$UMAIN$_Ld4
_$UMAIN$_Ld4:
	.ascii	"Now playing\000"

.section .rodata.n__$UMAIN$_Ld5,"d"
	.balign 8
	.short	0,1
	.long	0
	.quad	-1,9
.globl	_$UMAIN$_Ld5
_$UMAIN$_Ld5:
	.ascii	"File info\000"

.section .rodata.n__$UMAIN$_Ld6,"d"
	.balign 8
	.short	0,1
	.long	0
	.quad	-1,5
.globl	_$UMAIN$_Ld6
_$UMAIN$_Ld6:
	.ascii	"Files\000"

.section .rodata.n__$UMAIN$_Ld7,"d"
	.balign 8
	.short	0,1
	.long	0
	.quad	-1,1
.globl	_$UMAIN$_Ld7
_$UMAIN$_Ld7:
	.ascii	"0\000"

.section .rodata.n__$UMAIN$_Ld8,"d"
	.balign 8
	.short	0,1
	.long	0
	.quad	-1,1
.globl	_$UMAIN$_Ld8
_$UMAIN$_Ld8:
	.ascii	":\000"

.section .rodata.n__$UMAIN$_Ld9,"d"
	.balign 8
	.short	0,1
	.long	0
	.quad	-1,17
.globl	_$UMAIN$_Ld9
_$UMAIN$_Ld9:
	.ascii	"Avg screen time: \000"

.section .rodata.n__$UMAIN$_Ld10,"d"
	.balign 8
	.short	0,1
	.long	0
	.quad	-1,3
.globl	_$UMAIN$_Ld10
_$UMAIN$_Ld10:
	.ascii	" us\000"

.section .rodata.n__$UMAIN$_Ld11,"d"
	.balign 8
	.short	0,1
	.long	0
	.quad	-1,17
.globl	_$UMAIN$_Ld11
_$UMAIN$_Ld11:
	.ascii	"Avg sprite time: \000"

.section .rodata.n__$UMAIN$_Ld12,"d"
	.balign 8
	.short	0,1
	.long	0
	.quad	-1,14
.globl	_$UMAIN$_Ld12
_$UMAIN$_Ld12:
	.ascii	"Avg SID time: \000"

.section .rodata.n__$UMAIN$_Ld13,"d"
	.balign 8
	.short	0,1
	.long	0
	.quad	-1,11
.globl	_$UMAIN$_Ld13
_$UMAIN$_Ld13:
	.ascii	"6502 time: \000"

.section .rodata.n__$UMAIN$_Ld14,"d"
	.balign 8
.globl	_$UMAIN$_Ld14
_$UMAIN$_Ld14:
# value: 0d+6.2500000000000000E-002
	.byte	0,0,0,0,0,0,176,63

.section .rodata.n__$UMAIN$_Ld15,"d"
	.balign 8
.globl	_$UMAIN$_Ld15
_$UMAIN$_Ld15:
# value: 0d+2.5000000000000001E-002
	.byte	154,153,153,153,153,153,153,63

.section .rodata.n__$UMAIN$_Ld16,"d"
	.balign 8
.globl	_$UMAIN$_Ld16
_$UMAIN$_Ld16:
# value: 0d+7.4000000000000000E+001
	.byte	0,0,0,0,0,128,82,64
# End asmlist al_typedconsts
# Begin asmlist al_rtti

.section .data.n_RTTI_$UMAIN_$$_DEF57,"d"
	.balign 8
.globl	RTTI_$UMAIN_$$_DEF57
RTTI_$UMAIN_$$_DEF57:
	.byte	12
# [245] 
	.ascii	"\000"
	.quad	40,5
	.quad	RTTI_$SYSTEM_$$_RAWBYTESTRING
	.byte	1
	.quad	RTTI_$SYSTEM_$$_LONGINT

.section .data.n_RTTI_$UMAIN_$$_DEF59,"d"
	.balign 8
.globl	RTTI_$UMAIN_$$_DEF59
RTTI_$UMAIN_$$_DEF59:
	.byte	12
	.ascii	"\000"
	.quad	24,3
	.quad	RTTI_$SYSTEM_$$_RAWBYTESTRING
	.byte	1
	.quad	RTTI_$SYSTEM_$$_LONGINT

.section .data.n_RTTI_$UMAIN_$$_DEF60,"d"
	.balign 8
.globl	RTTI_$UMAIN_$$_DEF60
RTTI_$UMAIN_$$_DEF60:
	.byte	12
	.ascii	"\000"
	.quad	24,3
	.quad	RTTI_$SYSTEM_$$_RAWBYTESTRING
	.byte	1
	.quad	RTTI_$SYSTEM_$$_LONGINT

.section .data.n_RTTI_$UMAIN_$$_DEF61,"d"
	.balign 8
.globl	RTTI_$UMAIN_$$_DEF61
RTTI_$UMAIN_$$_DEF61:
	.byte	12
	.ascii	"\000"
	.quad	24,3
	.quad	RTTI_$SYSTEM_$$_RAWBYTESTRING
	.byte	1
	.quad	RTTI_$SYSTEM_$$_LONGINT

.section .data.n_RTTI_$UMAIN_$$_DEF62,"d"
	.balign 8
.globl	RTTI_$UMAIN_$$_DEF62
RTTI_$UMAIN_$$_DEF62:
	.byte	12
	.ascii	"\000"
	.quad	24,3
	.quad	RTTI_$SYSTEM_$$_RAWBYTESTRING
	.byte	1
	.quad	RTTI_$SYSTEM_$$_LONGINT
# End asmlist al_rtti
# Begin asmlist al_dwarf_frame

.section .debug_frame
.Lc27:
	.long	.Lc29-.Lc28
.Lc28:
	.long	-1
	.byte	1
	.byte	0
	.uleb128	1
	.sleb128	-4
	.byte	16
	.byte	12
	.uleb128	7
	.uleb128	8
	.byte	5
	.uleb128	16
	.uleb128	2
	.balign 4,0
.Lc29:
	.long	.Lc31-.Lc30
.Lc30:
	.secrel32	.Lc27
	.quad	.Lc1
	.quad	.Lc2-.Lc1
	.byte	4
	.long	.Lc3-.Lc1
	.byte	14
	.uleb128	16
	.byte	4
	.long	.Lc4-.Lc3
	.byte	5
	.uleb128	6
	.uleb128	4
	.byte	4
	.long	.Lc5-.Lc4
	.byte	13
	.uleb128	6
	.balign 4,0
.Lc31:
	.long	.Lc33-.Lc32
.Lc32:
	.secrel32	.Lc27
	.quad	.Lc6
	.quad	.Lc7-.Lc6
	.byte	4
	.long	.Lc8-.Lc6
	.byte	14
	.uleb128	16
	.byte	4
	.long	.Lc9-.Lc8
	.byte	5
	.uleb128	6
	.uleb128	4
	.byte	4
	.long	.Lc10-.Lc9
	.byte	13
	.uleb128	6
	.balign 4,0
.Lc33:
	.long	.Lc35-.Lc34
.Lc34:
	.secrel32	.Lc27
	.quad	.Lc11
	.quad	.Lc12-.Lc11
	.byte	4
	.long	.Lc13-.Lc11
	.byte	14
	.uleb128	16
	.byte	4
	.long	.Lc14-.Lc13
	.byte	5
	.uleb128	6
	.uleb128	4
	.byte	4
	.long	.Lc15-.Lc14
	.byte	13
	.uleb128	6
	.balign 4,0
.Lc35:
	.long	.Lc37-.Lc36
.Lc36:
	.secrel32	.Lc27
	.quad	.Lc16
	.quad	.Lc17-.Lc16
	.byte	4
	.long	.Lc18-.Lc16
	.byte	14
	.uleb128	16
	.byte	4
	.long	.Lc19-.Lc18
	.byte	5
	.uleb128	6
	.uleb128	4
	.byte	4
	.long	.Lc20-.Lc19
	.byte	13
	.uleb128	6
	.balign 4,0
.Lc37:
	.long	.Lc39-.Lc38
.Lc38:
	.secrel32	.Lc27
	.quad	.Lc21
	.quad	.Lc22-.Lc21
	.byte	4
	.long	.Lc23-.Lc21
	.byte	14
	.uleb128	48
	.balign 4,0
.Lc39:
	.long	.Lc41-.Lc40
.Lc40:
	.secrel32	.Lc27
	.quad	.Lc24
	.quad	.Lc25-.Lc24
	.byte	4
	.long	.Lc26-.Lc24
	.byte	14
	.uleb128	48
	.balign 4,0
.Lc41:
# End asmlist al_dwarf_frame
# Begin asmlist al_dwarf_info

.section .text.z_DEBUGEND_$UMAIN,"x"
.globl	DEBUGEND_$UMAIN
DEBUGEND_$UMAIN:
# End asmlist al_end

