	.file "unit6502.pas"
# Begin asmlist al_begin

.section .text.b_DEBUGSTART_$UNIT6502,"x"
.globl	DEBUGSTART_$UNIT6502
DEBUGSTART_$UNIT6502:
# End asmlist al_begin
# Begin asmlist al_procedures

.section .text.n_unit6502_$$_read6502$int64$$byte,"x"
	.balign 16,0x90
.globl	UNIT6502_$$_READ6502$INT64$$BYTE
UNIT6502_$$_READ6502$INT64$$BYTE:
.Lc1:
# Var address located in register rcx
# Var $result located in register al
# [unit6502.pas]
# [249] begin
.Ll1:
# [250] result:=ram[address and $FFFF];
	andq	$65535,%rcx
# Var $result located in register al
	leaq	U_$UNIT6502_$$_RAM(%rip),%rax
	movb	2(%rax,%rcx,1),%al
# PeepHole Optimization,var9
.Ll2:
# [251] end;
	andl	$255,%eax
	ret
.Lc2:
.Lt1:
.Ll3:

.section .text.n_unit6502_$$_write6502$int64$byte,"x"
	.balign 16,0x90
.globl	UNIT6502_$$_WRITE6502$INT64$BYTE
UNIT6502_$$_WRITE6502$INT64$BYTE:
.Lc3:
# Var address located in register rax
# Var value located in register dl
.Ll4:
# [255] begin
	movq	%rcx,%rax
.Ll5:
# [256] ram[address and $FFFF]:=value;
	andq	$65535,%rax
# Var value located in register dl
	leaq	U_$UNIT6502_$$_RAM(%rip),%rcx
	movb	%dl,2(%rcx,%rax,1)
.Ll6:
# [257] end;
	ret
.Lc4:
.Lt2:
.Ll7:

.section .text.n_unit6502_$$_push32$longword,"x"
	.balign 16,0x90
.globl	UNIT6502_$$_PUSH32$LONGWORD
UNIT6502_$$_PUSH32$LONGWORD:
.Lc5:
.seh_proc UNIT6502_$$_PUSH32$LONGWORD
.Ll8:
# [263] begin
	pushq	%rbx
.seh_pushreg %rbx
	leaq	-32(%rsp),%rsp
.Lc7:
.seh_stackalloc 32
# Var pushval located in register ebx
.seh_endprologue
	movl	%ecx,%ebx
.Ll9:
# [264] write6502(BASE_STACK+sp,(pushval shr 24) and $FF);
	movl	%ebx,%edx
	shrl	$24,%edx
# PeepHole Optimization,var1
# PeepHole Optimization,var9
	andl	$255,%edx
	movzbl	U_$UNIT6502_$$_SP(%rip),%eax
	leaq	256(%rax),%rcx
	call	UNIT6502_$$_WRITE6502$INT64$BYTE
.Ll10:
# [265] write6502(BASE_STACK+((sp-1) and $FF),(pushval shr 16) and $FF);
	movzbl	U_$UNIT6502_$$_SP(%rip),%eax
	leaq	-1(%rax),%rax
	andq	$255,%rax
	leaq	256(%rax),%rcx
	movl	%ebx,%edx
	shrl	$16,%edx
# PeepHole Optimization,var1
# PeepHole Optimization,var9
	andl	$255,%edx
	call	UNIT6502_$$_WRITE6502$INT64$BYTE
.Ll11:
# [266] write6502(BASE_STACK+((sp-2) and $FF),(pushval shr 8) and $FF);
	movzbl	U_$UNIT6502_$$_SP(%rip),%eax
	leaq	-2(%rax),%rax
	andq	$255,%rax
	leaq	256(%rax),%rcx
	movl	%ebx,%edx
	shrl	$8,%edx
# PeepHole Optimization,var1
# PeepHole Optimization,var9
	andl	$255,%edx
	call	UNIT6502_$$_WRITE6502$INT64$BYTE
.Ll12:
# [267] write6502(BASE_STACK+((sp-3) and $FF),pushval and $FF);
	movzbl	U_$UNIT6502_$$_SP(%rip),%eax
	leaq	-3(%rax),%rax
	andq	$255,%rax
	leaq	256(%rax),%rcx
	movl	%ebx,%edx
# PeepHole Optimization,var1
# PeepHole Optimization,var9
	andl	$255,%edx
	call	UNIT6502_$$_WRITE6502$INT64$BYTE
.Ll13:
# [268] sp-=4;
	movzbl	U_$UNIT6502_$$_SP(%rip),%eax
	leal	-4(%eax),%eax
	movb	%al,U_$UNIT6502_$$_SP(%rip)
.Ll14:
# [269] end;
	nop
	leaq	32(%rsp),%rsp
	popq	%rbx
	ret
.seh_endproc
.Lc6:
.Lt105:
.Ll15:

.section .text.n_unit6502_$$_push16$word,"x"
	.balign 16,0x90
.globl	UNIT6502_$$_PUSH16$WORD
UNIT6502_$$_PUSH16$WORD:
.Lc8:
.seh_proc UNIT6502_$$_PUSH16$WORD
.Ll16:
# [273] begin
	pushq	%rbx
.seh_pushreg %rbx
	leaq	-32(%rsp),%rsp
.Lc10:
.seh_stackalloc 32
# Var pushval located in register bx
.seh_endprologue
	movw	%cx,%bx
.Ll17:
# [274] write6502(BASE_STACK+sp,(pushval shr 8) and $FF);
	movzwl	%bx,%edx
	shrl	$8,%edx
# PeepHole Optimization,var1
# PeepHole Optimization,var9
	andl	$255,%edx
	movzbl	U_$UNIT6502_$$_SP(%rip),%eax
	leaq	256(%rax),%rcx
	call	UNIT6502_$$_WRITE6502$INT64$BYTE
.Ll18:
# [275] write6502(BASE_STACK+((sp-1) and $FF),pushval and $FF);
	movzbl	U_$UNIT6502_$$_SP(%rip),%eax
	leaq	-1(%rax),%rax
	andq	$255,%rax
	leaq	256(%rax),%rcx
	movw	%bx,%dx
# PeepHole Optimization,var1
# PeepHole Optimization,var9
	andl	$255,%edx
	call	UNIT6502_$$_WRITE6502$INT64$BYTE
.Ll19:
# [276] sp-=2;
	movzbl	U_$UNIT6502_$$_SP(%rip),%eax
	leal	-2(%eax),%eax
	movb	%al,U_$UNIT6502_$$_SP(%rip)
.Ll20:
# [277] end;
	nop
	leaq	32(%rsp),%rsp
	popq	%rbx
	ret
.seh_endproc
.Lc9:
.Lt106:
.Ll21:

.section .text.n_unit6502_$$_push8$word,"x"
	.balign 16,0x90
.globl	UNIT6502_$$_PUSH8$WORD
UNIT6502_$$_PUSH8$WORD:
.Lc11:
.seh_proc UNIT6502_$$_PUSH8$WORD
.Ll22:
# [281] begin
	leaq	-40(%rsp),%rsp
.Lc13:
.seh_stackalloc 40
# Var pushval located in register ax
.seh_endprologue
	movw	%cx,%ax
.Ll23:
# [282] write6502(BASE_STACK+sp,pushval);
	movzbl	U_$UNIT6502_$$_SP(%rip),%edx
	leaq	256(%rdx),%rcx
	movb	%al,%dl
# PeepHole Optimization,var9
	andl	$255,%edx
	call	UNIT6502_$$_WRITE6502$INT64$BYTE
.Ll24:
# [283] dec(sp);
	subb	$1,U_$UNIT6502_$$_SP(%rip)
.Ll25:
# [284] end;
	nop
	leaq	40(%rsp),%rsp
	ret
.seh_endproc
.Lc12:
.Lt107:
.Ll26:

.section .text.n_unit6502_$$_pull32$$longword,"x"
	.balign 16,0x90
.globl	UNIT6502_$$_PULL32$$LONGWORD
UNIT6502_$$_PULL32$$LONGWORD:
.Lc14:
.seh_proc UNIT6502_$$_PULL32$$LONGWORD
.Ll27:
# [290] begin
	pushq	%rbx
.seh_pushreg %rbx
	leaq	-32(%rsp),%rsp
.Lc16:
.seh_stackalloc 32
# Var $result located in register eax
# Var temp32 located in register eax
.seh_endprologue
.Ll28:
# [291] temp32:=read6502(BASE_STACK + ((sp + 4) and $FF));
	movzbl	U_$UNIT6502_$$_SP(%rip),%eax
	leaq	4(%rax),%rax
	andq	$255,%rax
	leaq	256(%rax),%rcx
	call	UNIT6502_$$_READ6502$INT64$$BYTE
	movb	%al,%bl
# PeepHole Optimization,var9
	andl	$255,%ebx
# Var temp32 located in register ebx
.Ll29:
# [292] temp32:=(temp32 shl 8) + read6502(BASE_STACK + ((sp + 3) and $FF));
	shll	$8,%ebx
	movzbl	U_$UNIT6502_$$_SP(%rip),%eax
	leaq	3(%rax),%rax
	andq	$255,%rax
	leaq	256(%rax),%rcx
	call	UNIT6502_$$_READ6502$INT64$$BYTE
# PeepHole Optimization,var9
	andl	$255,%eax
	leal	(%ebx,%eax),%ebx
# Var temp32 located in register ebx
.Ll30:
# [293] temp32:=(temp32 shl 8) + read6502(BASE_STACK + ((sp + 2) and $FF));
	shll	$8,%ebx
	movzbl	U_$UNIT6502_$$_SP(%rip),%eax
	leaq	2(%rax),%rax
	andq	$255,%rax
	leaq	256(%rax),%rcx
	call	UNIT6502_$$_READ6502$INT64$$BYTE
# PeepHole Optimization,var9
	andl	$255,%eax
	leal	(%ebx,%eax),%ebx
# Var temp32 located in register ebx
.Ll31:
# [294] temp32:=(temp32 shl 8) + read6502(BASE_STACK + ((sp + 1) and $FF));
	shll	$8,%ebx
	movzbl	U_$UNIT6502_$$_SP(%rip),%eax
	leaq	1(%rax),%rax
	andq	$255,%rax
	leaq	256(%rax),%rcx
	call	UNIT6502_$$_READ6502$INT64$$BYTE
# PeepHole Optimization,var9
	andl	$255,%eax
	leal	(%ebx,%eax),%eax
# Var temp32 located in register eax
# Var $result located in register eax
# Var temp32 located in register eax
.Ll32:
# [296] sp+=4;
	movzbl	U_$UNIT6502_$$_SP(%rip),%edx
	leal	4(%edx),%edx
	movb	%dl,U_$UNIT6502_$$_SP(%rip)
.Ll33:
# [297] end;
	nop
	leaq	32(%rsp),%rsp
	popq	%rbx
	ret
.seh_endproc
.Lc15:
.Lt108:
.Ll34:

.section .text.n_unit6502_$$_pull16$$word,"x"
	.balign 16,0x90
.globl	UNIT6502_$$_PULL16$$WORD
UNIT6502_$$_PULL16$$WORD:
.Lc17:
.seh_proc UNIT6502_$$_PULL16$$WORD
.Ll35:
# [303] begin
	pushq	%rbx
.seh_pushreg %rbx
	leaq	-32(%rsp),%rsp
.Lc19:
.seh_stackalloc 32
# Var $result located in register ax
# Var temp16 located in register ax
.seh_endprologue
.Ll36:
# [304] temp16:=read6502(BASE_STACK + ((sp + 2) and $FF));
	movzbl	U_$UNIT6502_$$_SP(%rip),%eax
	leaq	2(%rax),%rax
	andq	$255,%rax
	leaq	256(%rax),%rcx
	call	UNIT6502_$$_READ6502$INT64$$BYTE
	movb	%al,%bl
# PeepHole Optimization,var7
# PeepHole Optimization,var1
# Var temp16 located in register bx
# PeepHole Optimization,var11
.Ll37:
# [305] temp16:=(temp16 shl 8) + read6502(BASE_STACK + ((sp + 1) and $FF));
	andl	$255,%ebx
	shll	$8,%ebx
	movzbl	U_$UNIT6502_$$_SP(%rip),%eax
	leaq	1(%rax),%rax
	andq	$255,%rax
	leaq	256(%rax),%rcx
	call	UNIT6502_$$_READ6502$INT64$$BYTE
# PeepHole Optimization,var9
	andl	$255,%eax
	leal	(%ebx,%eax),%eax
# Var temp16 located in register ax
# Var $result located in register ax
# Var temp16 located in register ax
.Ll38:
# [307] sp+=2;
	movzbl	U_$UNIT6502_$$_SP(%rip),%edx
	leal	2(%edx),%edx
	movb	%dl,U_$UNIT6502_$$_SP(%rip)
# PeepHole Optimization,var11
.Ll39:
# [308] end;
	andl	$65535,%eax
	nop
	leaq	32(%rsp),%rsp
	popq	%rbx
	ret
.seh_endproc
.Lc18:
.Lt109:
.Ll40:

.section .text.n_unit6502_$$_pull8$$byte,"x"
	.balign 16,0x90
.globl	UNIT6502_$$_PULL8$$BYTE
UNIT6502_$$_PULL8$$BYTE:
.Lc20:
.seh_proc UNIT6502_$$_PULL8$$BYTE
.Ll41:
# [312] begin
	leaq	-40(%rsp),%rsp
.Lc22:
.seh_stackalloc 40
# Var $result located in register al
.seh_endprologue
.Ll42:
# [313] inc(sp);
	addb	$1,U_$UNIT6502_$$_SP(%rip)
.Ll43:
# [314] result:=(read6502(BASE_STACK + sp));
	movzbl	U_$UNIT6502_$$_SP(%rip),%eax
	leaq	256(%rax),%rcx
	call	UNIT6502_$$_READ6502$INT64$$BYTE
# Var $result located in register al
# PeepHole Optimization,var9
.Ll44:
# [315] end;
	andl	$255,%eax
	nop
	leaq	40(%rsp),%rsp
	ret
.seh_endproc
.Lc21:
.Lt110:
.Ll45:

.section .text.n_unit6502_$$_getvalue$$word,"x"
	.balign 16,0x90
.globl	UNIT6502_$$_GETVALUE$$WORD
UNIT6502_$$_GETVALUE$$WORD:
.Lc23:
.seh_proc UNIT6502_$$_GETVALUE$$WORD
.Ll46:
# [321] begin
	pushq	%rbx
.seh_pushreg %rbx
	leaq	-32(%rsp),%rsp
.Lc25:
.seh_stackalloc 32
# Var $result located in register bx
# Var ea2 located in register rcx
.seh_endprologue
.Ll47:
# [322] ea2:=ea+ds^;
	movzwl	U_$UNIT6502_$$_EA(%rip),%edx
	movq	U_$UNIT6502_$$_DS(%rip),%rax
	movq	(%rax),%rax
	leaq	(%rdx,%rax),%rcx
# Var ea2 located in register rcx
.Ll48:
# [323] if (addrtable[opcode] = @acc) then
	movzbl	U_$UNIT6502_$$_OPCODE(%rip),%eax
	leaq	UNIT6502_$$_ACC(%rip),%rdx
	leaq	TC_$UNIT6502_$$_ADDRTABLE(%rip),%r8
	cmpq	(%r8,%rax,8),%rdx
	jne	.Lj96
.Ll49:
# [324] result:=a
	movzbw	U_$UNIT6502_$$_A(%rip),%ax
	movw	%ax,%bx
	jmp	.Lj99
.Lj96:
.Ll50:
# [326] result:=read6502(ea2);
	call	UNIT6502_$$_READ6502$INT64$$BYTE
# PeepHole Optimization,var7
	andw	$255,%ax
	movw	%ax,%bx
.Lj99:
.Ll51:
# [327] end;
	movzwl	%bx,%eax
	nop
	leaq	32(%rsp),%rsp
	popq	%rbx
	ret
.seh_endproc
.Lc24:
.Lt111:
.Ll52:

.section .text.n_unit6502_$$_getvalue16$$word,"x"
	.balign 16,0x90
.globl	UNIT6502_$$_GETVALUE16$$WORD
UNIT6502_$$_GETVALUE16$$WORD:
.Lc26:
.seh_proc UNIT6502_$$_GETVALUE16$$WORD
.Ll53:
# [333] begin
	pushq	%rbx
.seh_pushreg %rbx
	pushq	%rsi
.seh_pushreg %rsi
	leaq	-40(%rsp),%rsp
.Lc28:
.seh_stackalloc 40
# Var $result located in register ax
# Var ea2 located in register rbx
.seh_endprologue
.Ll54:
# [334] ea2:=ea+ds^;
	movzwl	U_$UNIT6502_$$_EA(%rip),%edx
	movq	U_$UNIT6502_$$_DS(%rip),%rax
	movq	(%rax),%rax
	leaq	(%rdx,%rax),%rbx
# Var ea2 located in register rbx
# Var ea2 located in register rbx
.Ll55:
# [335] result:=word(read6502(ea2)) or (word(read6502(ea2+1)) shl 8);
	movq	%rbx,%rcx
	call	UNIT6502_$$_READ6502$INT64$$BYTE
	movb	%al,%sil
# PeepHole Optimization,var7
# PeepHole Optimization,var1
# PeepHole Optimization,var11
	andl	$255,%esi
	leaq	1(%rbx),%rcx
	call	UNIT6502_$$_READ6502$INT64$$BYTE
# PeepHole Optimization,var7
# PeepHole Optimization,var1
# PeepHole Optimization,var11
	andl	$255,%eax
	shll	$8,%eax
	orl	%esi,%eax
# Var $result located in register ax
# PeepHole Optimization,var11
.Ll56:
# [336] end;
	andl	$65535,%eax
	nop
	leaq	40(%rsp),%rsp
	popq	%rsi
	popq	%rbx
	ret
.seh_endproc
.Lc27:
.Lt112:
.Ll57:

.section .text.n_unit6502_$$_getvalue32$$longword,"x"
	.balign 16,0x90
.globl	UNIT6502_$$_GETVALUE32$$LONGWORD
UNIT6502_$$_GETVALUE32$$LONGWORD:
.Lc29:
.seh_proc UNIT6502_$$_GETVALUE32$$LONGWORD
.Ll58:
# [342] begin
	pushq	%rbx
.seh_pushreg %rbx
	pushq	%rdi
.seh_pushreg %rdi
	pushq	%rsi
.seh_pushreg %rsi
	leaq	-32(%rsp),%rsp
.Lc31:
.seh_stackalloc 32
# Var $result located in register eax
# Var ea2 located in register rbx
.seh_endprologue
.Ll59:
# [344] ea2:=ea+ds^;
	movzwl	U_$UNIT6502_$$_EA(%rip),%edx
	movq	U_$UNIT6502_$$_DS(%rip),%rax
	movq	(%rax),%rax
	leaq	(%rdx,%rax),%rbx
# Var ea2 located in register rbx
# Var ea2 located in register rbx
.Ll60:
# [346] result:=cardinal(read6502(ea2))
	movq	%rbx,%rcx
	call	UNIT6502_$$_READ6502$INT64$$BYTE
	movb	%al,%sil
# PeepHole Optimization,var9
	andl	$255,%esi
.Ll61:
# [347] or (cardinal(read6502(ea2+1)) shl 8)
	leaq	1(%rbx),%rcx
	call	UNIT6502_$$_READ6502$INT64$$BYTE
	movb	%al,%dil
# PeepHole Optimization,var9
	andl	$255,%edi
	shll	$8,%edi
	orl	%esi,%edi
.Ll62:
# [348] or (cardinal(read6502(ea2+2)) shl 16)
	leaq	2(%rbx),%rcx
	call	UNIT6502_$$_READ6502$INT64$$BYTE
	movb	%al,%sil
# PeepHole Optimization,var9
	andl	$255,%esi
	shll	$16,%esi
	orl	%edi,%esi
.Ll63:
# [349] or (cardinal(read6502(ea2+3)) shl 24);
	leaq	3(%rbx),%rcx
	call	UNIT6502_$$_READ6502$INT64$$BYTE
# PeepHole Optimization,var9
	andl	$255,%eax
	shll	$24,%eax
	orl	%esi,%eax
# Var $result located in register eax
.Ll64:
# [350] end;
	nop
	leaq	32(%rsp),%rsp
	popq	%rsi
	popq	%rdi
	popq	%rbx
	ret
.seh_endproc
.Lc30:
.Lt113:
.Ll65:

.section .text.n_unit6502_$$_putvalue$word,"x"
	.balign 16,0x90
.globl	UNIT6502_$$_PUTVALUE$WORD
UNIT6502_$$_PUTVALUE$WORD:
.Lc32:
.seh_proc UNIT6502_$$_PUTVALUE$WORD
.Ll66:
# [356] begin
	leaq	-40(%rsp),%rsp
.Lc34:
.seh_stackalloc 40
# Var saveval located in register dx
# Var ea2 located in register rcx
.seh_endprologue
	movw	%cx,%dx
.Ll67:
# [357] ea2:=ea+ds^;
	movzwl	U_$UNIT6502_$$_EA(%rip),%ecx
	movq	U_$UNIT6502_$$_DS(%rip),%rax
	movq	(%rax),%rax
	leaq	(%rcx,%rax),%rcx
# Var ea2 located in register rcx
.Ll68:
# [358] if (addrtable[opcode] = @acc) then a := byte(saveval and $00FF) else write6502(ea2, (saveval and $00FF));
	movzbl	U_$UNIT6502_$$_OPCODE(%rip),%eax
	leaq	UNIT6502_$$_ACC(%rip),%r8
	leaq	TC_$UNIT6502_$$_ADDRTABLE(%rip),%r9
	cmpq	(%r9,%rax,8),%r8
	jne	.Lj133
	movw	%dx,%ax
	andw	$255,%ax
	movb	%al,U_$UNIT6502_$$_A(%rip)
	jmp	.Lj136
.Lj133:
# PeepHole Optimization,var1
# PeepHole Optimization,var9
	andl	$255,%edx
	call	UNIT6502_$$_WRITE6502$INT64$BYTE
.Lj136:
.Ll69:
# [359] end;
	nop
	leaq	40(%rsp),%rsp
	ret
.seh_endproc
.Lc33:
.Lt114:
.Ll70:

.section .text.n_unit6502_$$_putvalue32$longword,"x"
	.balign 16,0x90
.globl	UNIT6502_$$_PUTVALUE32$LONGWORD
UNIT6502_$$_PUTVALUE32$LONGWORD:
.Lc35:
.seh_proc UNIT6502_$$_PUTVALUE32$LONGWORD
.Ll71:
# [365] begin
	pushq	%rbx
.seh_pushreg %rbx
	pushq	%rsi
.seh_pushreg %rsi
	leaq	-40(%rsp),%rsp
.Lc37:
.seh_stackalloc 40
# Var saveval located in register ebx
# Var ea2 located in register rsi
.seh_endprologue
	movl	%ecx,%ebx
.Ll72:
# [367] ea2:=ea+ds^;
	movzwl	U_$UNIT6502_$$_EA(%rip),%edx
	movq	U_$UNIT6502_$$_DS(%rip),%rax
	movq	(%rax),%rax
	leaq	(%rdx,%rax),%rsi
# Var ea2 located in register rsi
.Ll73:
# [369] write6502(ea2, (saveval and $000000FF));
	movl	%ebx,%edx
# PeepHole Optimization,var1
# PeepHole Optimization,var9
	andl	$255,%edx
# Var ea2 located in register rsi
	movq	%rsi,%rcx
	call	UNIT6502_$$_WRITE6502$INT64$BYTE
.Ll74:
# [370] write6502(ea2+1, ((saveval shl 8) and $000000FF));
	movl	%ebx,%edx
	shll	$8,%edx
# PeepHole Optimization,var1
# PeepHole Optimization,var9
	andl	$255,%edx
	leaq	1(%rsi),%rcx
	call	UNIT6502_$$_WRITE6502$INT64$BYTE
.Ll75:
# [371] write6502(ea2+2, ((saveval shl 16) and $000000FF));
	movl	%ebx,%edx
	shll	$16,%edx
# PeepHole Optimization,var1
# PeepHole Optimization,var9
	andl	$255,%edx
	leaq	2(%rsi),%rcx
	call	UNIT6502_$$_WRITE6502$INT64$BYTE
.Ll76:
# [372] write6502(ea2+3, ((saveval shl 24) and $000000FF));
	movl	%ebx,%edx
	shll	$24,%edx
# PeepHole Optimization,var1
# PeepHole Optimization,var9
	andl	$255,%edx
	leaq	3(%rsi),%rcx
	call	UNIT6502_$$_WRITE6502$INT64$BYTE
.Ll77:
# [373] end;
	nop
	leaq	40(%rsp),%rsp
	popq	%rsi
	popq	%rbx
	ret
.seh_endproc
.Lc36:
.Lt115:
.Ll78:

.section .text.n_unit6502_$$_reset6502,"x"
	.balign 16,0x90
.globl	UNIT6502_$$_RESET6502
UNIT6502_$$_RESET6502:
.Lc38:
.seh_proc UNIT6502_$$_RESET6502
.Ll79:
# [377] begin
	pushq	%rbx
.seh_pushreg %rbx
	leaq	-32(%rsp),%rsp
.Lc40:
.seh_stackalloc 32
.seh_endprologue
.Ll80:
# [378] pc := word(read6502($FFFC)) or (word(read6502($FFFD) shl 8));
	movq	$65532,%rax
	movq	%rax,%rcx
	call	UNIT6502_$$_READ6502$INT64$$BYTE
	movb	%al,%bl
# PeepHole Optimization,var7
	andw	$255,%bx
	movq	$65533,%rcx
	call	UNIT6502_$$_READ6502$INT64$$BYTE
# PeepHole Optimization,var9
	andl	$255,%eax
	shll	$8,%eax
	orw	%bx,%ax
	movw	%ax,U_$UNIT6502_$$_PC(%rip)
.Ll81:
# [379] a := 0;
	movb	$0,U_$UNIT6502_$$_A(%rip)
.Ll82:
# [380] x := 0;
	movb	$0,U_$UNIT6502_$$_X(%rip)
.Ll83:
# [381] y := 0;
	movb	$0,U_$UNIT6502_$$_Y(%rip)
.Ll84:
# [382] sp := $FD;
	movb	$253,U_$UNIT6502_$$_SP(%rip)
.Ll85:
# [383] ds:=@dsa;
	leaq	U_$UNIT6502_$$_DSA(%rip),%rax
	movq	%rax,U_$UNIT6502_$$_DS(%rip)
.Ll86:
# [384] cs:=@csa;
	leaq	U_$UNIT6502_$$_CSA(%rip),%rax
# PeepHole Optimization,MovMov2Mov1
	movq	%rax,U_$UNIT6502_$$_CS(%rip)
.Ll87:
# [385] cs^:=0; ds^:=0; csi:=0; dsi:=0;
	movq	$0,(%rax)
	movq	U_$UNIT6502_$$_DS(%rip),%rax
	movq	$0,(%rax)
	movq	$0,U_$UNIT6502_$$_CSI(%rip)
	movq	$0,U_$UNIT6502_$$_DSI(%rip)
# PeepHole Optimization,var3
.Ll88:
# [386] status:=status or FLAG_CONSTANT;
	orb	$32,U_$UNIT6502_$$_STATUS(%rip)
.Ll89:
# [387] clockgoal6502:=0;
	movq	$0,TC_$UNIT6502_$$_CLOCKGOAL6502(%rip)
.Ll90:
# [388] instructions:=0;
	movq	$0,TC_$UNIT6502_$$_INSTRUCTIONS(%rip)
.Ll91:
# [389] clockticks6502:=0;
	movq	$0,TC_$UNIT6502_$$_CLOCKTICKS6502(%rip)
.Ll92:
# [391] end;
	nop
	leaq	32(%rsp),%rsp
	popq	%rbx
	ret
.seh_endproc
.Lc39:
.Lt3:
.Ll93:

.section .text.n_unit6502_$$_nmi6502,"x"
	.balign 16,0x90
.globl	UNIT6502_$$_NMI6502
UNIT6502_$$_NMI6502:
.Lc41:
.seh_proc UNIT6502_$$_NMI6502
.Ll94:
# [395] begin
	pushq	%rbx
.seh_pushreg %rbx
	leaq	-32(%rsp),%rsp
.Lc43:
.seh_stackalloc 32
.seh_endprologue
.Ll95:
# [396] push16(pc);
	movzwl	U_$UNIT6502_$$_PC(%rip),%eax
	movl	%eax,%ecx
	call	UNIT6502_$$_PUSH16$WORD
.Ll96:
# [397] push8(status);
	movzbw	U_$UNIT6502_$$_STATUS(%rip),%cx
# PeepHole Optimization,var11
	andl	$65535,%ecx
	call	UNIT6502_$$_PUSH8$WORD
# PeepHole Optimization,var3
.Ll97:
# [398] status :=status or FLAG_INTERRUPT;
	orb	$4,U_$UNIT6502_$$_STATUS(%rip)
.Ll98:
# [399] pc := word(read6502($FFFA)) or (word(read6502($FFFB)) << 8);
	movq	$65530,%rcx
	call	UNIT6502_$$_READ6502$INT64$$BYTE
	movb	%al,%bl
# PeepHole Optimization,var7
# PeepHole Optimization,var1
# PeepHole Optimization,var11
	andl	$255,%ebx
	movq	$65531,%rcx
	call	UNIT6502_$$_READ6502$INT64$$BYTE
# PeepHole Optimization,var7
# PeepHole Optimization,var1
# PeepHole Optimization,var11
	andl	$255,%eax
	shll	$8,%eax
	orl	%ebx,%eax
	movw	%ax,U_$UNIT6502_$$_PC(%rip)
.Ll99:
# [400] cs:=@csi;
	leaq	U_$UNIT6502_$$_CSI(%rip),%rax
	movq	%rax,U_$UNIT6502_$$_CS(%rip)
.Ll100:
# [401] ds:=@dsi;
	leaq	U_$UNIT6502_$$_DSI(%rip),%rax
	movq	%rax,U_$UNIT6502_$$_DS(%rip)
.Ll101:
# [402] end;
	nop
	leaq	32(%rsp),%rsp
	popq	%rbx
	ret
.seh_endproc
.Lc42:
.Lt4:
.Ll102:

.section .text.n_unit6502_$$_irq6502,"x"
	.balign 16,0x90
.globl	UNIT6502_$$_IRQ6502
UNIT6502_$$_IRQ6502:
.Lc44:
.seh_proc UNIT6502_$$_IRQ6502
.Ll103:
# [406] begin
	pushq	%rbx
.seh_pushreg %rbx
	leaq	-32(%rsp),%rsp
.Lc46:
.seh_stackalloc 32
.seh_endprologue
.Ll104:
# [407] push16(pc);
	movzwl	U_$UNIT6502_$$_PC(%rip),%eax
	movl	%eax,%ecx
	call	UNIT6502_$$_PUSH16$WORD
.Ll105:
# [408] push8(status);
	movzbw	U_$UNIT6502_$$_STATUS(%rip),%cx
# PeepHole Optimization,var11
	andl	$65535,%ecx
	call	UNIT6502_$$_PUSH8$WORD
# PeepHole Optimization,var3
.Ll106:
# [409] status :=status or FLAG_INTERRUPT;
	orb	$4,U_$UNIT6502_$$_STATUS(%rip)
.Ll107:
# [410] pc := word(read6502($FFFE)) or (word(read6502($FFFF)) << 8);
	movq	$65534,%rcx
	call	UNIT6502_$$_READ6502$INT64$$BYTE
	movb	%al,%bl
# PeepHole Optimization,var7
# PeepHole Optimization,var1
# PeepHole Optimization,var11
	andl	$255,%ebx
	movq	$65535,%rcx
	call	UNIT6502_$$_READ6502$INT64$$BYTE
# PeepHole Optimization,var7
# PeepHole Optimization,var1
# PeepHole Optimization,var11
	andl	$255,%eax
	shll	$8,%eax
	orl	%ebx,%eax
	movw	%ax,U_$UNIT6502_$$_PC(%rip)
.Ll108:
# [411] cs:=@csi;
	leaq	U_$UNIT6502_$$_CSI(%rip),%rax
	movq	%rax,U_$UNIT6502_$$_CS(%rip)
.Ll109:
# [412] ds:=@dsi;
	leaq	U_$UNIT6502_$$_DSI(%rip),%rax
	movq	%rax,U_$UNIT6502_$$_DS(%rip)
.Ll110:
# [413] end;
	nop
	leaq	32(%rsp),%rsp
	popq	%rbx
	ret
.seh_endproc
.Lc45:
.Lt5:
.Ll111:

.section .text.n_unit6502_$$_exec6502$int64,"x"
	.balign 16,0x90
.globl	UNIT6502_$$_EXEC6502$INT64
UNIT6502_$$_EXEC6502$INT64:
.Lc47:
.seh_proc UNIT6502_$$_EXEC6502$INT64
.Ll112:
# [417] begin
	leaq	-40(%rsp),%rsp
.Lc49:
.seh_stackalloc 40
# Var tickcount located in register rax
.seh_endprologue
	movq	%rcx,%rax
.Ll113:
# [418] clockgoal6502 += tickcount;
	movq	TC_$UNIT6502_$$_CLOCKGOAL6502(%rip),%rdx
	leaq	(%rdx,%rax),%rax
	movq	%rax,TC_$UNIT6502_$$_CLOCKGOAL6502(%rip)
.Ll114:
# [419] while (clockticks6502 < clockgoal6502) do
	jmp	.Lj238
	.balign 8,0x90
.Lj237:
.Ll115:
# [421] opcode := read6502(pc+cs^);
	movzwl	U_$UNIT6502_$$_PC(%rip),%edx
	movq	U_$UNIT6502_$$_CS(%rip),%rax
	movq	(%rax),%rax
	leaq	(%rdx,%rax),%rcx
	call	UNIT6502_$$_READ6502$INT64$$BYTE
	movb	%al,U_$UNIT6502_$$_OPCODE(%rip)
.Ll116:
# [422] pc+=1;
	movzwl	U_$UNIT6502_$$_PC(%rip),%eax
	leal	1(%eax),%eax
	movw	%ax,U_$UNIT6502_$$_PC(%rip)
.Ll117:
# [424] penaltyop := 0;
	movb	$0,U_$UNIT6502_$$_PENALTYOP(%rip)
.Ll118:
# [425] penaltyaddr := 0;
	movb	$0,U_$UNIT6502_$$_PENALTYADDR(%rip)
.Ll119:
# [426] addrtable[opcode];
	movzbl	U_$UNIT6502_$$_OPCODE(%rip),%edx
	leaq	TC_$UNIT6502_$$_ADDRTABLE(%rip),%rax
	call	*(%rax,%rdx,8)
.Ll120:
# [427] optable[opcode];
	movzbl	U_$UNIT6502_$$_OPCODE(%rip),%edx
	leaq	TC_$UNIT6502_$$_OPTABLE(%rip),%rax
	call	*(%rax,%rdx,8)
.Ll121:
# [428] clockticks6502 += ticktable[opcode];
	movzbl	U_$UNIT6502_$$_OPCODE(%rip),%eax
	leaq	TC_$UNIT6502_$$_TICKTABLE(%rip),%rdx
	movzbl	(%rdx,%rax,1),%edx
	movq	TC_$UNIT6502_$$_CLOCKTICKS6502(%rip),%rax
	leaq	(%rdx,%rax),%rax
	movq	%rax,TC_$UNIT6502_$$_CLOCKTICKS6502(%rip)
.Ll122:
# [429] if (penaltyop<>0) and (penaltyaddr<>0) then  clockticks6502+=1;
	cmpb	$0,U_$UNIT6502_$$_PENALTYOP(%rip)
	je	.Lj253
	cmpb	$0,U_$UNIT6502_$$_PENALTYADDR(%rip)
	je	.Lj253
	movq	TC_$UNIT6502_$$_CLOCKTICKS6502(%rip),%rax
	leaq	1(%rax),%rax
	movq	%rax,TC_$UNIT6502_$$_CLOCKTICKS6502(%rip)
.Lj253:
.Ll123:
# [430] instructions+=1;
	movq	TC_$UNIT6502_$$_INSTRUCTIONS(%rip),%rax
	leaq	1(%rax),%rax
	movq	%rax,TC_$UNIT6502_$$_INSTRUCTIONS(%rip)
.Lj238:
.Ll124:
	movq	TC_$UNIT6502_$$_CLOCKTICKS6502(%rip),%rax
	cmpq	TC_$UNIT6502_$$_CLOCKGOAL6502(%rip),%rax
	jl	.Lj237
.Ll125:
# [432] end;
	nop
	leaq	40(%rsp),%rsp
	ret
.seh_endproc
.Lc48:
.Lt6:
.Ll126:

.section .text.n_unit6502_$$_fast6502$int64,"x"
	.balign 16,0x90
.globl	UNIT6502_$$_FAST6502$INT64
UNIT6502_$$_FAST6502$INT64:
.Lc50:
.seh_proc UNIT6502_$$_FAST6502$INT64
.Ll127:
# [436] begin
	leaq	-40(%rsp),%rsp
.Lc52:
.seh_stackalloc 40
# Var tickcount located in register rax
.seh_endprologue
	movq	%rcx,%rax
.Ll128:
# [437] clockgoal6502 += tickcount;
	movq	TC_$UNIT6502_$$_CLOCKGOAL6502(%rip),%rdx
	leaq	(%rdx,%rax),%rax
	movq	%rax,TC_$UNIT6502_$$_CLOCKGOAL6502(%rip)
.Ll129:
# [438] while (clockticks6502 < clockgoal6502) do
	jmp	.Lj264
	.balign 8,0x90
.Lj263:
.Ll130:
# [440] opcode := read6502(pc+cs^);
	movzwl	U_$UNIT6502_$$_PC(%rip),%edx
	movq	U_$UNIT6502_$$_CS(%rip),%rax
	movq	(%rax),%rax
	leaq	(%rdx,%rax),%rcx
	call	UNIT6502_$$_READ6502$INT64$$BYTE
	movb	%al,U_$UNIT6502_$$_OPCODE(%rip)
.Ll131:
# [441] pc+=1;
	movzwl	U_$UNIT6502_$$_PC(%rip),%eax
	leal	1(%eax),%eax
	movw	%ax,U_$UNIT6502_$$_PC(%rip)
.Ll132:
# [442] addrtable[opcode];
	movzbl	U_$UNIT6502_$$_OPCODE(%rip),%edx
	leaq	TC_$UNIT6502_$$_ADDRTABLE(%rip),%rax
	call	*(%rax,%rdx,8)
.Ll133:
# [443] optable[opcode];
	movzbl	U_$UNIT6502_$$_OPCODE(%rip),%eax
	leaq	TC_$UNIT6502_$$_OPTABLE(%rip),%rdx
	call	*(%rdx,%rax,8)
.Ll134:
# [444] clockticks6502 += 1;
	movq	TC_$UNIT6502_$$_CLOCKTICKS6502(%rip),%rax
	leaq	1(%rax),%rax
	movq	%rax,TC_$UNIT6502_$$_CLOCKTICKS6502(%rip)
.Ll135:
# [445] instructions+=1;
	movq	TC_$UNIT6502_$$_INSTRUCTIONS(%rip),%rax
	leaq	1(%rax),%rax
	movq	%rax,TC_$UNIT6502_$$_INSTRUCTIONS(%rip)
.Lj264:
.Ll136:
	movq	TC_$UNIT6502_$$_CLOCKTICKS6502(%rip),%rax
	cmpq	TC_$UNIT6502_$$_CLOCKGOAL6502(%rip),%rax
	jl	.Lj263
.Ll137:
# [447] end;
	nop
	leaq	40(%rsp),%rsp
	ret
.seh_endproc
.Lc51:
.Lt7:
.Ll138:

.section .text.n_unit6502_$$_step6502,"x"
	.balign 16,0x90
.globl	UNIT6502_$$_STEP6502
UNIT6502_$$_STEP6502:
.Lc53:
.seh_proc UNIT6502_$$_STEP6502
.Ll139:
# [451] begin
	leaq	-40(%rsp),%rsp
.Lc55:
.seh_stackalloc 40
.seh_endprologue
.Ll140:
# [452] opcode := read6502(pc+cs^);
	movzwl	U_$UNIT6502_$$_PC(%rip),%edx
	movq	U_$UNIT6502_$$_CS(%rip),%rax
	movq	(%rax),%rax
	leaq	(%rdx,%rax),%rcx
	call	UNIT6502_$$_READ6502$INT64$$BYTE
	movb	%al,U_$UNIT6502_$$_OPCODE(%rip)
.Ll141:
# [453] pc+=1;
	movzwl	U_$UNIT6502_$$_PC(%rip),%eax
	leal	1(%eax),%eax
	movw	%ax,U_$UNIT6502_$$_PC(%rip)
# PeepHole Optimization,var3
.Ll142:
# [454] status :=status or FLAG_CONSTANT;
	orb	$32,U_$UNIT6502_$$_STATUS(%rip)
.Ll143:
# [455] penaltyop := 0;
	movb	$0,U_$UNIT6502_$$_PENALTYOP(%rip)
.Ll144:
# [456] penaltyaddr := 0;
	movb	$0,U_$UNIT6502_$$_PENALTYADDR(%rip)
.Ll145:
# [457] addrtable[opcode];
	movzbl	U_$UNIT6502_$$_OPCODE(%rip),%eax
	leaq	TC_$UNIT6502_$$_ADDRTABLE(%rip),%rdx
	call	*(%rdx,%rax,8)
.Ll146:
# [458] optable[opcode];
	movzbl	U_$UNIT6502_$$_OPCODE(%rip),%edx
	leaq	TC_$UNIT6502_$$_OPTABLE(%rip),%rax
	call	*(%rax,%rdx,8)
.Ll147:
# [459] clockticks6502 += ticktable[opcode];
	movzbl	U_$UNIT6502_$$_OPCODE(%rip),%eax
	leaq	TC_$UNIT6502_$$_TICKTABLE(%rip),%rdx
	movzbl	(%rdx,%rax,1),%edx
	movq	TC_$UNIT6502_$$_CLOCKTICKS6502(%rip),%rax
	leaq	(%rdx,%rax),%rax
	movq	%rax,TC_$UNIT6502_$$_CLOCKTICKS6502(%rip)
.Ll148:
# [460] if (penaltyop<>0) and (penaltyaddr<>0) then clockticks6502+=1;
	cmpb	$0,U_$UNIT6502_$$_PENALTYOP(%rip)
	je	.Lj293
	cmpb	$0,U_$UNIT6502_$$_PENALTYADDR(%rip)
	je	.Lj293
	movq	TC_$UNIT6502_$$_CLOCKTICKS6502(%rip),%rax
	leaq	1(%rax),%rax
	movq	%rax,TC_$UNIT6502_$$_CLOCKTICKS6502(%rip)
.Lj293:
.Ll149:
# [461] clockgoal6502 := clockticks6502;
	movq	TC_$UNIT6502_$$_CLOCKTICKS6502(%rip),%rax
	movq	%rax,TC_$UNIT6502_$$_CLOCKGOAL6502(%rip)
.Ll150:
# [462] instructions+=1;
	movq	TC_$UNIT6502_$$_INSTRUCTIONS(%rip),%rax
	leaq	1(%rax),%rax
	movq	%rax,TC_$UNIT6502_$$_INSTRUCTIONS(%rip)
.Ll151:
# [463] end;
	nop
	leaq	40(%rsp),%rsp
	ret
.seh_endproc
.Lc54:
.Lt8:
.Ll152:

.section .text.n_unit6502_$$_jsr6502$word$int64,"x"
	.balign 16,0x90
.globl	UNIT6502_$$_JSR6502$WORD$INT64
UNIT6502_$$_JSR6502$WORD$INT64:
.Lc56:
.seh_proc UNIT6502_$$_JSR6502$WORD$INT64
.Ll153:
# [470] begin
	pushq	%rbx
.seh_pushreg %rbx
	leaq	-32(%rsp),%rsp
.Lc58:
.seh_stackalloc 32
# Var aa located in register cx
# Var addr located in register rdx
# Var depth located in register ebx
.seh_endprologue
.Ll154:
# [472] pc:=addr;
	movw	%dx,U_$UNIT6502_$$_PC(%rip)
.Ll155:
# [473] sp := $FD;
	movb	$253,U_$UNIT6502_$$_SP(%rip)
# Var depth located in register ebx
.Ll156:
# [474] depth:=0;
	movl	$0,%ebx
.Ll157:
# [475] if aa<256 then begin a:=aa; x:=0; y:=0; status:=0; end;
	cmpw	$256,%cx
	jnb	.Lj310
	movb	%cl,U_$UNIT6502_$$_A(%rip)
	movb	$0,U_$UNIT6502_$$_X(%rip)
	movb	$0,U_$UNIT6502_$$_Y(%rip)
	movb	$0,U_$UNIT6502_$$_STATUS(%rip)
.Lj310:
.Ll158:
# [476] instructions:=0;
	movq	$0,TC_$UNIT6502_$$_INSTRUCTIONS(%rip)
	.balign 8,0x90
.Lj321:
.Ll159:
# [478] opcode := read6502(pc+cs^);
	movzwl	U_$UNIT6502_$$_PC(%rip),%edx
	movq	U_$UNIT6502_$$_CS(%rip),%rax
	movq	(%rax),%rax
	leaq	(%rdx,%rax),%rcx
	call	UNIT6502_$$_READ6502$INT64$$BYTE
	movb	%al,U_$UNIT6502_$$_OPCODE(%rip)
.Ll160:
# [479] if opcode=$20 then inc(depth);
	cmpb	$32,U_$UNIT6502_$$_OPCODE(%rip)
	jne	.Lj329
	addl	$1,%ebx
.Lj329:
.Ll161:
# [480] if opcode=$60 then dec(depth);
	cmpb	$96,U_$UNIT6502_$$_OPCODE(%rip)
	jne	.Lj331
	subl	$1,%ebx
.Lj331:
.Ll162:
# [482] pc+=1;
	movzwl	U_$UNIT6502_$$_PC(%rip),%eax
	leal	1(%eax),%eax
	movw	%ax,U_$UNIT6502_$$_PC(%rip)
.Ll163:
# [483] addrtable[opcode];
	movzbl	U_$UNIT6502_$$_OPCODE(%rip),%eax
	leaq	TC_$UNIT6502_$$_ADDRTABLE(%rip),%rdx
	call	*(%rdx,%rax,8)
.Ll164:
# [484] optable[opcode];
	movzbl	U_$UNIT6502_$$_OPCODE(%rip),%edx
	leaq	TC_$UNIT6502_$$_OPTABLE(%rip),%rax
	call	*(%rax,%rdx,8)
.Ll165:
# [485] instructions+=1;
	movq	TC_$UNIT6502_$$_INSTRUCTIONS(%rip),%rax
	leaq	1(%rax),%rax
	movq	%rax,TC_$UNIT6502_$$_INSTRUCTIONS(%rip)
.Ll166:
# [487] until (depth<0) or (instructions>3000);
	cmpl	$0,%ebx
	jl	.Lj323
	cmpq	$3000,TC_$UNIT6502_$$_INSTRUCTIONS(%rip)
	jng	.Lj321
.Lj323:
.Ll167:
# [489] end;
	nop
	leaq	32(%rsp),%rsp
	popq	%rbx
	ret
.seh_endproc
.Lc57:
.Lt9:
.Ll168:

.section .text.n_unit6502_$$_imp,"x"
	.balign 16,0x90
.globl	UNIT6502_$$_IMP
UNIT6502_$$_IMP:
.Lc59:
# [495] begin
.Ll169:
# [496] end;
	ret
.Lc60:
.Lt10:
.Ll170:

.section .text.n_unit6502_$$_acc,"x"
	.balign 16,0x90
.globl	UNIT6502_$$_ACC
UNIT6502_$$_ACC:
.Lc61:
# [500] begin
.Ll171:
# [501] end;
	ret
.Lc62:
.Lt14:
.Ll172:

.section .text.n_unit6502_$$_imm,"x"
	.balign 16,0x90
.globl	UNIT6502_$$_IMM
UNIT6502_$$_IMM:
.Lc63:
# [505] begin
.Ll173:
# [506] ea := pc;
	movw	U_$UNIT6502_$$_PC(%rip),%ax
	movw	%ax,U_$UNIT6502_$$_EA(%rip)
.Ll174:
# [507] inc(pc);
	addw	$1,U_$UNIT6502_$$_PC(%rip)
.Ll175:
# [508] end;
	ret
.Lc64:
.Lt13:
.Ll176:

.section .text.n_unit6502_$$_zp,"x"
	.balign 16,0x90
.globl	UNIT6502_$$_ZP
UNIT6502_$$_ZP:
.Lc65:
.seh_proc UNIT6502_$$_ZP
.Ll177:
# [512] begin
	leaq	-40(%rsp),%rsp
.Lc67:
.seh_stackalloc 40
.seh_endprologue
.Ll178:
# [513] ea := word(read6502(pc));
	movzwl	U_$UNIT6502_$$_PC(%rip),%eax
	movq	%rax,%rcx
	call	UNIT6502_$$_READ6502$INT64$$BYTE
# PeepHole Optimization,var7
	andw	$255,%ax
	movw	%ax,U_$UNIT6502_$$_EA(%rip)
.Ll179:
# [514] inc(pc);
	addw	$1,U_$UNIT6502_$$_PC(%rip)
.Ll180:
# [515] end;
	nop
	leaq	40(%rsp),%rsp
	ret
.seh_endproc
.Lc66:
.Lt12:
.Ll181:

.section .text.n_unit6502_$$_zpx,"x"
	.balign 16,0x90
.globl	UNIT6502_$$_ZPX
UNIT6502_$$_ZPX:
.Lc68:
.seh_proc UNIT6502_$$_ZPX
.Ll182:
# [519] begin
	leaq	-40(%rsp),%rsp
.Lc70:
.seh_stackalloc 40
.seh_endprologue
.Ll183:
# [520] ea := ((read6502(pc)+x) and $FF); //zero-page wraparound
	movzwl	U_$UNIT6502_$$_PC(%rip),%eax
	movq	%rax,%rcx
	call	UNIT6502_$$_READ6502$INT64$$BYTE
# PeepHole Optimization,var9
	andl	$255,%eax
	movzbl	U_$UNIT6502_$$_X(%rip),%edx
	leal	(%eax,%edx),%eax
	andl	$255,%eax
	movw	%ax,U_$UNIT6502_$$_EA(%rip)
.Ll184:
# [521] inc(pc)
	addw	$1,U_$UNIT6502_$$_PC(%rip)
.Ll185:
# [522] end;
	nop
	leaq	40(%rsp),%rsp
	ret
.seh_endproc
.Lc69:
.Lt21:
.Ll186:

.section .text.n_unit6502_$$_zpy,"x"
	.balign 16,0x90
.globl	UNIT6502_$$_ZPY
UNIT6502_$$_ZPY:
.Lc71:
.seh_proc UNIT6502_$$_ZPY
.Ll187:
# [526] begin
	leaq	-40(%rsp),%rsp
.Lc73:
.seh_stackalloc 40
.seh_endprologue
.Ll188:
# [527] ea := ((read6502(pc)+y) and $FF); //zero-page wraparound
	movzwl	U_$UNIT6502_$$_PC(%rip),%eax
	movq	%rax,%rcx
	call	UNIT6502_$$_READ6502$INT64$$BYTE
# PeepHole Optimization,var9
	andl	$255,%eax
	movzbl	U_$UNIT6502_$$_Y(%rip),%edx
	leal	(%eax,%edx),%eax
	andl	$255,%eax
	movw	%ax,U_$UNIT6502_$$_EA(%rip)
.Ll189:
# [528] inc(pc)
	addw	$1,U_$UNIT6502_$$_PC(%rip)
.Ll190:
# [529] end;
	nop
	leaq	40(%rsp),%rsp
	ret
.seh_endproc
.Lc72:
.Lt22:
.Ll191:

.section .text.n_unit6502_$$_rel,"x"
	.balign 16,0x90
.globl	UNIT6502_$$_REL
UNIT6502_$$_REL:
.Lc74:
.seh_proc UNIT6502_$$_REL
.Ll192:
# [533] begin
	leaq	-40(%rsp),%rsp
.Lc76:
.seh_stackalloc 40
.seh_endprologue
.Ll193:
# [534] reladdr := word(read6502(pc));
	movzwl	U_$UNIT6502_$$_PC(%rip),%eax
	movq	%rax,%rcx
	call	UNIT6502_$$_READ6502$INT64$$BYTE
# PeepHole Optimization,var7
	andw	$255,%ax
	movw	%ax,U_$UNIT6502_$$_RELADDR(%rip)
.Ll194:
# [535] inc(pc);
	addw	$1,U_$UNIT6502_$$_PC(%rip)
.Ll195:
# [536] if (reladdr and $80)<>0 then reladdr:=reladdr or $FF00;
	movw	U_$UNIT6502_$$_RELADDR(%rip),%ax
	andw	$128,%ax
	testw	%ax,%ax
	je	.Lj370
# PeepHole Optimization,var2
# P=movw
# HP1=orw
# HP2=movw
# PeepHole Optimization,var2
	orw	$65280,U_$UNIT6502_$$_RELADDR(%rip)
.Lj370:
.Ll196:
# [537] end;
	nop
	leaq	40(%rsp),%rsp
	ret
.seh_endproc
.Lc75:
.Lt16:
.Ll197:

.section .text.n_unit6502_$$_abso,"x"
	.balign 16,0x90
.globl	UNIT6502_$$_ABSO
UNIT6502_$$_ABSO:
.Lc77:
.seh_proc UNIT6502_$$_ABSO
.Ll198:
# [541] begin
	pushq	%rbx
.seh_pushreg %rbx
	leaq	-32(%rsp),%rsp
.Lc79:
.seh_stackalloc 32
.seh_endprologue
.Ll199:
# [542] ea := word(read6502(pc)) or (word(read6502(pc+1)) shl 8);
	movzwl	U_$UNIT6502_$$_PC(%rip),%eax
	movq	%rax,%rcx
	call	UNIT6502_$$_READ6502$INT64$$BYTE
	movb	%al,%bl
# PeepHole Optimization,var7
# PeepHole Optimization,var1
# PeepHole Optimization,var11
	andl	$255,%ebx
	movzwl	U_$UNIT6502_$$_PC(%rip),%eax
	leaq	1(%rax),%rcx
	call	UNIT6502_$$_READ6502$INT64$$BYTE
# PeepHole Optimization,var7
# PeepHole Optimization,var1
# PeepHole Optimization,var11
	andl	$255,%eax
	shll	$8,%eax
	orl	%ebx,%eax
	movw	%ax,U_$UNIT6502_$$_EA(%rip)
.Ll200:
# [543] pc += 2;
	movzwl	U_$UNIT6502_$$_PC(%rip),%eax
	leal	2(%eax),%eax
	movw	%ax,U_$UNIT6502_$$_PC(%rip)
.Ll201:
# [544] end;
	nop
	leaq	32(%rsp),%rsp
	popq	%rbx
	ret
.seh_endproc
.Lc78:
.Lt15:
.Ll202:

.section .text.n_unit6502_$$_absx,"x"
	.balign 16,0x90
.globl	UNIT6502_$$_ABSX
UNIT6502_$$_ABSX:
.Lc80:
.seh_proc UNIT6502_$$_ABSX
.Ll203:
# [550] begin
	pushq	%rbx
.seh_pushreg %rbx
	leaq	-32(%rsp),%rsp
.Lc82:
.seh_stackalloc 32
# Var startpage located in register ax
.seh_endprologue
.Ll204:
# [551] ea := word(read6502(pc)) or (word(read6502(pc+1)) shl 8);
	movzwl	U_$UNIT6502_$$_PC(%rip),%ecx
	call	UNIT6502_$$_READ6502$INT64$$BYTE
	movb	%al,%bl
# PeepHole Optimization,var7
# PeepHole Optimization,var1
# PeepHole Optimization,var11
	andl	$255,%ebx
	movzwl	U_$UNIT6502_$$_PC(%rip),%eax
	leaq	1(%rax),%rcx
	call	UNIT6502_$$_READ6502$INT64$$BYTE
# PeepHole Optimization,var7
# PeepHole Optimization,var1
# PeepHole Optimization,var11
	andl	$255,%eax
	shll	$8,%eax
	orl	%ebx,%eax
# PeepHole Optimization,MovMov2Mov1
	movw	%ax,U_$UNIT6502_$$_EA(%rip)
.Ll205:
# [552] startpage := ea and $FF00;
	andw	$65280,%ax
# Var startpage located in register ax
.Ll206:
# [553] ea += x;
	movzwl	U_$UNIT6502_$$_EA(%rip),%ecx
	movzbl	U_$UNIT6502_$$_X(%rip),%edx
	leal	(%ecx,%edx),%edx
# PeepHole Optimization,MovMov2Mov1
	movw	%dx,U_$UNIT6502_$$_EA(%rip)
.Ll207:
# [554] if (startpage <> (ea and $FF00)) then penaltyaddr := 1;   //one cycle penlty for page-crossing on some opcodes
	andw	$65280,%dx
	cmpw	%ax,%dx
	je	.Lj396
	movb	$1,U_$UNIT6502_$$_PENALTYADDR(%rip)
.Lj396:
.Ll208:
# [555] pc += 2;
	movzwl	U_$UNIT6502_$$_PC(%rip),%eax
	leal	2(%eax),%eax
	movw	%ax,U_$UNIT6502_$$_PC(%rip)
.Ll209:
# [556] end;
	nop
	leaq	32(%rsp),%rsp
	popq	%rbx
	ret
.seh_endproc
.Lc81:
.Lt19:
.Ll210:

.section .text.n_unit6502_$$_absy,"x"
	.balign 16,0x90
.globl	UNIT6502_$$_ABSY
UNIT6502_$$_ABSY:
.Lc83:
.seh_proc UNIT6502_$$_ABSY
.Ll211:
# [562] begin
	pushq	%rbx
.seh_pushreg %rbx
	leaq	-32(%rsp),%rsp
.Lc85:
.seh_stackalloc 32
# Var startpage located in register ax
.seh_endprologue
.Ll212:
# [563] ea := word(read6502(pc)) or (word(read6502(pc+1)) shl 8);
	movzwl	U_$UNIT6502_$$_PC(%rip),%ecx
	call	UNIT6502_$$_READ6502$INT64$$BYTE
	movb	%al,%bl
# PeepHole Optimization,var7
# PeepHole Optimization,var1
# PeepHole Optimization,var11
	andl	$255,%ebx
	movzwl	U_$UNIT6502_$$_PC(%rip),%eax
	leaq	1(%rax),%rcx
	call	UNIT6502_$$_READ6502$INT64$$BYTE
# PeepHole Optimization,var7
# PeepHole Optimization,var1
# PeepHole Optimization,var11
	andl	$255,%eax
	shll	$8,%eax
	orl	%ebx,%eax
# PeepHole Optimization,MovMov2Mov1
	movw	%ax,U_$UNIT6502_$$_EA(%rip)
.Ll213:
# [564] startpage := ea and $FF00;
	andw	$65280,%ax
# Var startpage located in register ax
.Ll214:
# [565] ea += y;
	movzwl	U_$UNIT6502_$$_EA(%rip),%ecx
	movzbl	U_$UNIT6502_$$_Y(%rip),%edx
	leal	(%ecx,%edx),%edx
# PeepHole Optimization,MovMov2Mov1
	movw	%dx,U_$UNIT6502_$$_EA(%rip)
.Ll215:
# [566] if (startpage <> (ea and $FF00)) then penaltyaddr := 1; //one cycle penlty for page-crossing on some opcodes
	andw	$65280,%dx
	cmpw	%ax,%dx
	je	.Lj414
	movb	$1,U_$UNIT6502_$$_PENALTYADDR(%rip)
.Lj414:
.Ll216:
# [567] pc += 2;
	movzwl	U_$UNIT6502_$$_PC(%rip),%eax
	leal	2(%eax),%eax
	movw	%ax,U_$UNIT6502_$$_PC(%rip)
.Ll217:
# [568] end;
	nop
	leaq	32(%rsp),%rsp
	popq	%rbx
	ret
.seh_endproc
.Lc84:
.Lt18:
.Ll218:

.section .text.n_unit6502_$$_ind,"x"
	.balign 16,0x90
.globl	UNIT6502_$$_IND
UNIT6502_$$_IND:
.Lc86:
.seh_proc UNIT6502_$$_IND
.Ll219:
# [574] begin
	pushq	%rbx
.seh_pushreg %rbx
	pushq	%rsi
.seh_pushreg %rsi
	leaq	-40(%rsp),%rsp
.Lc88:
.seh_stackalloc 40
# Var eahelp located in register cx
# Var eahelp2 located in register bx
.seh_endprologue
.Ll220:
# [575] eahelp := word(read6502(pc)) or (word(read6502(pc+1)) shl 8);
	movzwl	U_$UNIT6502_$$_PC(%rip),%ecx
	call	UNIT6502_$$_READ6502$INT64$$BYTE
	movb	%al,%bl
# PeepHole Optimization,var7
# PeepHole Optimization,var1
# PeepHole Optimization,var11
	andl	$255,%ebx
	movzwl	U_$UNIT6502_$$_PC(%rip),%eax
	leaq	1(%rax),%rcx
	call	UNIT6502_$$_READ6502$INT64$$BYTE
	movb	%al,%cl
# PeepHole Optimization,var7
# PeepHole Optimization,var1
# PeepHole Optimization,var11
	andl	$255,%ecx
	shll	$8,%ecx
	orl	%ebx,%ecx
# Var eahelp located in register cx
.Ll221:
# [576] eahelp2 := (eahelp and $FF00) or ((eahelp + 1) and $00FF); //replicate 6502 page-boundary wraparound bug
	movzwl	%cx,%eax
	leal	1(%eax),%eax
	andl	$255,%eax
	movw	%cx,%bx
# PeepHole Optimization,var1
# PeepHole Optimization,var11
	andl	$65280,%ebx
	orl	%eax,%ebx
# Var eahelp2 located in register bx
# PeepHole Optimization,var11
.Ll222:
# [577] ea := word(read6502(eahelp)) or (word(read6502(eahelp2)) shl 8);
	andl	$65535,%ecx
	call	UNIT6502_$$_READ6502$INT64$$BYTE
	movb	%al,%sil
# PeepHole Optimization,var7
# PeepHole Optimization,var1
# PeepHole Optimization,var11
	andl	$255,%esi
	movzwl	%bx,%ecx
	call	UNIT6502_$$_READ6502$INT64$$BYTE
# PeepHole Optimization,var7
# PeepHole Optimization,var1
# PeepHole Optimization,var11
	andl	$255,%eax
	shll	$8,%eax
	orl	%esi,%eax
	movw	%ax,U_$UNIT6502_$$_EA(%rip)
.Ll223:
# [580] pc += 2;
	movzwl	U_$UNIT6502_$$_PC(%rip),%eax
	leal	2(%eax),%eax
	movw	%ax,U_$UNIT6502_$$_PC(%rip)
.Ll224:
# [581] end;
	nop
	leaq	40(%rsp),%rsp
	popq	%rsi
	popq	%rbx
	ret
.seh_endproc
.Lc87:
.Lt20:
.Ll225:

.section .text.n_unit6502_$$_izp,"x"
	.balign 16,0x90
.globl	UNIT6502_$$_IZP
UNIT6502_$$_IZP:
.Lc89:
.seh_proc UNIT6502_$$_IZP
.Ll226:
# [587] begin
	pushq	%rbx
.seh_pushreg %rbx
	pushq	%rsi
.seh_pushreg %rsi
	leaq	-40(%rsp),%rsp
.Lc91:
.seh_stackalloc 40
# Var eahelp located in register bx
.seh_endprologue
.Ll227:
# [588] eahelp := word(read6502(pc)) and $FF; //zero-page wraparound for table pointer
	movzwl	U_$UNIT6502_$$_PC(%rip),%ecx
	call	UNIT6502_$$_READ6502$INT64$$BYTE
	movb	%al,%bl
# PeepHole Optimization,var4
# PeepHole Optimization,var7
	andw	$255,%bx
# Var eahelp located in register bx
.Ll228:
# [589] inc(pc);
	addw	$1,U_$UNIT6502_$$_PC(%rip)
.Ll229:
# [590] ea := word(read6502(eahelp and $00FF)) or (word(read6502((eahelp+1) and $00FF)) shl 8);
	movw	%bx,%cx
# PeepHole Optimization,var1
# PeepHole Optimization,var11
	andl	$255,%ecx
	call	UNIT6502_$$_READ6502$INT64$$BYTE
	movb	%al,%sil
# PeepHole Optimization,var7
# PeepHole Optimization,var1
# PeepHole Optimization,var11
	andl	$255,%esi
# PeepHole Optimization,var11
	andl	$65535,%ebx
	leaq	1(%rbx),%rcx
	andq	$255,%rcx
	call	UNIT6502_$$_READ6502$INT64$$BYTE
# PeepHole Optimization,var7
# PeepHole Optimization,var1
# PeepHole Optimization,var11
	andl	$255,%eax
	shll	$8,%eax
	orl	%esi,%eax
	movw	%ax,U_$UNIT6502_$$_EA(%rip)
.Ll230:
# [591] end;
	nop
	leaq	40(%rsp),%rsp
	popq	%rsi
	popq	%rbx
	ret
.seh_endproc
.Lc90:
.Lt23:
.Ll231:

.section .text.n_unit6502_$$_indx,"x"
	.balign 16,0x90
.globl	UNIT6502_$$_INDX
UNIT6502_$$_INDX:
.Lc92:
.seh_proc UNIT6502_$$_INDX
.Ll232:
# [598] begin
	pushq	%rbx
.seh_pushreg %rbx
	pushq	%rsi
.seh_pushreg %rsi
	leaq	-40(%rsp),%rsp
.Lc94:
.seh_stackalloc 40
# Var eahelp located in register bx
.seh_endprologue
.Ll233:
# [599] eahelp := (word(read6502(pc) + x) and $FF); //zero-page wraparound for table pointer
	movzwl	U_$UNIT6502_$$_PC(%rip),%ecx
	call	UNIT6502_$$_READ6502$INT64$$BYTE
# PeepHole Optimization,var9
	andl	$255,%eax
	movzbl	U_$UNIT6502_$$_X(%rip),%edx
	leal	(%eax,%edx),%ebx
	andw	$255,%bx
# Var eahelp located in register bx
.Ll234:
# [600] inc(pc);
	addw	$1,U_$UNIT6502_$$_PC(%rip)
.Ll235:
# [601] ea := word(read6502(eahelp and $00FF)) or (word(read6502((eahelp+1) and $00FF)) shl 8);
	movw	%bx,%cx
# PeepHole Optimization,var1
# PeepHole Optimization,var11
	andl	$255,%ecx
	call	UNIT6502_$$_READ6502$INT64$$BYTE
	movb	%al,%sil
# PeepHole Optimization,var7
# PeepHole Optimization,var1
# PeepHole Optimization,var11
	andl	$255,%esi
# PeepHole Optimization,var11
	andl	$65535,%ebx
	leaq	1(%rbx),%rcx
	andq	$255,%rcx
	call	UNIT6502_$$_READ6502$INT64$$BYTE
# PeepHole Optimization,var7
# PeepHole Optimization,var1
# PeepHole Optimization,var11
	andl	$255,%eax
	shll	$8,%eax
	orl	%esi,%eax
	movw	%ax,U_$UNIT6502_$$_EA(%rip)
.Ll236:
# [602] end;
	nop
	leaq	40(%rsp),%rsp
	popq	%rsi
	popq	%rbx
	ret
.seh_endproc
.Lc93:
.Lt11:
.Ll237:

.section .text.n_unit6502_$$_iax,"x"
	.balign 16,0x90
.globl	UNIT6502_$$_IAX
UNIT6502_$$_IAX:
.Lc95:
.seh_proc UNIT6502_$$_IAX
.Ll238:
# [608] begin
	pushq	%rbx
.seh_pushreg %rbx
	pushq	%rsi
.seh_pushreg %rsi
	leaq	-40(%rsp),%rsp
.Lc97:
.seh_stackalloc 40
# Var eahelp located in register bx
.seh_endprologue
.Ll239:
# [609] eahelp := word(read6502(pc))+(word(read6502(pc+1) shl 8)+ y); //zero-page wraparound for table pointer
	movzwl	U_$UNIT6502_$$_PC(%rip),%ecx
	call	UNIT6502_$$_READ6502$INT64$$BYTE
	movb	%al,%bl
# PeepHole Optimization,var7
# PeepHole Optimization,var1
# PeepHole Optimization,var11
	andl	$255,%ebx
	movzwl	U_$UNIT6502_$$_PC(%rip),%eax
	leaq	1(%rax),%rcx
	call	UNIT6502_$$_READ6502$INT64$$BYTE
# PeepHole Optimization,var9
	andl	$255,%eax
	shll	$8,%eax
# PeepHole Optimization,var11
	andl	$65535,%eax
	movzbl	U_$UNIT6502_$$_Y(%rip),%edx
	leal	(%eax,%edx),%eax
	leal	(%ebx,%eax),%ebx
# Var eahelp located in register bx
.Ll240:
# [610] pc+=2;
	movzwl	U_$UNIT6502_$$_PC(%rip),%eax
	leal	2(%eax),%eax
	movw	%ax,U_$UNIT6502_$$_PC(%rip)
.Ll241:
# [611] ea := word(read6502(eahelp and $00FF)) or (word(read6502((eahelp+1) and $00FF)) shl 8);
	movw	%bx,%cx
# PeepHole Optimization,var1
# PeepHole Optimization,var11
	andl	$255,%ecx
	call	UNIT6502_$$_READ6502$INT64$$BYTE
	movb	%al,%sil
# PeepHole Optimization,var7
# PeepHole Optimization,var1
# PeepHole Optimization,var11
	andl	$255,%esi
# PeepHole Optimization,var11
	andl	$65535,%ebx
	leaq	1(%rbx),%rcx
	andq	$255,%rcx
	call	UNIT6502_$$_READ6502$INT64$$BYTE
# PeepHole Optimization,var7
# PeepHole Optimization,var1
# PeepHole Optimization,var11
	andl	$255,%eax
	shll	$8,%eax
	orl	%esi,%eax
	movw	%ax,U_$UNIT6502_$$_EA(%rip)
.Ll242:
# [612] end;
	nop
	leaq	40(%rsp),%rsp
	popq	%rsi
	popq	%rbx
	ret
.seh_endproc
.Lc96:
.Lt24:
.Ll243:

.section .text.n_unit6502_$$_indy,"x"
	.balign 16,0x90
.globl	UNIT6502_$$_INDY
UNIT6502_$$_INDY:
.Lc98:
.seh_proc UNIT6502_$$_INDY
.Ll244:
# [618] begin
	pushq	%rbx
.seh_pushreg %rbx
	pushq	%rsi
.seh_pushreg %rsi
	leaq	-40(%rsp),%rsp
.Lc100:
.seh_stackalloc 40
# Var eahelp located in register cx
# Var eahelp2 located in register bx
# Var startpage located in register ax
.seh_endprologue
.Ll245:
# [619] eahelp := word(read6502(pc));
	movzwl	U_$UNIT6502_$$_PC(%rip),%ecx
	call	UNIT6502_$$_READ6502$INT64$$BYTE
	movb	%al,%cl
# PeepHole Optimization,var7
	andw	$255,%cx
# Var eahelp located in register cx
.Ll246:
# [620] inc(pc);
	addw	$1,U_$UNIT6502_$$_PC(%rip)
.Ll247:
# [621] eahelp2 := (eahelp and $FF00) or ((eahelp + 1) and $00FF); //zero-page wraparound
	movzwl	%cx,%eax
	leal	1(%eax),%eax
	andl	$255,%eax
	movw	%cx,%bx
# PeepHole Optimization,var1
# PeepHole Optimization,var11
	andl	$65280,%ebx
	orl	%eax,%ebx
# Var eahelp2 located in register bx
# PeepHole Optimization,var11
.Ll248:
# [622] ea := word(read6502(eahelp)) or (word(read6502(eahelp2)) shl 8);
	andl	$65535,%ecx
	call	UNIT6502_$$_READ6502$INT64$$BYTE
	movb	%al,%sil
# PeepHole Optimization,var7
# PeepHole Optimization,var1
# PeepHole Optimization,var11
	andl	$255,%esi
	movzwl	%bx,%ecx
	call	UNIT6502_$$_READ6502$INT64$$BYTE
# PeepHole Optimization,var7
# PeepHole Optimization,var1
# PeepHole Optimization,var11
	andl	$255,%eax
	shll	$8,%eax
	orl	%esi,%eax
# PeepHole Optimization,MovMov2Mov1
	movw	%ax,U_$UNIT6502_$$_EA(%rip)
.Ll249:
# [623] startpage := ea and $FF00;
	andw	$65280,%ax
# Var startpage located in register ax
.Ll250:
# [624] ea += y;
	movzwl	U_$UNIT6502_$$_EA(%rip),%edx
	movzbl	U_$UNIT6502_$$_Y(%rip),%ecx
	leal	(%edx,%ecx),%edx
# PeepHole Optimization,MovMov2Mov1
	movw	%dx,U_$UNIT6502_$$_EA(%rip)
.Ll251:
# [625] if (startpage <> (ea and $FF00)) then penaltyaddr := 1; //one cycle penlty for page-crossing on some opcodes
	andw	$65280,%dx
	cmpw	%ax,%dx
	je	.Lj496
	movb	$1,U_$UNIT6502_$$_PENALTYADDR(%rip)
.Lj496:
.Ll252:
# [626] end;
	nop
	leaq	40(%rsp),%rsp
	popq	%rsi
	popq	%rbx
	ret
.seh_endproc
.Lc99:
.Lt17:
.Ll253:

.section .text.n_unit6502_$$_adc,"x"
	.balign 16,0x90
.globl	UNIT6502_$$_ADC
UNIT6502_$$_ADC:
.Lc101:
.seh_proc UNIT6502_$$_ADC
.Ll254:
# [634] begin
	leaq	-40(%rsp),%rsp
.Lc103:
.seh_stackalloc 40
.seh_endprologue
.Ll255:
# [635] penaltyop := 1;
	movb	$1,U_$UNIT6502_$$_PENALTYOP(%rip)
.Ll256:
# [636] value := getvalue;
	call	UNIT6502_$$_GETVALUE$$WORD
	movw	%ax,U_$UNIT6502_$$_VALUE(%rip)
.Ll257:
# [637] aresult := word(value)+a+(status and FLAG_CARRY);
	movzwl	U_$UNIT6502_$$_VALUE(%rip),%eax
	movzbl	U_$UNIT6502_$$_A(%rip),%edx
	leal	(%eax,%edx),%edx
# PeepHole Optimization,var15
	movw	U_$UNIT6502_$$_STATUS(%rip),%ax
	andw	$1,%ax
	movswl	%ax,%eax
	leal	(%edx,%eax),%eax
# PeepHole Optimization,MovMov2Mov1
	movw	%ax,U_$UNIT6502_$$_ARESULT(%rip)
.Ll258:
# [638] if (aresult and $FF00) <>0 then setcarry else clearcarry;
	andw	$65280,%ax
	testw	%ax,%ax
	je	.Lj508
# PeepHole Optimization,var3
.Ll259:
# [217] {$define setcarry:= status :=status or FLAG_CARRY}
	orb	$1,U_$UNIT6502_$$_STATUS(%rip)
	jmp	.Lj511
.Lj508:
# PeepHole Optimization,var3
.Ll260:
# [218] {$define clearcarry:= status := status and not(FLAG_CARRY)}
	andb	$-2,U_$UNIT6502_$$_STATUS(%rip)
.Lj511:
.Ll261:
# [639] if (aresult and $00FF)<>0 then clearzero else setzero;
	movw	U_$UNIT6502_$$_ARESULT(%rip),%ax
	andw	$255,%ax
	testw	%ax,%ax
	je	.Lj515
# PeepHole Optimization,var3
.Ll262:
# [220] {$define clearzero:= status:= status and not(FLAG_ZERO)}
	andb	$-3,U_$UNIT6502_$$_STATUS(%rip)
	jmp	.Lj518
.Lj515:
# PeepHole Optimization,var3
.Ll263:
# [219] {$define setzero:= status :=status or FLAG_ZERO}
	orb	$2,U_$UNIT6502_$$_STATUS(%rip)
.Lj518:
.Ll264:
# [640] if ((aresult xor a) and (aresult xor value) and $0080)<>0 then
	movzbw	U_$UNIT6502_$$_A(%rip),%dx
	movw	U_$UNIT6502_$$_ARESULT(%rip),%ax
	xorw	%dx,%ax
	movw	U_$UNIT6502_$$_ARESULT(%rip),%cx
	movw	U_$UNIT6502_$$_VALUE(%rip),%dx
	xorw	%cx,%dx
	andw	%ax,%dx
	andw	$128,%dx
	testw	%dx,%dx
	je	.Lj522
# PeepHole Optimization,var3
.Ll265:
# [225] {$define setoverflow:= status :=status or FLAG_OVERFLOW}
	orb	$64,U_$UNIT6502_$$_STATUS(%rip)
	jmp	.Lj525
.Lj522:
# PeepHole Optimization,var3
.Ll266:
# [226] {$define clearoverflow:= status := status and not(FLAG_OVERFLOW)}
	andb	$-65,U_$UNIT6502_$$_STATUS(%rip)
.Lj525:
.Ll267:
# [644] if (aresult and $0080)<>0 then setsign else clearsign;
	movw	U_$UNIT6502_$$_ARESULT(%rip),%ax
	andw	$128,%ax
	testw	%ax,%ax
	je	.Lj529
# PeepHole Optimization,var2
# P=movb
# HP1=orb
# HP2=movb
# PeepHole Optimization,var2
.Ll268:
# [227] {$define setsign:= status :=status or FLAG_SIGN}
	orb	$128,U_$UNIT6502_$$_STATUS(%rip)
	jmp	.Lj532
.Lj529:
# PeepHole Optimization,var3
.Ll269:
# [228] {$define clearsign:= status := status and not(FLAG_SIGN)}
	andb	$-129,U_$UNIT6502_$$_STATUS(%rip)
.Lj532:
# PeepHole Optimization,var15
.Ll270:
# [645] if (status and FLAG_DECIMAL)<>0 then
	movw	U_$UNIT6502_$$_STATUS(%rip),%ax
	andw	$8,%ax
	testw	%ax,%ax
	je	.Lj536
.Ll271:
# [647] inc(clockticks6502);
	addq	$1,TC_$UNIT6502_$$_CLOCKTICKS6502(%rip)
# PeepHole Optimization,var3
.Ll272:
	andb	$-2,U_$UNIT6502_$$_STATUS(%rip)
# PeepHole Optimization,var15
.Ll273:
# [649] if ((a and $0F) > $09) then a += $06;
	movw	U_$UNIT6502_$$_A(%rip),%ax
	andw	$15,%ax
	cmpw	$9,%ax
	jng	.Lj540
	movzbl	U_$UNIT6502_$$_A(%rip),%eax
	leal	6(%eax),%eax
	movb	%al,U_$UNIT6502_$$_A(%rip)
.Lj540:
.Ll274:
# [650] if ((a and $F0) > $90) then
	movb	U_$UNIT6502_$$_A(%rip),%al
	andb	$240,%al
	cmpb	$144,%al
	jna	.Lj544
.Ll275:
# [652] a += $60;
	movzbl	U_$UNIT6502_$$_A(%rip),%eax
	leal	96(%eax),%eax
	movb	%al,U_$UNIT6502_$$_A(%rip)
# PeepHole Optimization,var3
.Ll276:
	orb	$1,U_$UNIT6502_$$_STATUS(%rip)
.Lj544:
.Lj536:
.Ll277:
# [656] a:=byte(aresult and $00FF);
	movw	U_$UNIT6502_$$_ARESULT(%rip),%ax
	andw	$255,%ax
	movb	%al,U_$UNIT6502_$$_A(%rip)
.Ll278:
# [657] end;
	nop
	leaq	40(%rsp),%rsp
	ret
.seh_endproc
.Lc102:
.Lt50:
.Ll279:

.section .text.n_unit6502_$$_ana,"x"
	.balign 16,0x90
.globl	UNIT6502_$$_ANA
UNIT6502_$$_ANA:
.Lc104:
.seh_proc UNIT6502_$$_ANA
.Ll280:
# [661] begin
	leaq	-40(%rsp),%rsp
.Lc106:
.seh_stackalloc 40
.seh_endprologue
.Ll281:
# [662] penaltyop := 1;
	movb	$1,U_$UNIT6502_$$_PENALTYOP(%rip)
.Ll282:
# [663] value := getvalue;
	call	UNIT6502_$$_GETVALUE$$WORD
	movw	%ax,U_$UNIT6502_$$_VALUE(%rip)
.Ll283:
# [664] aresult := a and value;
	movzbw	U_$UNIT6502_$$_A(%rip),%dx
	movw	U_$UNIT6502_$$_VALUE(%rip),%ax
	andw	%dx,%ax
# PeepHole Optimization,MovMov2Mov1
	movw	%ax,U_$UNIT6502_$$_ARESULT(%rip)
.Ll284:
# [665] if (aresult and $00FF)<>0 then clearzero else setzero;
	andw	$255,%ax
	testw	%ax,%ax
	je	.Lj560
# PeepHole Optimization,var3
.Ll285:
	andb	$-3,U_$UNIT6502_$$_STATUS(%rip)
	jmp	.Lj563
.Lj560:
# PeepHole Optimization,var3
.Ll286:
	orb	$2,U_$UNIT6502_$$_STATUS(%rip)
.Lj563:
.Ll287:
# [666] if (aresult and $0080)<>0 then setsign else clearsign;
	movw	U_$UNIT6502_$$_ARESULT(%rip),%ax
	andw	$128,%ax
	testw	%ax,%ax
	je	.Lj567
# PeepHole Optimization,var2
# P=movb
# HP1=orb
# HP2=movb
# PeepHole Optimization,var2
.Ll288:
	orb	$128,U_$UNIT6502_$$_STATUS(%rip)
	jmp	.Lj570
.Lj567:
# PeepHole Optimization,var3
.Ll289:
	andb	$-129,U_$UNIT6502_$$_STATUS(%rip)
.Lj570:
.Ll290:
# [667] a:=byte(aresult and $00FF);
	movw	U_$UNIT6502_$$_ARESULT(%rip),%ax
	andw	$255,%ax
	movb	%al,U_$UNIT6502_$$_A(%rip)
.Ll291:
# [668] end;
	nop
	leaq	40(%rsp),%rsp
	ret
.seh_endproc
.Lc105:
.Lt28:
.Ll292:

.section .text.n_unit6502_$$_asl,"x"
	.balign 16,0x90
.globl	UNIT6502_$$_ASL
UNIT6502_$$_ASL:
.Lc107:
.seh_proc UNIT6502_$$_ASL
.Ll293:
# [672] begin
	leaq	-40(%rsp),%rsp
.Lc109:
.seh_stackalloc 40
.seh_endprologue
.Ll294:
# [673] value := getvalue;
	call	UNIT6502_$$_GETVALUE$$WORD
	movw	%ax,U_$UNIT6502_$$_VALUE(%rip)
.Ll295:
# [674] aresult := value shl 1;
	movzwl	U_$UNIT6502_$$_VALUE(%rip),%eax
	shll	$1,%eax
# PeepHole Optimization,MovMov2Mov1
	movw	%ax,U_$UNIT6502_$$_ARESULT(%rip)
.Ll296:
# [675] if (aresult and $FF00) <>0 then setcarry else clearcarry;
	andw	$65280,%ax
	testw	%ax,%ax
	je	.Lj582
# PeepHole Optimization,var3
.Ll297:
	orb	$1,U_$UNIT6502_$$_STATUS(%rip)
	jmp	.Lj585
.Lj582:
# PeepHole Optimization,var3
.Ll298:
	andb	$-2,U_$UNIT6502_$$_STATUS(%rip)
.Lj585:
.Ll299:
# [676] if (aresult and $00FF)<>0 then clearzero else setzero;
	movw	U_$UNIT6502_$$_ARESULT(%rip),%ax
	andw	$255,%ax
	testw	%ax,%ax
	je	.Lj589
# PeepHole Optimization,var3
.Ll300:
	andb	$-3,U_$UNIT6502_$$_STATUS(%rip)
	jmp	.Lj592
.Lj589:
# PeepHole Optimization,var3
.Ll301:
	orb	$2,U_$UNIT6502_$$_STATUS(%rip)
.Lj592:
.Ll302:
# [677] if (aresult and $0080)<>0 then setsign else clearsign;
	movw	U_$UNIT6502_$$_ARESULT(%rip),%ax
	andw	$128,%ax
	testw	%ax,%ax
	je	.Lj596
# PeepHole Optimization,var2
# P=movb
# HP1=orb
# HP2=movb
# PeepHole Optimization,var2
.Ll303:
	orb	$128,U_$UNIT6502_$$_STATUS(%rip)
	jmp	.Lj599
.Lj596:
# PeepHole Optimization,var3
.Ll304:
	andb	$-129,U_$UNIT6502_$$_STATUS(%rip)
.Lj599:
.Ll305:
# [678] putvalue(aresult);
	movzwl	U_$UNIT6502_$$_ARESULT(%rip),%ecx
	call	UNIT6502_$$_PUTVALUE$WORD
.Ll306:
# [679] end;
	nop
	leaq	40(%rsp),%rsp
	ret
.seh_endproc
.Lc108:
.Lt30:
.Ll307:

.section .text.n_unit6502_$$_bcc,"x"
	.balign 16,0x90
.globl	UNIT6502_$$_BCC
UNIT6502_$$_BCC:
.Lc110:
# [683] begin
# PeepHole Optimization,var15
.Ll308:
# [684] if ((status and FLAG_CARRY) = 0) then
	movw	U_$UNIT6502_$$_STATUS(%rip),%ax
	andw	$1,%ax
	testw	%ax,%ax
	jne	.Lj607
.Ll309:
# [686] oldpc := pc;
	movw	U_$UNIT6502_$$_PC(%rip),%ax
	movw	%ax,U_$UNIT6502_$$_OLDPC(%rip)
.Ll310:
# [687] pc += reladdr;
	movzwl	U_$UNIT6502_$$_PC(%rip),%eax
	movzwl	U_$UNIT6502_$$_RELADDR(%rip),%edx
	leal	(%eax,%edx),%eax
	movw	%ax,U_$UNIT6502_$$_PC(%rip)
.Ll311:
# [688] if ((oldpc and $FF00) <> (pc and $FF00)) then clockticks6502 += 2 //check if jump crossed a page boundary
	movw	U_$UNIT6502_$$_OLDPC(%rip),%ax
	andw	$65280,%ax
	movw	U_$UNIT6502_$$_PC(%rip),%dx
	andw	$65280,%dx
	cmpw	%dx,%ax
	je	.Lj613
.Ll312:
# [689] else clockticks6502+=1;
	movq	TC_$UNIT6502_$$_CLOCKTICKS6502(%rip),%rax
	leaq	2(%rax),%rax
.Ll313:
	movq	%rax,TC_$UNIT6502_$$_CLOCKTICKS6502(%rip)
	jmp	.Lj616
.Lj613:
.Ll314:
	movq	TC_$UNIT6502_$$_CLOCKTICKS6502(%rip),%rax
	leaq	1(%rax),%rax
	movq	%rax,TC_$UNIT6502_$$_CLOCKTICKS6502(%rip)
.Lj616:
.Lj607:
.Ll315:
# [691] end;
	ret
.Lc111:
.Lt62:
.Ll316:

.section .text.n_unit6502_$$_bcs,"x"
	.balign 16,0x90
.globl	UNIT6502_$$_BCS
UNIT6502_$$_BCS:
.Lc112:
# [695] begin
# PeepHole Optimization,var15
.Ll317:
# [696] if ((status and FLAG_CARRY) = FLAG_CARRY) then
	movw	U_$UNIT6502_$$_STATUS(%rip),%ax
	andw	$1,%ax
	cmpw	$1,%ax
	jne	.Lj622
.Ll318:
# [698] oldpc := pc;
	movw	U_$UNIT6502_$$_PC(%rip),%ax
	movw	%ax,U_$UNIT6502_$$_OLDPC(%rip)
.Ll319:
# [699] pc += reladdr;
	movzwl	U_$UNIT6502_$$_PC(%rip),%eax
	movzwl	U_$UNIT6502_$$_RELADDR(%rip),%edx
	leal	(%eax,%edx),%eax
	movw	%ax,U_$UNIT6502_$$_PC(%rip)
.Ll320:
# [700] if ((oldpc and $FF00) <> (pc and $FF00)) then clockticks6502 += 2 //check if jump crossed a page boundary
	movw	U_$UNIT6502_$$_OLDPC(%rip),%ax
	andw	$65280,%ax
	movw	U_$UNIT6502_$$_PC(%rip),%dx
	andw	$65280,%dx
	cmpw	%dx,%ax
	je	.Lj628
.Ll321:
# [701] else clockticks6502+=1;
	movq	TC_$UNIT6502_$$_CLOCKTICKS6502(%rip),%rax
	leaq	2(%rax),%rax
.Ll322:
	movq	%rax,TC_$UNIT6502_$$_CLOCKTICKS6502(%rip)
	jmp	.Lj631
.Lj628:
.Ll323:
	movq	TC_$UNIT6502_$$_CLOCKTICKS6502(%rip),%rax
	leaq	1(%rax),%rax
	movq	%rax,TC_$UNIT6502_$$_CLOCKTICKS6502(%rip)
.Lj631:
.Lj622:
.Ll324:
# [703] end;
	ret
.Lc113:
.Lt71:
.Ll325:

.section .text.n_unit6502_$$_beq,"x"
	.balign 16,0x90
.globl	UNIT6502_$$_BEQ
UNIT6502_$$_BEQ:
.Lc114:
# [707] begin
# PeepHole Optimization,var15
.Ll326:
# [708] if ((status and FLAG_ZERO) = FLAG_ZERO) then
	movw	U_$UNIT6502_$$_STATUS(%rip),%ax
	andw	$2,%ax
	cmpw	$2,%ax
	jne	.Lj637
.Ll327:
# [710] oldpc := pc;
	movw	U_$UNIT6502_$$_PC(%rip),%ax
	movw	%ax,U_$UNIT6502_$$_OLDPC(%rip)
.Ll328:
# [711] pc += reladdr;
	movzwl	U_$UNIT6502_$$_PC(%rip),%eax
	movzwl	U_$UNIT6502_$$_RELADDR(%rip),%edx
	leal	(%eax,%edx),%eax
	movw	%ax,U_$UNIT6502_$$_PC(%rip)
.Ll329:
# [712] if ((oldpc and $FF00) <> (pc and $FF00)) then clockticks6502 += 2 //check if jump crossed a page boundary
	movw	U_$UNIT6502_$$_OLDPC(%rip),%ax
	andw	$65280,%ax
	movw	U_$UNIT6502_$$_PC(%rip),%dx
	andw	$65280,%dx
	cmpw	%dx,%ax
	je	.Lj643
.Ll330:
# [713] else clockticks6502+=1;
	movq	TC_$UNIT6502_$$_CLOCKTICKS6502(%rip),%rax
	leaq	2(%rax),%rax
.Ll331:
	movq	%rax,TC_$UNIT6502_$$_CLOCKTICKS6502(%rip)
	jmp	.Lj646
.Lj643:
.Ll332:
	movq	TC_$UNIT6502_$$_CLOCKTICKS6502(%rip),%rax
	leaq	1(%rax),%rax
	movq	%rax,TC_$UNIT6502_$$_CLOCKTICKS6502(%rip)
.Lj646:
.Lj637:
.Ll333:
# [715] end;
	ret
.Lc115:
.Lt85:
.Ll334:

.section .text.n_unit6502_$$_bit,"x"
	.balign 16,0x90
.globl	UNIT6502_$$_BIT
UNIT6502_$$_BIT:
.Lc116:
.seh_proc UNIT6502_$$_BIT
.Ll335:
# [719] begin
	leaq	-40(%rsp),%rsp
.Lc118:
.seh_stackalloc 40
.seh_endprologue
.Ll336:
# [720] value := getvalue;;
	call	UNIT6502_$$_GETVALUE$$WORD
	movw	%ax,U_$UNIT6502_$$_VALUE(%rip)
.Ll337:
# [721] aresult := a and value;
	movzbw	U_$UNIT6502_$$_A(%rip),%dx
	movw	U_$UNIT6502_$$_VALUE(%rip),%ax
	andw	%dx,%ax
# PeepHole Optimization,MovMov2Mov1
	movw	%ax,U_$UNIT6502_$$_ARESULT(%rip)
.Ll338:
# [722] if (aresult and $00FF)<>0 then clearzero else setzero;
	andw	$255,%ax
	testw	%ax,%ax
	je	.Lj656
# PeepHole Optimization,var3
.Ll339:
	andb	$-3,U_$UNIT6502_$$_STATUS(%rip)
	jmp	.Lj659
.Lj656:
# PeepHole Optimization,var3
.Ll340:
	orb	$2,U_$UNIT6502_$$_STATUS(%rip)
.Lj659:
# PeepHole Optimization,var15
.Ll341:
# [723] status := (status and $3F) or (value and $C0);
	movw	U_$UNIT6502_$$_STATUS(%rip),%ax
	andw	$63,%ax
	movswl	%ax,%eax
	movw	U_$UNIT6502_$$_VALUE(%rip),%dx
# PeepHole Optimization,var1
# PeepHole Optimization,var11
	andl	$192,%edx
	orl	%eax,%edx
	movb	%dl,U_$UNIT6502_$$_STATUS(%rip)
.Ll342:
# [724] end;
	nop
	leaq	40(%rsp),%rsp
	ret
.seh_endproc
.Lc117:
.Lt36:
.Ll343:

.section .text.n_unit6502_$$_bmi,"x"
	.balign 16,0x90
.globl	UNIT6502_$$_BMI
UNIT6502_$$_BMI:
.Lc119:
# [728] begin
.Ll344:
# [729] if ((status and FLAG_SIGN) = FLAG_SIGN) then
	movb	U_$UNIT6502_$$_STATUS(%rip),%al
	andb	$128,%al
	cmpb	$128,%al
	jne	.Lj667
.Ll345:
# [731] oldpc := pc;
	movw	U_$UNIT6502_$$_PC(%rip),%ax
	movw	%ax,U_$UNIT6502_$$_OLDPC(%rip)
.Ll346:
# [732] pc += reladdr;
	movzwl	U_$UNIT6502_$$_PC(%rip),%eax
	movzwl	U_$UNIT6502_$$_RELADDR(%rip),%edx
	leal	(%eax,%edx),%eax
	movw	%ax,U_$UNIT6502_$$_PC(%rip)
.Ll347:
# [733] if ((oldpc and $FF00) <> (pc and $FF00)) then clockticks6502 += 2 //check if jump crossed a page boundary
	movw	U_$UNIT6502_$$_OLDPC(%rip),%ax
	andw	$65280,%ax
	movw	U_$UNIT6502_$$_PC(%rip),%dx
	andw	$65280,%dx
	cmpw	%dx,%ax
	je	.Lj673
.Ll348:
# [734] else clockticks6502+=1;
	movq	TC_$UNIT6502_$$_CLOCKTICKS6502(%rip),%rax
	leaq	2(%rax),%rax
.Ll349:
	movq	%rax,TC_$UNIT6502_$$_CLOCKTICKS6502(%rip)
	jmp	.Lj676
.Lj673:
.Ll350:
	movq	TC_$UNIT6502_$$_CLOCKTICKS6502(%rip),%rax
	leaq	1(%rax),%rax
	movq	%rax,TC_$UNIT6502_$$_CLOCKTICKS6502(%rip)
.Lj676:
.Lj667:
.Ll351:
# [736] end;
	ret
.Lc120:
.Lt38:
.Ll352:

.section .text.n_unit6502_$$_bne,"x"
	.balign 16,0x90
.globl	UNIT6502_$$_BNE
UNIT6502_$$_BNE:
.Lc121:
# [740] begin
# PeepHole Optimization,var15
.Ll353:
# [741] if ((status and FLAG_ZERO) = 0) then
	movw	U_$UNIT6502_$$_STATUS(%rip),%ax
	andw	$2,%ax
	testw	%ax,%ax
	jne	.Lj682
.Ll354:
# [743] oldpc := pc;
	movw	U_$UNIT6502_$$_PC(%rip),%ax
	movw	%ax,U_$UNIT6502_$$_OLDPC(%rip)
.Ll355:
# [744] pc += reladdr;
	movzwl	U_$UNIT6502_$$_PC(%rip),%eax
	movzwl	U_$UNIT6502_$$_RELADDR(%rip),%edx
	leal	(%eax,%edx),%eax
	movw	%ax,U_$UNIT6502_$$_PC(%rip)
.Ll356:
# [745] if ((oldpc and $FF00) <> (pc and $FF00)) then clockticks6502 += 2 //check if jump crossed a page boundary
	movw	U_$UNIT6502_$$_OLDPC(%rip),%ax
	andw	$65280,%ax
	movw	U_$UNIT6502_$$_PC(%rip),%dx
	andw	$65280,%dx
	cmpw	%dx,%ax
	je	.Lj688
.Ll357:
# [746] else clockticks6502+=1;
	movq	TC_$UNIT6502_$$_CLOCKTICKS6502(%rip),%rax
	leaq	2(%rax),%rax
.Ll358:
	movq	%rax,TC_$UNIT6502_$$_CLOCKTICKS6502(%rip)
	jmp	.Lj691
.Lj688:
.Ll359:
	movq	TC_$UNIT6502_$$_CLOCKTICKS6502(%rip),%rax
	leaq	1(%rax),%rax
	movq	%rax,TC_$UNIT6502_$$_CLOCKTICKS6502(%rip)
.Lj691:
.Lj682:
.Ll360:
# [748] end;
	ret
.Lc122:
.Lt80:
.Ll361:

.section .text.n_unit6502_$$_bpl,"x"
	.balign 16,0x90
.globl	UNIT6502_$$_BPL
UNIT6502_$$_BPL:
.Lc123:
# [752] begin
.Ll362:
# [753] if ((status and FLAG_SIGN) = 0) then
	movb	U_$UNIT6502_$$_STATUS(%rip),%al
	andb	$128,%al
	testb	%al,%al
	jne	.Lj697
.Ll363:
# [755] oldpc := pc;
	movw	U_$UNIT6502_$$_PC(%rip),%ax
	movw	%ax,U_$UNIT6502_$$_OLDPC(%rip)
.Ll364:
# [756] pc += reladdr;
	movzwl	U_$UNIT6502_$$_PC(%rip),%eax
	movzwl	U_$UNIT6502_$$_RELADDR(%rip),%edx
	leal	(%eax,%edx),%eax
	movw	%ax,U_$UNIT6502_$$_PC(%rip)
.Ll365:
# [757] if ((oldpc and $FF00) <> (pc and $FF00)) then clockticks6502 += 2 //check if jump crossed a page boundary
	movw	U_$UNIT6502_$$_OLDPC(%rip),%ax
	andw	$65280,%ax
	movw	U_$UNIT6502_$$_PC(%rip),%dx
	andw	$65280,%dx
	cmpw	%dx,%ax
	je	.Lj703
.Ll366:
# [758] else clockticks6502+=1;
	movq	TC_$UNIT6502_$$_CLOCKTICKS6502(%rip),%rax
	leaq	2(%rax),%rax
.Ll367:
	movq	%rax,TC_$UNIT6502_$$_CLOCKTICKS6502(%rip)
	jmp	.Lj706
.Lj703:
.Ll368:
	movq	TC_$UNIT6502_$$_CLOCKTICKS6502(%rip),%rax
	leaq	1(%rax),%rax
	movq	%rax,TC_$UNIT6502_$$_CLOCKTICKS6502(%rip)
.Lj706:
.Lj697:
.Ll369:
# [760] end;
	ret
.Lc124:
.Lt31:
.Ll370:

.section .text.n_unit6502_$$_bra,"x"
	.balign 16,0x90
.globl	UNIT6502_$$_BRA
UNIT6502_$$_BRA:
.Lc125:
# [764] begin
.Ll371:
# [765] oldpc := pc;
	movw	U_$UNIT6502_$$_PC(%rip),%ax
	movw	%ax,U_$UNIT6502_$$_OLDPC(%rip)
.Ll372:
# [766] pc += reladdr;
	movzwl	U_$UNIT6502_$$_PC(%rip),%eax
	movzwl	U_$UNIT6502_$$_RELADDR(%rip),%edx
	leal	(%eax,%edx),%eax
	movw	%ax,U_$UNIT6502_$$_PC(%rip)
.Ll373:
# [767] if ((oldpc and $FF00) <> (pc and $FF00)) then clockticks6502 += 2 //check if jump crossed a page boundary
	movw	U_$UNIT6502_$$_OLDPC(%rip),%ax
	andw	$65280,%ax
	movw	U_$UNIT6502_$$_PC(%rip),%dx
	andw	$65280,%dx
	cmpw	%dx,%ax
	je	.Lj716
.Ll374:
# [768] else clockticks6502+=1;
	movq	TC_$UNIT6502_$$_CLOCKTICKS6502(%rip),%rax
	leaq	2(%rax),%rax
.Ll375:
	movq	%rax,TC_$UNIT6502_$$_CLOCKTICKS6502(%rip)
	jmp	.Lj719
.Lj716:
.Ll376:
	movq	TC_$UNIT6502_$$_CLOCKTICKS6502(%rip),%rax
	leaq	1(%rax),%rax
	movq	%rax,TC_$UNIT6502_$$_CLOCKTICKS6502(%rip)
.Lj719:
.Ll377:
# [769] end;
	ret
.Lc126:
.Lt89:
.Ll378:

.section .text.n_unit6502_$$_brk,"x"
	.balign 16,0x90
.globl	UNIT6502_$$_BRK
UNIT6502_$$_BRK:
.Lc127:
.seh_proc UNIT6502_$$_BRK
.Ll379:
# [773] begin
	pushq	%rbx
.seh_pushreg %rbx
	leaq	-32(%rsp),%rsp
.Lc129:
.seh_stackalloc 32
.seh_endprologue
.Ll380:
# [774] pc+=1;
	movzwl	U_$UNIT6502_$$_PC(%rip),%eax
	leal	1(%eax),%eax
	movw	%ax,U_$UNIT6502_$$_PC(%rip)
.Ll381:
# [775] push16(pc); //push next instruction address onto stack
	movzwl	U_$UNIT6502_$$_PC(%rip),%ecx
	call	UNIT6502_$$_PUSH16$WORD
.Ll382:
# [776] push8(status or FLAG_BREAK); //push CPU status to stack
	movzbl	U_$UNIT6502_$$_STATUS(%rip),%ecx
	orl	$16,%ecx
# PeepHole Optimization,var11
	andl	$65535,%ecx
	call	UNIT6502_$$_PUSH8$WORD
# PeepHole Optimization,var3
.Ll383:
# [221] {$define setinterrupt:= status :=status or FLAG_INTERRUPT}
	orb	$4,U_$UNIT6502_$$_STATUS(%rip)
.Ll384:
# [778] pc := word(read6502($FFFE)) or (word(read6502($FFFF)) shl 8);
	movq	$65534,%rcx
	call	UNIT6502_$$_READ6502$INT64$$BYTE
	movb	%al,%bl
# PeepHole Optimization,var7
# PeepHole Optimization,var1
# PeepHole Optimization,var11
	andl	$255,%ebx
	movq	$65535,%rcx
	call	UNIT6502_$$_READ6502$INT64$$BYTE
# PeepHole Optimization,var7
# PeepHole Optimization,var1
# PeepHole Optimization,var11
	andl	$255,%eax
	shll	$8,%eax
	orl	%ebx,%eax
	movw	%ax,U_$UNIT6502_$$_PC(%rip)
.Ll385:
# [779] end;
	nop
	leaq	32(%rsp),%rsp
	popq	%rbx
	ret
.seh_endproc
.Lc128:
.Lt25:
.Ll386:

.section .text.n_unit6502_$$_bvc,"x"
	.balign 16,0x90
.globl	UNIT6502_$$_BVC
UNIT6502_$$_BVC:
.Lc130:
# [783] begin
# PeepHole Optimization,var15
.Ll387:
# [784] if ((status and FLAG_OVERFLOW) = 0) then
	movw	U_$UNIT6502_$$_STATUS(%rip),%ax
	andw	$64,%ax
	testw	%ax,%ax
	jne	.Lj741
.Ll388:
# [786] oldpc := pc;
	movw	U_$UNIT6502_$$_PC(%rip),%ax
	movw	%ax,U_$UNIT6502_$$_OLDPC(%rip)
.Ll389:
# [787] pc += reladdr;
	movzwl	U_$UNIT6502_$$_PC(%rip),%eax
	movzwl	U_$UNIT6502_$$_RELADDR(%rip),%edx
	leal	(%eax,%edx),%eax
	movw	%ax,U_$UNIT6502_$$_PC(%rip)
.Ll390:
# [788] if ((oldpc and $FF00) <> (pc and $FF00)) then clockticks6502 += 2 //check if jump crossed a page boundary
	movw	U_$UNIT6502_$$_OLDPC(%rip),%ax
	andw	$65280,%ax
	movw	U_$UNIT6502_$$_PC(%rip),%dx
	andw	$65280,%dx
	cmpw	%dx,%ax
	je	.Lj747
.Ll391:
# [789] else clockticks6502+=1;
	movq	TC_$UNIT6502_$$_CLOCKTICKS6502(%rip),%rax
	leaq	2(%rax),%rax
.Ll392:
	movq	%rax,TC_$UNIT6502_$$_CLOCKTICKS6502(%rip)
	jmp	.Lj750
.Lj747:
.Ll393:
	movq	TC_$UNIT6502_$$_CLOCKTICKS6502(%rip),%rax
	leaq	1(%rax),%rax
	movq	%rax,TC_$UNIT6502_$$_CLOCKTICKS6502(%rip)
.Lj750:
.Lj741:
.Ll394:
# [791] end;
	ret
.Lc131:
.Lt46:
.Ll395:

.section .text.n_unit6502_$$_bvs,"x"
	.balign 16,0x90
.globl	UNIT6502_$$_BVS
UNIT6502_$$_BVS:
.Lc132:
# [795] begin
# PeepHole Optimization,var15
.Ll396:
# [796] if ((status and FLAG_OVERFLOW) = FLAG_OVERFLOW) then
	movw	U_$UNIT6502_$$_STATUS(%rip),%ax
	andw	$64,%ax
	cmpw	$64,%ax
	jne	.Lj756
.Ll397:
# [798] oldpc := pc;
	movw	U_$UNIT6502_$$_PC(%rip),%ax
	movw	%ax,U_$UNIT6502_$$_OLDPC(%rip)
.Ll398:
# [799] pc += reladdr;
	movzwl	U_$UNIT6502_$$_PC(%rip),%eax
	movzwl	U_$UNIT6502_$$_RELADDR(%rip),%edx
	leal	(%eax,%edx),%eax
	movw	%ax,U_$UNIT6502_$$_PC(%rip)
.Ll399:
# [800] if ((oldpc and $FF00) <> (pc and $FF00)) then clockticks6502 += 2 //check if jump crossed a page boundary
	movw	U_$UNIT6502_$$_OLDPC(%rip),%ax
	andw	$65280,%ax
	movw	U_$UNIT6502_$$_PC(%rip),%dx
	andw	$65280,%dx
	cmpw	%dx,%ax
	je	.Lj762
.Ll400:
# [801] else clockticks6502+=1;
	movq	TC_$UNIT6502_$$_CLOCKTICKS6502(%rip),%rax
	leaq	2(%rax),%rax
.Ll401:
	movq	%rax,TC_$UNIT6502_$$_CLOCKTICKS6502(%rip)
	jmp	.Lj765
.Lj762:
.Ll402:
	movq	TC_$UNIT6502_$$_CLOCKTICKS6502(%rip),%rax
	leaq	1(%rax),%rax
	movq	%rax,TC_$UNIT6502_$$_CLOCKTICKS6502(%rip)
.Lj765:
.Lj756:
.Ll403:
# [803] end;
	ret
.Lc133:
.Lt51:
.Ll404:

.section .text.n_unit6502_$$_clc,"x"
	.balign 16,0x90
.globl	UNIT6502_$$_CLC
UNIT6502_$$_CLC:
.Lc134:
# [807] begin
# PeepHole Optimization,var3
.Ll405:
	andb	$-2,U_$UNIT6502_$$_STATUS(%rip)
.Ll406:
# [809] end;
	ret
.Lc135:
.Lt33:
.Ll407:

.section .text.n_unit6502_$$_cld,"x"
	.balign 16,0x90
.globl	UNIT6502_$$_CLD
UNIT6502_$$_CLD:
.Lc136:
# [813] begin
# PeepHole Optimization,var3
.Ll408:
# [224] {$define cleardecimal:= status := status and not(FLAG_DECIMAL)}
	andb	$-9,U_$UNIT6502_$$_STATUS(%rip)
.Ll409:
# [815] end;
	ret
.Lc137:
.Lt81:
.Ll410:

.section .text.n_unit6502_$$_cli,"x"
	.balign 16,0x90
.globl	UNIT6502_$$_CLI
UNIT6502_$$_CLI:
.Lc138:
# [819] begin
# PeepHole Optimization,var3
.Ll411:
# [222] {$define clearinterrupt:= status:= status and not(FLAG_INTERRUPT)}
	andb	$-5,U_$UNIT6502_$$_STATUS(%rip)
.Ll412:
# [821] end;
	ret
.Lc139:
.Lt47:
.Ll413:

.section .text.n_unit6502_$$_clv,"x"
	.balign 16,0x90
.globl	UNIT6502_$$_CLV
UNIT6502_$$_CLV:
.Lc140:
# [825] begin
# PeepHole Optimization,var3
.Ll414:
	andb	$-65,U_$UNIT6502_$$_STATUS(%rip)
.Ll415:
# [827] end;
	ret
.Lc141:
.Lt72:
.Ll416:

.section .text.n_unit6502_$$_cmp,"x"
	.balign 16,0x90
.globl	UNIT6502_$$_CMP
UNIT6502_$$_CMP:
.Lc142:
.seh_proc UNIT6502_$$_CMP
.Ll417:
# [831] begin
	leaq	-40(%rsp),%rsp
.Lc144:
.seh_stackalloc 40
.seh_endprologue
.Ll418:
# [832] penaltyop := 1;
	movb	$1,U_$UNIT6502_$$_PENALTYOP(%rip)
.Ll419:
# [833] value := byte(getvalue);
	call	UNIT6502_$$_GETVALUE$$WORD
# PeepHole Optimization,var7
	andw	$255,%ax
	movw	%ax,U_$UNIT6502_$$_VALUE(%rip)
.Ll420:
# [834] aresult := word(a) - value;
	movzbw	U_$UNIT6502_$$_A(%rip),%ax
# PeepHole Optimization,var11
	andl	$65535,%eax
	movzwl	U_$UNIT6502_$$_VALUE(%rip),%edx
	subl	%edx,%eax
	movw	%ax,U_$UNIT6502_$$_ARESULT(%rip)
.Ll421:
# [835] if (a >= (value and $00FF)) then setcarry else clearcarry;
	movzbw	U_$UNIT6502_$$_A(%rip),%dx
	movw	U_$UNIT6502_$$_VALUE(%rip),%ax
	andw	$255,%ax
	cmpw	%ax,%dx
	jnae	.Lj793
# PeepHole Optimization,var3
.Ll422:
	orb	$1,U_$UNIT6502_$$_STATUS(%rip)
	jmp	.Lj796
.Lj793:
# PeepHole Optimization,var3
.Ll423:
	andb	$-2,U_$UNIT6502_$$_STATUS(%rip)
.Lj796:
.Ll424:
# [836] if (a = (byte(value and $00FF))) then setzero else clearzero;
	movw	U_$UNIT6502_$$_VALUE(%rip),%ax
	andw	$255,%ax
	cmpb	U_$UNIT6502_$$_A(%rip),%al
	jne	.Lj800
# PeepHole Optimization,var3
.Ll425:
	orb	$2,U_$UNIT6502_$$_STATUS(%rip)
	jmp	.Lj803
.Lj800:
# PeepHole Optimization,var3
.Ll426:
	andb	$-3,U_$UNIT6502_$$_STATUS(%rip)
.Lj803:
.Ll427:
# [837] if (aresult and $0080)<>0 then setsign else clearsign;
	movw	U_$UNIT6502_$$_ARESULT(%rip),%ax
	andw	$128,%ax
	testw	%ax,%ax
	je	.Lj807
# PeepHole Optimization,var2
# P=movb
# HP1=orb
# HP2=movb
# PeepHole Optimization,var2
.Ll428:
	orb	$128,U_$UNIT6502_$$_STATUS(%rip)
	jmp	.Lj810
.Lj807:
# PeepHole Optimization,var3
.Ll429:
	andb	$-129,U_$UNIT6502_$$_STATUS(%rip)
.Lj810:
.Ll430:
# [838] end;
	nop
	leaq	40(%rsp),%rsp
	ret
.seh_endproc
.Lc143:
.Lt75:
.Ll431:

.section .text.n_unit6502_$$_cpx,"x"
	.balign 16,0x90
.globl	UNIT6502_$$_CPX
UNIT6502_$$_CPX:
.Lc145:
.seh_proc UNIT6502_$$_CPX
.Ll432:
# [842] begin
	leaq	-40(%rsp),%rsp
.Lc147:
.seh_stackalloc 40
.seh_endprologue
.Ll433:
# [843] value := getvalue;;
	call	UNIT6502_$$_GETVALUE$$WORD
	movw	%ax,U_$UNIT6502_$$_VALUE(%rip)
.Ll434:
# [844] aresult := word(x) - value;
	movzbw	U_$UNIT6502_$$_X(%rip),%ax
# PeepHole Optimization,var11
	andl	$65535,%eax
	movzwl	U_$UNIT6502_$$_VALUE(%rip),%edx
	subl	%edx,%eax
	movw	%ax,U_$UNIT6502_$$_ARESULT(%rip)
.Ll435:
# [845] if (x >= (value and $00FF)) then setcarry else clearcarry;
	movzbw	U_$UNIT6502_$$_X(%rip),%dx
	movw	U_$UNIT6502_$$_VALUE(%rip),%ax
	andw	$255,%ax
	cmpw	%ax,%dx
	jnae	.Lj820
# PeepHole Optimization,var3
.Ll436:
	orb	$1,U_$UNIT6502_$$_STATUS(%rip)
	jmp	.Lj823
.Lj820:
# PeepHole Optimization,var3
.Ll437:
	andb	$-2,U_$UNIT6502_$$_STATUS(%rip)
.Lj823:
.Ll438:
# [846] if (x = (byte(value and $00FF))) then setzero else clearzero;
	movw	U_$UNIT6502_$$_VALUE(%rip),%ax
	andw	$255,%ax
	cmpb	U_$UNIT6502_$$_X(%rip),%al
	jne	.Lj827
# PeepHole Optimization,var3
.Ll439:
	orb	$2,U_$UNIT6502_$$_STATUS(%rip)
	jmp	.Lj830
.Lj827:
# PeepHole Optimization,var3
.Ll440:
	andb	$-3,U_$UNIT6502_$$_STATUS(%rip)
.Lj830:
.Ll441:
# [847] if (aresult and $0080)<>0 then setsign else clearsign;
	movw	U_$UNIT6502_$$_ARESULT(%rip),%ax
	andw	$128,%ax
	testw	%ax,%ax
	je	.Lj834
# PeepHole Optimization,var2
# P=movb
# HP1=orb
# HP2=movb
# PeepHole Optimization,var2
.Ll442:
	orb	$128,U_$UNIT6502_$$_STATUS(%rip)
	jmp	.Lj837
.Lj834:
# PeepHole Optimization,var3
.Ll443:
	andb	$-129,U_$UNIT6502_$$_STATUS(%rip)
.Lj837:
.Ll444:
# [848] end;
	nop
	leaq	40(%rsp),%rsp
	ret
.seh_endproc
.Lc146:
.Lt82:
.Ll445:

.section .text.n_unit6502_$$_cpy,"x"
	.balign 16,0x90
.globl	UNIT6502_$$_CPY
UNIT6502_$$_CPY:
.Lc148:
.seh_proc UNIT6502_$$_CPY
.Ll446:
# [852] begin
	leaq	-40(%rsp),%rsp
.Lc150:
.seh_stackalloc 40
.seh_endprologue
.Ll447:
# [853] value := getvalue;;
	call	UNIT6502_$$_GETVALUE$$WORD
	movw	%ax,U_$UNIT6502_$$_VALUE(%rip)
.Ll448:
# [854] aresult := word(y) - value;
	movzbw	U_$UNIT6502_$$_Y(%rip),%ax
# PeepHole Optimization,var11
	andl	$65535,%eax
	movzwl	U_$UNIT6502_$$_VALUE(%rip),%edx
	subl	%edx,%eax
	movw	%ax,U_$UNIT6502_$$_ARESULT(%rip)
.Ll449:
# [855] if (y >= (value and $00FF)) then setcarry else clearcarry;
	movzbw	U_$UNIT6502_$$_Y(%rip),%dx
	movw	U_$UNIT6502_$$_VALUE(%rip),%ax
	andw	$255,%ax
	cmpw	%ax,%dx
	jnae	.Lj847
# PeepHole Optimization,var3
.Ll450:
	orb	$1,U_$UNIT6502_$$_STATUS(%rip)
	jmp	.Lj850
.Lj847:
# PeepHole Optimization,var3
.Ll451:
	andb	$-2,U_$UNIT6502_$$_STATUS(%rip)
.Lj850:
.Ll452:
# [856] if (y = (value and $00FF)) then setzero else clearzero;
	movzbw	U_$UNIT6502_$$_Y(%rip),%dx
	movw	U_$UNIT6502_$$_VALUE(%rip),%ax
	andw	$255,%ax
	cmpw	%ax,%dx
	jne	.Lj854
# PeepHole Optimization,var3
.Ll453:
	orb	$2,U_$UNIT6502_$$_STATUS(%rip)
	jmp	.Lj857
.Lj854:
# PeepHole Optimization,var3
.Ll454:
	andb	$-3,U_$UNIT6502_$$_STATUS(%rip)
.Lj857:
.Ll455:
# [857] if (aresult and $0080)<>0 then setsign else clearsign;
	movw	U_$UNIT6502_$$_ARESULT(%rip),%ax
	andw	$128,%ax
	testw	%ax,%ax
	je	.Lj861
# PeepHole Optimization,var2
# P=movb
# HP1=orb
# HP2=movb
# PeepHole Optimization,var2
.Ll456:
	orb	$128,U_$UNIT6502_$$_STATUS(%rip)
	jmp	.Lj864
.Lj861:
# PeepHole Optimization,var3
.Ll457:
	andb	$-129,U_$UNIT6502_$$_STATUS(%rip)
.Lj864:
.Ll458:
# [858] end;
	nop
	leaq	40(%rsp),%rsp
	ret
.seh_endproc
.Lc149:
.Lt74:
.Ll459:

.section .text.n_unit6502_$$_dea,"x"
	.balign 16,0x90
.globl	UNIT6502_$$_DEA
UNIT6502_$$_DEA:
.Lc151:
.seh_proc UNIT6502_$$_DEA
.Ll460:
# [862] begin
	leaq	-40(%rsp),%rsp
.Lc153:
.seh_stackalloc 40
.seh_endprologue
.Ll461:
# [863] value := getvalue;;
	call	UNIT6502_$$_GETVALUE$$WORD
	movw	%ax,U_$UNIT6502_$$_VALUE(%rip)
.Ll462:
# [864] aresult := value - 1;
	movzwl	U_$UNIT6502_$$_VALUE(%rip),%eax
	leal	-1(%eax),%eax
# PeepHole Optimization,MovMov2Mov1
	movw	%ax,U_$UNIT6502_$$_ARESULT(%rip)
.Ll463:
# [865] if (aresult and $0080)<>0 then setsign else clearsign;
	andw	$128,%ax
	testw	%ax,%ax
	je	.Lj874
# PeepHole Optimization,var2
# P=movb
# HP1=orb
# HP2=movb
# PeepHole Optimization,var2
.Ll464:
	orb	$128,U_$UNIT6502_$$_STATUS(%rip)
	jmp	.Lj877
.Lj874:
# PeepHole Optimization,var3
.Ll465:
	andb	$-129,U_$UNIT6502_$$_STATUS(%rip)
.Lj877:
.Ll466:
# [866] if (aresult and $00FF)<>0 then clearzero else setzero;
	movw	U_$UNIT6502_$$_ARESULT(%rip),%ax
	andw	$255,%ax
	testw	%ax,%ax
	je	.Lj881
# PeepHole Optimization,var3
.Ll467:
	andb	$-3,U_$UNIT6502_$$_STATUS(%rip)
	jmp	.Lj884
.Lj881:
# PeepHole Optimization,var3
.Ll468:
	orb	$2,U_$UNIT6502_$$_STATUS(%rip)
.Lj884:
.Ll469:
# [867] putvalue(aresult);
	movzwl	U_$UNIT6502_$$_ARESULT(%rip),%ecx
	call	UNIT6502_$$_PUTVALUE$WORD
.Ll470:
# [868] end;
	nop
	leaq	40(%rsp),%rsp
	ret
.seh_endproc
.Lc152:
.Lt77:
.Ll471:

.section .text.n_unit6502_$$_dex,"x"
	.balign 16,0x90
.globl	UNIT6502_$$_DEX
UNIT6502_$$_DEX:
.Lc154:
# [872] begin
.Ll472:
# [873] x-=1;
	movzbl	U_$UNIT6502_$$_X(%rip),%eax
	leal	-1(%eax),%eax
# PeepHole Optimization,MovMov2Mov1
	movb	%al,U_$UNIT6502_$$_X(%rip)
.Ll473:
# [874] if (x and $0080)<>0 then setsign else clearsign;
	andb	$128,%al
	testb	%al,%al
	je	.Lj894
# PeepHole Optimization,var2
# P=movb
# HP1=orb
# HP2=movb
# PeepHole Optimization,var2
.Ll474:
	orb	$128,U_$UNIT6502_$$_STATUS(%rip)
	jmp	.Lj897
.Lj894:
# PeepHole Optimization,var3
.Ll475:
	andb	$-129,U_$UNIT6502_$$_STATUS(%rip)
.Lj897:
.Ll476:
# [875] if (x and $00FF)<>0 then clearzero else setzero;
	movb	U_$UNIT6502_$$_X(%rip),%al
	testb	%al,%al
	je	.Lj901
# PeepHole Optimization,var3
.Ll477:
	andb	$-3,U_$UNIT6502_$$_STATUS(%rip)
	jmp	.Lj904
.Lj901:
# PeepHole Optimization,var3
.Ll478:
	orb	$2,U_$UNIT6502_$$_STATUS(%rip)
.Lj904:
.Ll479:
# [876] end;
	ret
.Lc155:
.Lt79:
.Ll480:

.section .text.n_unit6502_$$_dey,"x"
	.balign 16,0x90
.globl	UNIT6502_$$_DEY
UNIT6502_$$_DEY:
.Lc156:
# [880] begin
.Ll481:
# [881] y-=1;
	movzbl	U_$UNIT6502_$$_Y(%rip),%eax
	leal	-1(%eax),%eax
# PeepHole Optimization,MovMov2Mov1
	movb	%al,U_$UNIT6502_$$_Y(%rip)
.Ll482:
# [882] if (y and $0080)<>0 then setsign else clearsign;
	andb	$128,%al
	testb	%al,%al
	je	.Lj912
# PeepHole Optimization,var2
# P=movb
# HP1=orb
# HP2=movb
# PeepHole Optimization,var2
.Ll483:
	orb	$128,U_$UNIT6502_$$_STATUS(%rip)
	jmp	.Lj915
.Lj912:
# PeepHole Optimization,var3
.Ll484:
	andb	$-129,U_$UNIT6502_$$_STATUS(%rip)
.Lj915:
.Ll485:
# [883] if (y and $00FF)<>0 then clearzero else setzero;
	movb	U_$UNIT6502_$$_Y(%rip),%al
	testb	%al,%al
	je	.Lj919
# PeepHole Optimization,var3
.Ll486:
	andb	$-3,U_$UNIT6502_$$_STATUS(%rip)
	jmp	.Lj922
.Lj919:
# PeepHole Optimization,var3
.Ll487:
	orb	$2,U_$UNIT6502_$$_STATUS(%rip)
.Lj922:
.Ll488:
# [884] end;
	ret
.Lc157:
.Lt60:
.Ll489:

.section .text.n_unit6502_$$_eor,"x"
	.balign 16,0x90
.globl	UNIT6502_$$_EOR
UNIT6502_$$_EOR:
.Lc158:
.seh_proc UNIT6502_$$_EOR
.Ll490:
# [888] begin
	leaq	-40(%rsp),%rsp
.Lc160:
.seh_stackalloc 40
.seh_endprologue
.Ll491:
# [889] penaltyop := 1;
	movb	$1,U_$UNIT6502_$$_PENALTYOP(%rip)
.Ll492:
# [890] value := getvalue;
	call	UNIT6502_$$_GETVALUE$$WORD
	movw	%ax,U_$UNIT6502_$$_VALUE(%rip)
.Ll493:
# [891] aresult := a xor value;
	movzbw	U_$UNIT6502_$$_A(%rip),%dx
	movw	U_$UNIT6502_$$_VALUE(%rip),%ax
	xorw	%dx,%ax
# PeepHole Optimization,MovMov2Mov1
	movw	%ax,U_$UNIT6502_$$_ARESULT(%rip)
.Ll494:
# [892] if (aresult and $0080)<>0 then setsign else clearsign;
	andw	$128,%ax
	testw	%ax,%ax
	je	.Lj934
# PeepHole Optimization,var2
# P=movb
# HP1=orb
# HP2=movb
# PeepHole Optimization,var2
.Ll495:
	orb	$128,U_$UNIT6502_$$_STATUS(%rip)
	jmp	.Lj937
.Lj934:
# PeepHole Optimization,var3
.Ll496:
	andb	$-129,U_$UNIT6502_$$_STATUS(%rip)
.Lj937:
.Ll497:
# [893] if (aresult and $00FF)<>0 then clearzero else setzero;
	movw	U_$UNIT6502_$$_ARESULT(%rip),%ax
	andw	$255,%ax
	testw	%ax,%ax
	je	.Lj941
# PeepHole Optimization,var3
.Ll498:
	andb	$-3,U_$UNIT6502_$$_STATUS(%rip)
	jmp	.Lj944
.Lj941:
# PeepHole Optimization,var3
.Ll499:
	orb	$2,U_$UNIT6502_$$_STATUS(%rip)
.Lj944:
.Ll500:
# [894] a:=byte(aresult and $00FF);
	movw	U_$UNIT6502_$$_ARESULT(%rip),%ax
	andw	$255,%ax
	movb	%al,U_$UNIT6502_$$_A(%rip)
.Ll501:
# [895] end;
	nop
	leaq	40(%rsp),%rsp
	ret
.seh_endproc
.Lc159:
.Lt42:
.Ll502:

.section .text.n_unit6502_$$_ina,"x"
	.balign 16,0x90
.globl	UNIT6502_$$_INA
UNIT6502_$$_INA:
.Lc161:
.seh_proc UNIT6502_$$_INA
.Ll503:
# [899] begin
	leaq	-40(%rsp),%rsp
.Lc163:
.seh_stackalloc 40
.seh_endprologue
.Ll504:
# [900] value := getvalue;
	call	UNIT6502_$$_GETVALUE$$WORD
	movw	%ax,U_$UNIT6502_$$_VALUE(%rip)
.Ll505:
# [901] aresult := value + 1;
	movzwl	U_$UNIT6502_$$_VALUE(%rip),%eax
	leal	1(%eax),%eax
# PeepHole Optimization,MovMov2Mov1
	movw	%ax,U_$UNIT6502_$$_ARESULT(%rip)
.Ll506:
# [902] if (aresult and $0080)<>0 then setsign else clearsign;
	andw	$128,%ax
	testw	%ax,%ax
	je	.Lj956
# PeepHole Optimization,var2
# P=movb
# HP1=orb
# HP2=movb
# PeepHole Optimization,var2
.Ll507:
	orb	$128,U_$UNIT6502_$$_STATUS(%rip)
	jmp	.Lj959
.Lj956:
# PeepHole Optimization,var3
.Ll508:
	andb	$-129,U_$UNIT6502_$$_STATUS(%rip)
.Lj959:
.Ll509:
# [903] if (aresult and $00FF)<>0 then clearzero else setzero;
	movw	U_$UNIT6502_$$_ARESULT(%rip),%ax
	andw	$255,%ax
	testw	%ax,%ax
	je	.Lj963
# PeepHole Optimization,var3
.Ll510:
	andb	$-3,U_$UNIT6502_$$_STATUS(%rip)
	jmp	.Lj966
.Lj963:
# PeepHole Optimization,var3
.Ll511:
	orb	$2,U_$UNIT6502_$$_STATUS(%rip)
.Lj966:
.Ll512:
# [904] putvalue(aresult);
	movzwl	U_$UNIT6502_$$_ARESULT(%rip),%ecx
	call	UNIT6502_$$_PUTVALUE$WORD
.Ll513:
# [905] end;
	nop
	leaq	40(%rsp),%rsp
	ret
.seh_endproc
.Lc162:
.Lt87:
.Ll514:

.section .text.n_unit6502_$$_inx,"x"
	.balign 16,0x90
.globl	UNIT6502_$$_INX
UNIT6502_$$_INX:
.Lc164:
# [909] begin
.Ll515:
# [910] x+=1;
	movzbl	U_$UNIT6502_$$_X(%rip),%eax
	leal	1(%eax),%eax
# PeepHole Optimization,MovMov2Mov1
	movb	%al,U_$UNIT6502_$$_X(%rip)
.Ll516:
# [911] if (x and $0080)<>0 then setsign else clearsign;
	andb	$128,%al
	testb	%al,%al
	je	.Lj976
# PeepHole Optimization,var2
# P=movb
# HP1=orb
# HP2=movb
# PeepHole Optimization,var2
.Ll517:
	orb	$128,U_$UNIT6502_$$_STATUS(%rip)
	jmp	.Lj979
.Lj976:
# PeepHole Optimization,var3
.Ll518:
	andb	$-129,U_$UNIT6502_$$_STATUS(%rip)
.Lj979:
.Ll519:
# [912] if (x and $00FF)<>0 then clearzero else setzero;
	movb	U_$UNIT6502_$$_X(%rip),%al
	testb	%al,%al
	je	.Lj983
# PeepHole Optimization,var3
.Ll520:
	andb	$-3,U_$UNIT6502_$$_STATUS(%rip)
	jmp	.Lj986
.Lj983:
# PeepHole Optimization,var3
.Ll521:
	orb	$2,U_$UNIT6502_$$_STATUS(%rip)
.Lj986:
.Ll522:
# [913] end;
	ret
.Lc165:
.Lt84:
.Ll523:

.section .text.n_unit6502_$$_iny,"x"
	.balign 16,0x90
.globl	UNIT6502_$$_INY
UNIT6502_$$_INY:
.Lc166:
# [917] begin
.Ll524:
# [918] y+=1;
	movzbl	U_$UNIT6502_$$_Y(%rip),%eax
	leal	1(%eax),%eax
# PeepHole Optimization,MovMov2Mov1
	movb	%al,U_$UNIT6502_$$_Y(%rip)
.Ll525:
# [919] if (y and $0080)<>0 then setsign else clearsign;
	andb	$128,%al
	testb	%al,%al
	je	.Lj994
# PeepHole Optimization,var2
# P=movb
# HP1=orb
# HP2=movb
# PeepHole Optimization,var2
.Ll526:
	orb	$128,U_$UNIT6502_$$_STATUS(%rip)
	jmp	.Lj997
.Lj994:
# PeepHole Optimization,var3
.Ll527:
	andb	$-129,U_$UNIT6502_$$_STATUS(%rip)
.Lj997:
.Ll528:
# [920] if (y and $00FF)<>0 then clearzero else setzero;
	movb	U_$UNIT6502_$$_Y(%rip),%al
	testb	%al,%al
	je	.Lj1001
# PeepHole Optimization,var3
.Ll529:
	andb	$-3,U_$UNIT6502_$$_STATUS(%rip)
	jmp	.Lj1004
.Lj1001:
# PeepHole Optimization,var3
.Ll530:
	orb	$2,U_$UNIT6502_$$_STATUS(%rip)
.Lj1004:
.Ll531:
# [921] end;
	ret
.Lc167:
.Lt78:
.Ll532:

.section .text.n_unit6502_$$_jmp,"x"
	.balign 16,0x90
.globl	UNIT6502_$$_JMP
UNIT6502_$$_JMP:
.Lc168:
# [925] begin
.Ll533:
# [926] pc := ea;
	movw	U_$UNIT6502_$$_EA(%rip),%ax
	movw	%ax,U_$UNIT6502_$$_PC(%rip)
.Ll534:
# [927] end;
	ret
.Lc169:
.Lt48:
.Ll535:

.section .text.n_unit6502_$$_jsr,"x"
	.balign 16,0x90
.globl	UNIT6502_$$_JSR
UNIT6502_$$_JSR:
.Lc170:
.seh_proc UNIT6502_$$_JSR
.Ll536:
# [931] begin
	leaq	-40(%rsp),%rsp
.Lc172:
.seh_stackalloc 40
.seh_endprologue
.Ll537:
# [932] push16(pc - 1);
	movzwl	U_$UNIT6502_$$_PC(%rip),%eax
	leal	-1(%eax),%ecx
# PeepHole Optimization,var11
	andl	$65535,%ecx
	call	UNIT6502_$$_PUSH16$WORD
.Ll538:
# [933] pc := ea;
	movw	U_$UNIT6502_$$_EA(%rip),%ax
	movw	%ax,U_$UNIT6502_$$_PC(%rip)
.Ll539:
# [934] end;
	nop
	leaq	40(%rsp),%rsp
	ret
.seh_endproc
.Lc171:
.Lt34:
.Ll540:

.section .text.n_unit6502_$$_lda,"x"
	.balign 16,0x90
.globl	UNIT6502_$$_LDA
UNIT6502_$$_LDA:
.Lc173:
.seh_proc UNIT6502_$$_LDA
.Ll541:
# [938] begin
	leaq	-40(%rsp),%rsp
.Lc175:
.seh_stackalloc 40
.seh_endprologue
.Ll542:
# [939] penaltyop := 1;
	movb	$1,U_$UNIT6502_$$_PENALTYOP(%rip)
.Ll543:
# [940] value := getvalue;
	call	UNIT6502_$$_GETVALUE$$WORD
# PeepHole Optimization,MovMov2Mov1
	movw	%ax,U_$UNIT6502_$$_VALUE(%rip)
.Ll544:
# [941] a := (value and $00FF);
	andw	$255,%ax
# PeepHole Optimization,MovMov2Mov1
	movb	%al,U_$UNIT6502_$$_A(%rip)
.Ll545:
# [942] if (a and $0080)<>0 then setsign else clearsign;
	andb	$128,%al
	testb	%al,%al
	je	.Lj1026
# PeepHole Optimization,var2
# P=movb
# HP1=orb
# HP2=movb
# PeepHole Optimization,var2
.Ll546:
	orb	$128,U_$UNIT6502_$$_STATUS(%rip)
	jmp	.Lj1029
.Lj1026:
# PeepHole Optimization,var3
.Ll547:
	andb	$-129,U_$UNIT6502_$$_STATUS(%rip)
.Lj1029:
.Ll548:
# [943] if (a and $00FF)<>0 then clearzero else setzero;
	movb	U_$UNIT6502_$$_A(%rip),%al
	testb	%al,%al
	je	.Lj1033
# PeepHole Optimization,var3
.Ll549:
	andb	$-3,U_$UNIT6502_$$_STATUS(%rip)
	jmp	.Lj1036
.Lj1033:
# PeepHole Optimization,var3
.Ll550:
	orb	$2,U_$UNIT6502_$$_STATUS(%rip)
.Lj1036:
.Ll551:
# [944] end;
	nop
	leaq	40(%rsp),%rsp
	ret
.seh_endproc
.Lc174:
.Lt66:
.Ll552:

.section .text.n_unit6502_$$_ldc,"x"
	.balign 16,0x90
.globl	UNIT6502_$$_LDC
UNIT6502_$$_LDC:
.Lc176:
.seh_proc UNIT6502_$$_LDC
.Ll553:
# [949] begin
	leaq	-40(%rsp),%rsp
.Lc178:
.seh_stackalloc 40
.seh_endprologue
.Ll554:
# [950] cs^:=getvalue32 shl 8;
	call	UNIT6502_$$_GETVALUE32$$LONGWORD
	shll	$8,%eax
	andl	$4294967295,%eax
	movq	U_$UNIT6502_$$_CS(%rip),%rdx
	movq	%rax,(%rdx)
.Ll555:
# [951] end;
	nop
	leaq	40(%rsp),%rsp
	ret
.seh_endproc
.Lc177:
.Lt97:
.Ll556:

.section .text.n_unit6502_$$_ldd,"x"
	.balign 16,0x90
.globl	UNIT6502_$$_LDD
UNIT6502_$$_LDD:
.Lc179:
.seh_proc UNIT6502_$$_LDD
.Ll557:
# [955] begin
	leaq	-40(%rsp),%rsp
.Lc181:
.seh_stackalloc 40
.seh_endprologue
.Ll558:
# [956] ds^:=getvalue32 shl 8;
	call	UNIT6502_$$_GETVALUE32$$LONGWORD
	shll	$8,%eax
	andl	$4294967295,%eax
	movq	U_$UNIT6502_$$_DS(%rip),%rdx
	movq	%rax,(%rdx)
.Ll559:
# [957] end;
	nop
	leaq	40(%rsp),%rsp
	ret
.seh_endproc
.Lc180:
.Lt99:
.Ll560:

.section .text.n_unit6502_$$_ldx,"x"
	.balign 16,0x90
.globl	UNIT6502_$$_LDX
UNIT6502_$$_LDX:
.Lc182:
.seh_proc UNIT6502_$$_LDX
.Ll561:
# [962] begin
	leaq	-40(%rsp),%rsp
.Lc184:
.seh_stackalloc 40
.seh_endprologue
.Ll562:
# [963] penaltyop := 1;
	movb	$1,U_$UNIT6502_$$_PENALTYOP(%rip)
.Ll563:
# [964] value := getvalue;
	call	UNIT6502_$$_GETVALUE$$WORD
# PeepHole Optimization,MovMov2Mov1
	movw	%ax,U_$UNIT6502_$$_VALUE(%rip)
.Ll564:
# [965] x := (value and $00FF);
	andw	$255,%ax
# PeepHole Optimization,MovMov2Mov1
	movb	%al,U_$UNIT6502_$$_X(%rip)
.Ll565:
# [966] if (x and $0080)<>0 then setsign else clearsign;
	andb	$128,%al
	testb	%al,%al
	je	.Lj1056
# PeepHole Optimization,var2
# P=movb
# HP1=orb
# HP2=movb
# PeepHole Optimization,var2
.Ll566:
	orb	$128,U_$UNIT6502_$$_STATUS(%rip)
	jmp	.Lj1059
.Lj1056:
# PeepHole Optimization,var3
.Ll567:
	andb	$-129,U_$UNIT6502_$$_STATUS(%rip)
.Lj1059:
.Ll568:
# [967] if (x and $00FF)<>0 then clearzero else setzero;
	movb	U_$UNIT6502_$$_X(%rip),%al
	testb	%al,%al
	je	.Lj1063
# PeepHole Optimization,var3
.Ll569:
	andb	$-3,U_$UNIT6502_$$_STATUS(%rip)
	jmp	.Lj1066
.Lj1063:
# PeepHole Optimization,var3
.Ll570:
	orb	$2,U_$UNIT6502_$$_STATUS(%rip)
.Lj1066:
.Ll571:
# [968] end;
	nop
	leaq	40(%rsp),%rsp
	ret
.seh_endproc
.Lc183:
.Lt67:
.Ll572:

.section .text.n_unit6502_$$_ldy,"x"
	.balign 16,0x90
.globl	UNIT6502_$$_LDY
UNIT6502_$$_LDY:
.Lc185:
.seh_proc UNIT6502_$$_LDY
.Ll573:
# [972] begin
	leaq	-40(%rsp),%rsp
.Lc187:
.seh_stackalloc 40
.seh_endprologue
.Ll574:
# [973] penaltyop := 1;
	movb	$1,U_$UNIT6502_$$_PENALTYOP(%rip)
.Ll575:
# [974] value := getvalue;;
	call	UNIT6502_$$_GETVALUE$$WORD
# PeepHole Optimization,MovMov2Mov1
	movw	%ax,U_$UNIT6502_$$_VALUE(%rip)
.Ll576:
# [975] y := (value and $00FF);
	andw	$255,%ax
# PeepHole Optimization,MovMov2Mov1
	movb	%al,U_$UNIT6502_$$_Y(%rip)
.Ll577:
# [976] if (y and $0080)<>0 then setsign else clearsign;
	andb	$128,%al
	testb	%al,%al
	je	.Lj1078
# PeepHole Optimization,var2
# P=movb
# HP1=orb
# HP2=movb
# PeepHole Optimization,var2
.Ll578:
	orb	$128,U_$UNIT6502_$$_STATUS(%rip)
	jmp	.Lj1081
.Lj1078:
# PeepHole Optimization,var3
.Ll579:
	andb	$-129,U_$UNIT6502_$$_STATUS(%rip)
.Lj1081:
.Ll580:
# [977] if (y and $00FF)<>0 then clearzero else setzero;
	movb	U_$UNIT6502_$$_Y(%rip),%al
	testb	%al,%al
	je	.Lj1085
# PeepHole Optimization,var3
.Ll581:
	andb	$-3,U_$UNIT6502_$$_STATUS(%rip)
	jmp	.Lj1088
.Lj1085:
# PeepHole Optimization,var3
.Ll582:
	orb	$2,U_$UNIT6502_$$_STATUS(%rip)
.Lj1088:
.Ll583:
# [978] end;
	nop
	leaq	40(%rsp),%rsp
	ret
.seh_endproc
.Lc186:
.Lt65:
.Ll584:

.section .text.n_unit6502_$$_lsr,"x"
	.balign 16,0x90
.globl	UNIT6502_$$_LSR
UNIT6502_$$_LSR:
.Lc188:
.seh_proc UNIT6502_$$_LSR
.Ll585:
# [982] begin
	leaq	-40(%rsp),%rsp
.Lc190:
.seh_stackalloc 40
.seh_endprologue
.Ll586:
# [983] value := getvalue and $FF;
	call	UNIT6502_$$_GETVALUE$$WORD
	andw	$255,%ax
	movw	%ax,U_$UNIT6502_$$_VALUE(%rip)
.Ll587:
# [984] aresult := value shr 1;
	movzwl	U_$UNIT6502_$$_VALUE(%rip),%eax
	shrl	$1,%eax
	movw	%ax,U_$UNIT6502_$$_ARESULT(%rip)
# PeepHole Optimization,var14
.Ll588:
# [985] if (value and 1)=1 then setcarry else clearcarry;
	movl	U_$UNIT6502_$$_VALUE(%rip),%eax
	andl	$1,%eax
	cmpl	$1,%eax
	jne	.Lj1098
# PeepHole Optimization,var3
.Ll589:
	orb	$1,U_$UNIT6502_$$_STATUS(%rip)
	jmp	.Lj1101
.Lj1098:
# PeepHole Optimization,var3
.Ll590:
	andb	$-2,U_$UNIT6502_$$_STATUS(%rip)
.Lj1101:
.Ll591:
# [986] if (aresult and $0080)<>0 then setsign else clearsign;
	movw	U_$UNIT6502_$$_ARESULT(%rip),%ax
	andw	$128,%ax
	testw	%ax,%ax
	je	.Lj1105
# PeepHole Optimization,var2
# P=movb
# HP1=orb
# HP2=movb
# PeepHole Optimization,var2
.Ll592:
	orb	$128,U_$UNIT6502_$$_STATUS(%rip)
	jmp	.Lj1108
.Lj1105:
# PeepHole Optimization,var3
.Ll593:
	andb	$-129,U_$UNIT6502_$$_STATUS(%rip)
.Lj1108:
.Ll594:
# [987] if (aresult and $00FF)<>0 then clearzero else setzero;
	movw	U_$UNIT6502_$$_ARESULT(%rip),%ax
	andw	$255,%ax
	testw	%ax,%ax
	je	.Lj1112
# PeepHole Optimization,var3
.Ll595:
	andb	$-3,U_$UNIT6502_$$_STATUS(%rip)
	jmp	.Lj1115
.Lj1112:
# PeepHole Optimization,var3
.Ll596:
	orb	$2,U_$UNIT6502_$$_STATUS(%rip)
.Lj1115:
.Ll597:
# [988] putvalue(aresult);
	movzwl	U_$UNIT6502_$$_ARESULT(%rip),%ecx
	call	UNIT6502_$$_PUTVALUE$WORD
.Ll598:
# [989] end;
	nop
	leaq	40(%rsp),%rsp
	ret
.seh_endproc
.Lc189:
.Lt44:
.Ll599:

.section .text.n_unit6502_$$_nop,"x"
	.balign 16,0x90
.globl	UNIT6502_$$_NOP
UNIT6502_$$_NOP:
.Lc191:
# [993] begin
.Ll600:
# [994] case opcode of
	movb	U_$UNIT6502_$$_OPCODE(%rip),%al
	cmpb	$28,%al
	jb	.Lj1123
	subb	$28,%al
	je	.Lj1124
	subb	$32,%al
	je	.Lj1125
	subb	$32,%al
	je	.Lj1126
	subb	$32,%al
	je	.Lj1127
	subb	$96,%al
	je	.Lj1128
	subb	$32,%al
	je	.Lj1129
	jmp	.Lj1123
.Lj1124:
.Ll601:
# [995] $1C:  penaltyop := 1;
	movb	$1,U_$UNIT6502_$$_PENALTYOP(%rip)
	jmp	.Lj1122
.Lj1125:
.Ll602:
# [996] $3C:  penaltyop := 1;
	movb	$1,U_$UNIT6502_$$_PENALTYOP(%rip)
	jmp	.Lj1122
.Lj1126:
.Ll603:
# [997] $5C:  penaltyop := 1;
	movb	$1,U_$UNIT6502_$$_PENALTYOP(%rip)
	jmp	.Lj1122
.Lj1127:
.Ll604:
# [998] $7C:  penaltyop := 1;
	movb	$1,U_$UNIT6502_$$_PENALTYOP(%rip)
	jmp	.Lj1122
.Lj1128:
.Ll605:
# [999] $DC:  penaltyop := 1;
	movb	$1,U_$UNIT6502_$$_PENALTYOP(%rip)
	jmp	.Lj1122
.Lj1129:
.Ll606:
# [1000] $FC:  penaltyop := 1;
	movb	$1,U_$UNIT6502_$$_PENALTYOP(%rip)
.Lj1123:
.Lj1122:
.Ll607:
# [1002] end;
	ret
.Lc192:
.Lt27:
.Ll608:

.section .text.n_unit6502_$$_ora,"x"
	.balign 16,0x90
.globl	UNIT6502_$$_ORA
UNIT6502_$$_ORA:
.Lc193:
.seh_proc UNIT6502_$$_ORA
.Ll609:
# [1006] begin
	leaq	-40(%rsp),%rsp
.Lc195:
.seh_stackalloc 40
.seh_endprologue
.Ll610:
# [1007] penaltyop := 1;
	movb	$1,U_$UNIT6502_$$_PENALTYOP(%rip)
.Ll611:
# [1008] value := getvalue;;
	call	UNIT6502_$$_GETVALUE$$WORD
	movw	%ax,U_$UNIT6502_$$_VALUE(%rip)
.Ll612:
# [1009] aresult := a or value;
	movzbw	U_$UNIT6502_$$_A(%rip),%dx
	movw	U_$UNIT6502_$$_VALUE(%rip),%ax
	orw	%dx,%ax
# PeepHole Optimization,MovMov2Mov1
	movw	%ax,U_$UNIT6502_$$_ARESULT(%rip)
.Ll613:
# [1010] if (aresult and $0080)<>0 then setsign else clearsign;
	andw	$128,%ax
	testw	%ax,%ax
	je	.Lj1151
# PeepHole Optimization,var2
# P=movb
# HP1=orb
# HP2=movb
# PeepHole Optimization,var2
.Ll614:
	orb	$128,U_$UNIT6502_$$_STATUS(%rip)
	jmp	.Lj1154
.Lj1151:
# PeepHole Optimization,var3
.Ll615:
	andb	$-129,U_$UNIT6502_$$_STATUS(%rip)
.Lj1154:
.Ll616:
# [1011] if (aresult and $00FF)<>0 then clearzero else setzero;
	movw	U_$UNIT6502_$$_ARESULT(%rip),%ax
	andw	$255,%ax
	testw	%ax,%ax
	je	.Lj1158
# PeepHole Optimization,var3
.Ll617:
	andb	$-3,U_$UNIT6502_$$_STATUS(%rip)
	jmp	.Lj1161
.Lj1158:
# PeepHole Optimization,var3
.Ll618:
	orb	$2,U_$UNIT6502_$$_STATUS(%rip)
.Lj1161:
.Ll619:
# [1012] a:=byte(aresult and $00FF);
	movw	U_$UNIT6502_$$_ARESULT(%rip),%ax
	andw	$255,%ax
	movb	%al,U_$UNIT6502_$$_A(%rip)
.Ll620:
# [1013] end;
	nop
	leaq	40(%rsp),%rsp
	ret
.seh_endproc
.Lc194:
.Lt26:
.Ll621:

.section .text.n_unit6502_$$_pha,"x"
	.balign 16,0x90
.globl	UNIT6502_$$_PHA
UNIT6502_$$_PHA:
.Lc196:
.seh_proc UNIT6502_$$_PHA
.Ll622:
# [1017] begin
	leaq	-40(%rsp),%rsp
.Lc198:
.seh_stackalloc 40
.seh_endprologue
.Ll623:
# [1018] push8(a);
	movzbw	U_$UNIT6502_$$_A(%rip),%ax
	movzwl	%ax,%ecx
	call	UNIT6502_$$_PUSH8$WORD
.Ll624:
# [1019] end;
	nop
	leaq	40(%rsp),%rsp
	ret
.seh_endproc
.Lc197:
.Lt45:
.Ll625:

.section .text.n_unit6502_$$_phc,"x"
	.balign 16,0x90
.globl	UNIT6502_$$_PHC
UNIT6502_$$_PHC:
.Lc199:
.seh_proc UNIT6502_$$_PHC
.Ll626:
# [1023] begin
	leaq	-40(%rsp),%rsp
.Lc201:
.seh_stackalloc 40
.seh_endprologue
.Ll627:
# [1024] push32(cs^ shr 8);
	movq	U_$UNIT6502_$$_CS(%rip),%rax
	movq	(%rax),%rcx
	shrq	$8,%rcx
	call	UNIT6502_$$_PUSH32$LONGWORD
.Ll628:
# [1025] end;
	nop
	leaq	40(%rsp),%rsp
	ret
.seh_endproc
.Lc200:
.Lt101:
.Ll629:

.section .text.n_unit6502_$$_phd,"x"
	.balign 16,0x90
.globl	UNIT6502_$$_PHD
UNIT6502_$$_PHD:
.Lc202:
.seh_proc UNIT6502_$$_PHD
.Ll630:
# [1029] begin
	leaq	-40(%rsp),%rsp
.Lc204:
.seh_stackalloc 40
.seh_endprologue
.Ll631:
# [1030] push32(ds^ shr 8);
	movq	U_$UNIT6502_$$_DS(%rip),%rax
	movq	(%rax),%rcx
	shrq	$8,%rcx
	call	UNIT6502_$$_PUSH32$LONGWORD
.Ll632:
# [1031] end;
	nop
	leaq	40(%rsp),%rsp
	ret
.seh_endproc
.Lc203:
.Lt102:
.Ll633:

.section .text.n_unit6502_$$_phx,"x"
	.balign 16,0x90
.globl	UNIT6502_$$_PHX
UNIT6502_$$_PHX:
.Lc205:
.seh_proc UNIT6502_$$_PHX
.Ll634:
# [1035] begin
	leaq	-40(%rsp),%rsp
.Lc207:
.seh_stackalloc 40
.seh_endprologue
.Ll635:
# [1036] push8(x);
	movzbw	U_$UNIT6502_$$_X(%rip),%ax
	movzwl	%ax,%ecx
	call	UNIT6502_$$_PUSH8$WORD
.Ll636:
# [1037] end;
	nop
	leaq	40(%rsp),%rsp
	ret
.seh_endproc
.Lc206:
.Lt90:
.Ll637:

.section .text.n_unit6502_$$_phy,"x"
	.balign 16,0x90
.globl	UNIT6502_$$_PHY
UNIT6502_$$_PHY:
.Lc208:
.seh_proc UNIT6502_$$_PHY
.Ll638:
# [1041] begin
	leaq	-40(%rsp),%rsp
.Lc210:
.seh_stackalloc 40
.seh_endprologue
.Ll639:
# [1042] push8(y);
	movzbw	U_$UNIT6502_$$_Y(%rip),%ax
	movzwl	%ax,%ecx
	call	UNIT6502_$$_PUSH8$WORD
.Ll640:
# [1043] end;
	nop
	leaq	40(%rsp),%rsp
	ret
.seh_endproc
.Lc209:
.Lt91:
.Ll641:

.section .text.n_unit6502_$$_php,"x"
	.balign 16,0x90
.globl	UNIT6502_$$_PHP
UNIT6502_$$_PHP:
.Lc211:
.seh_proc UNIT6502_$$_PHP
.Ll642:
# [1047] begin
	leaq	-40(%rsp),%rsp
.Lc213:
.seh_stackalloc 40
.seh_endprologue
.Ll643:
# [1048] push8(status or FLAG_BREAK);
	movzbl	U_$UNIT6502_$$_STATUS(%rip),%eax
	movl	%eax,%ecx
	orl	$16,%ecx
# PeepHole Optimization,var11
	andl	$65535,%ecx
	call	UNIT6502_$$_PUSH8$WORD
.Ll644:
# [1049] end;
	nop
	leaq	40(%rsp),%rsp
	ret
.seh_endproc
.Lc212:
.Lt32:
.Ll645:

.section .text.n_unit6502_$$_pla,"x"
	.balign 16,0x90
.globl	UNIT6502_$$_PLA
UNIT6502_$$_PLA:
.Lc214:
.seh_proc UNIT6502_$$_PLA
.Ll646:
# [1053] begin
	leaq	-40(%rsp),%rsp
.Lc216:
.seh_stackalloc 40
.seh_endprologue
.Ll647:
# [1054] a := pull8;
	call	UNIT6502_$$_PULL8$$BYTE
# PeepHole Optimization,MovMov2Mov1
	movb	%al,U_$UNIT6502_$$_A(%rip)
.Ll648:
# [1055] if (a and $0080)<>0 then setsign else clearsign;
	andb	$128,%al
	testb	%al,%al
	je	.Lj1195
# PeepHole Optimization,var2
# P=movb
# HP1=orb
# HP2=movb
# PeepHole Optimization,var2
.Ll649:
	orb	$128,U_$UNIT6502_$$_STATUS(%rip)
	jmp	.Lj1198
.Lj1195:
# PeepHole Optimization,var3
.Ll650:
	andb	$-129,U_$UNIT6502_$$_STATUS(%rip)
.Lj1198:
.Ll651:
# [1056] if (a and $00FF)<>0 then clearzero else setzero;
	movb	U_$UNIT6502_$$_A(%rip),%al
	testb	%al,%al
	je	.Lj1202
# PeepHole Optimization,var3
.Ll652:
	andb	$-3,U_$UNIT6502_$$_STATUS(%rip)
	jmp	.Lj1205
.Lj1202:
# PeepHole Optimization,var3
.Ll653:
	orb	$2,U_$UNIT6502_$$_STATUS(%rip)
.Lj1205:
.Ll654:
# [1057] end;
	nop
	leaq	40(%rsp),%rsp
	ret
.seh_endproc
.Lc215:
.Lt54:
.Ll655:

.section .text.n_unit6502_$$_plc,"x"
	.balign 16,0x90
.globl	UNIT6502_$$_PLC
UNIT6502_$$_PLC:
.Lc217:
.seh_proc UNIT6502_$$_PLC
.Ll656:
# [1061] begin
	leaq	-40(%rsp),%rsp
.Lc219:
.seh_stackalloc 40
.seh_endprologue
.Ll657:
# [1062] cs^:=pull32 shl 8;
	call	UNIT6502_$$_PULL32$$LONGWORD
	shll	$8,%eax
	andl	$4294967295,%eax
	movq	U_$UNIT6502_$$_CS(%rip),%rdx
	movq	%rax,(%rdx)
.Ll658:
# [1063] end;
	nop
	leaq	40(%rsp),%rsp
	ret
.seh_endproc
.Lc218:
.Lt104:
.Ll659:

.section .text.n_unit6502_$$_pld,"x"
	.balign 16,0x90
.globl	UNIT6502_$$_PLD
UNIT6502_$$_PLD:
.Lc220:
.seh_proc UNIT6502_$$_PLD
.Ll660:
# [1067] begin
	leaq	-40(%rsp),%rsp
.Lc222:
.seh_stackalloc 40
.seh_endprologue
.Ll661:
# [1068] ds^:=pull32 shl 8;
	call	UNIT6502_$$_PULL32$$LONGWORD
	shll	$8,%eax
	andl	$4294967295,%eax
	movq	U_$UNIT6502_$$_DS(%rip),%rdx
	movq	%rax,(%rdx)
.Ll662:
# [1069] end;
	nop
	leaq	40(%rsp),%rsp
	ret
.seh_endproc
.Lc221:
.Lt103:
.Ll663:

.section .text.n_unit6502_$$_plx,"x"
	.balign 16,0x90
.globl	UNIT6502_$$_PLX
UNIT6502_$$_PLX:
.Lc223:
.seh_proc UNIT6502_$$_PLX
.Ll664:
# [1073] begin
	leaq	-40(%rsp),%rsp
.Lc225:
.seh_stackalloc 40
.seh_endprologue
.Ll665:
# [1074] x := pull8;
	call	UNIT6502_$$_PULL8$$BYTE
# PeepHole Optimization,MovMov2Mov1
	movb	%al,U_$UNIT6502_$$_X(%rip)
.Ll666:
# [1075] if (x and $0080)<>0 then setsign else clearsign;
	andb	$128,%al
	testb	%al,%al
	je	.Lj1221
# PeepHole Optimization,var2
# P=movb
# HP1=orb
# HP2=movb
# PeepHole Optimization,var2
.Ll667:
	orb	$128,U_$UNIT6502_$$_STATUS(%rip)
	jmp	.Lj1224
.Lj1221:
# PeepHole Optimization,var3
.Ll668:
	andb	$-129,U_$UNIT6502_$$_STATUS(%rip)
.Lj1224:
.Ll669:
# [1076] if (x and $00FF)<>0 then clearzero else setzero;
	movb	U_$UNIT6502_$$_X(%rip),%al
	testb	%al,%al
	je	.Lj1228
# PeepHole Optimization,var3
.Ll670:
	andb	$-3,U_$UNIT6502_$$_STATUS(%rip)
	jmp	.Lj1231
.Lj1228:
# PeepHole Optimization,var3
.Ll671:
	orb	$2,U_$UNIT6502_$$_STATUS(%rip)
.Lj1231:
.Ll672:
# [1077] end;
	nop
	leaq	40(%rsp),%rsp
	ret
.seh_endproc
.Lc224:
.Lt92:
.Ll673:

.section .text.n_unit6502_$$_ply,"x"
	.balign 16,0x90
.globl	UNIT6502_$$_PLY
UNIT6502_$$_PLY:
.Lc226:
.seh_proc UNIT6502_$$_PLY
.Ll674:
# [1081] begin
	leaq	-40(%rsp),%rsp
.Lc228:
.seh_stackalloc 40
.seh_endprologue
.Ll675:
# [1082] y := pull8;
	call	UNIT6502_$$_PULL8$$BYTE
# PeepHole Optimization,MovMov2Mov1
	movb	%al,U_$UNIT6502_$$_Y(%rip)
.Ll676:
# [1083] if (y and $0080)<>0 then setsign else clearsign;
	andb	$128,%al
	testb	%al,%al
	je	.Lj1239
# PeepHole Optimization,var2
# P=movb
# HP1=orb
# HP2=movb
# PeepHole Optimization,var2
.Ll677:
	orb	$128,U_$UNIT6502_$$_STATUS(%rip)
	jmp	.Lj1242
.Lj1239:
# PeepHole Optimization,var3
.Ll678:
	andb	$-129,U_$UNIT6502_$$_STATUS(%rip)
.Lj1242:
.Ll679:
# [1084] if (y and $00FF)<>0 then clearzero else setzero;
	movb	U_$UNIT6502_$$_Y(%rip),%al
	testb	%al,%al
	je	.Lj1246
# PeepHole Optimization,var3
.Ll680:
	andb	$-3,U_$UNIT6502_$$_STATUS(%rip)
	jmp	.Lj1249
.Lj1246:
# PeepHole Optimization,var3
.Ll681:
	orb	$2,U_$UNIT6502_$$_STATUS(%rip)
.Lj1249:
.Ll682:
# [1085] end;
	nop
	leaq	40(%rsp),%rsp
	ret
.seh_endproc
.Lc227:
.Lt93:
.Ll683:

.section .text.n_unit6502_$$_plp,"x"
	.balign 16,0x90
.globl	UNIT6502_$$_PLP
UNIT6502_$$_PLP:
.Lc229:
.seh_proc UNIT6502_$$_PLP
.Ll684:
# [1089] begin
	leaq	-40(%rsp),%rsp
.Lc231:
.seh_stackalloc 40
.seh_endprologue
.Ll685:
# [1090] status := pull8 or FLAG_CONSTANT;
	call	UNIT6502_$$_PULL8$$BYTE
# PeepHole Optimization,var9
	andl	$255,%eax
	orl	$32,%eax
	movb	%al,U_$UNIT6502_$$_STATUS(%rip)
.Ll686:
# [1091] end;
	nop
	leaq	40(%rsp),%rsp
	ret
.seh_endproc
.Lc230:
.Lt39:
.Ll687:

.section .text.n_unit6502_$$_rol,"x"
	.balign 16,0x90
.globl	UNIT6502_$$_ROL
UNIT6502_$$_ROL:
.Lc232:
.seh_proc UNIT6502_$$_ROL
.Ll688:
# [1095] begin
	leaq	-40(%rsp),%rsp
.Lc234:
.seh_stackalloc 40
.seh_endprologue
.Ll689:
# [1096] value := getvalue;;
	call	UNIT6502_$$_GETVALUE$$WORD
	movw	%ax,U_$UNIT6502_$$_VALUE(%rip)
# PeepHole Optimization,var15
.Ll690:
# [1097] aresult := (value shl 1) or (status and FLAG_CARRY);
	movw	U_$UNIT6502_$$_STATUS(%rip),%ax
	andw	$1,%ax
	movswl	%ax,%eax
	movzwl	U_$UNIT6502_$$_VALUE(%rip),%edx
	shll	$1,%edx
	orl	%eax,%edx
# PeepHole Optimization,MovMov2MovMov1
	movw	%dx,U_$UNIT6502_$$_ARESULT(%rip)
.Ll691:
# [1098] if (aresult and $FF00) <>0 then setcarry else clearcarry;
	movw	%dx,%ax
	andw	$65280,%ax
	testw	%ax,%ax
	je	.Lj1263
# PeepHole Optimization,var3
.Ll692:
	orb	$1,U_$UNIT6502_$$_STATUS(%rip)
	jmp	.Lj1266
.Lj1263:
# PeepHole Optimization,var3
.Ll693:
	andb	$-2,U_$UNIT6502_$$_STATUS(%rip)
.Lj1266:
.Ll694:
# [1099] if (aresult and $00FF)<>0 then clearzero else setzero;
	movw	U_$UNIT6502_$$_ARESULT(%rip),%ax
	andw	$255,%ax
	testw	%ax,%ax
	je	.Lj1270
# PeepHole Optimization,var3
.Ll695:
	andb	$-3,U_$UNIT6502_$$_STATUS(%rip)
	jmp	.Lj1273
.Lj1270:
# PeepHole Optimization,var3
.Ll696:
	orb	$2,U_$UNIT6502_$$_STATUS(%rip)
.Lj1273:
.Ll697:
# [1100] if (aresult and $0080)<>0 then setsign else clearsign;
	movw	U_$UNIT6502_$$_ARESULT(%rip),%ax
	andw	$128,%ax
	testw	%ax,%ax
	je	.Lj1277
# PeepHole Optimization,var2
# P=movb
# HP1=orb
# HP2=movb
# PeepHole Optimization,var2
.Ll698:
	orb	$128,U_$UNIT6502_$$_STATUS(%rip)
	jmp	.Lj1280
.Lj1277:
# PeepHole Optimization,var3
.Ll699:
	andb	$-129,U_$UNIT6502_$$_STATUS(%rip)
.Lj1280:
.Ll700:
# [1101] putvalue(aresult);
	movzwl	U_$UNIT6502_$$_ARESULT(%rip),%ecx
	call	UNIT6502_$$_PUTVALUE$WORD
.Ll701:
# [1102] end;
	nop
	leaq	40(%rsp),%rsp
	ret
.seh_endproc
.Lc233:
.Lt37:
.Ll702:

.section .text.n_unit6502_$$_ror,"x"
	.balign 16,0x90
.globl	UNIT6502_$$_ROR
UNIT6502_$$_ROR:
.Lc235:
.seh_proc UNIT6502_$$_ROR
.Ll703:
# [1106] begin
	leaq	-40(%rsp),%rsp
.Lc237:
.seh_stackalloc 40
.seh_endprologue
.Ll704:
# [1107] value := getvalue;;
	call	UNIT6502_$$_GETVALUE$$WORD
	movw	%ax,U_$UNIT6502_$$_VALUE(%rip)
# PeepHole Optimization,var15
.Ll705:
# [1108] aresult := (value shr 1) or ((status and FLAG_CARRY) shl 7);
	movw	U_$UNIT6502_$$_STATUS(%rip),%ax
	andw	$1,%ax
	movswl	%ax,%eax
	shll	$7,%eax
	movzwl	U_$UNIT6502_$$_VALUE(%rip),%edx
	shrl	$1,%edx
	orl	%eax,%edx
	movw	%dx,U_$UNIT6502_$$_ARESULT(%rip)
# PeepHole Optimization,var14
.Ll706:
# [1109] if (value and 1)=1 then setcarry else clearcarry;
	movl	U_$UNIT6502_$$_VALUE(%rip),%eax
	andl	$1,%eax
	cmpl	$1,%eax
	jne	.Lj1292
# PeepHole Optimization,var3
.Ll707:
	orb	$1,U_$UNIT6502_$$_STATUS(%rip)
	jmp	.Lj1295
.Lj1292:
# PeepHole Optimization,var3
.Ll708:
	andb	$-2,U_$UNIT6502_$$_STATUS(%rip)
.Lj1295:
.Ll709:
# [1110] if (aresult and $00FF)<>0 then clearzero else setzero;
	movw	U_$UNIT6502_$$_ARESULT(%rip),%ax
	andw	$255,%ax
	testw	%ax,%ax
	je	.Lj1299
# PeepHole Optimization,var3
.Ll710:
	andb	$-3,U_$UNIT6502_$$_STATUS(%rip)
	jmp	.Lj1302
.Lj1299:
# PeepHole Optimization,var3
.Ll711:
	orb	$2,U_$UNIT6502_$$_STATUS(%rip)
.Lj1302:
.Ll712:
# [1111] if (aresult and $0080)<>0 then setsign else clearsign;
	movw	U_$UNIT6502_$$_ARESULT(%rip),%ax
	andw	$128,%ax
	testw	%ax,%ax
	je	.Lj1306
# PeepHole Optimization,var2
# P=movb
# HP1=orb
# HP2=movb
# PeepHole Optimization,var2
.Ll713:
	orb	$128,U_$UNIT6502_$$_STATUS(%rip)
	jmp	.Lj1309
.Lj1306:
# PeepHole Optimization,var3
.Ll714:
	andb	$-129,U_$UNIT6502_$$_STATUS(%rip)
.Lj1309:
.Ll715:
# [1112] putvalue(aresult);
	movzwl	U_$UNIT6502_$$_ARESULT(%rip),%ecx
	call	UNIT6502_$$_PUTVALUE$WORD
.Ll716:
# [1113] end;
	nop
	leaq	40(%rsp),%rsp
	ret
.seh_endproc
.Lc236:
.Lt53:
.Ll717:

.section .text.n_unit6502_$$_rti,"x"
	.balign 16,0x90
.globl	UNIT6502_$$_RTI
UNIT6502_$$_RTI:
.Lc238:
.seh_proc UNIT6502_$$_RTI
.Ll718:
# [1117] begin
	leaq	-40(%rsp),%rsp
.Lc240:
.seh_stackalloc 40
.seh_endprologue
.Ll719:
# [1118] status := pull8;
	call	UNIT6502_$$_PULL8$$BYTE
	movb	%al,U_$UNIT6502_$$_STATUS(%rip)
.Ll720:
# [1119] value := pull16;
	call	UNIT6502_$$_PULL16$$WORD
# PeepHole Optimization,MovMov2Mov1
	movw	%ax,U_$UNIT6502_$$_VALUE(%rip)
.Ll721:
# [1120] pc := value;
	movw	%ax,U_$UNIT6502_$$_PC(%rip)
.Ll722:
# [1121] cs:=@csa;
	leaq	U_$UNIT6502_$$_CSA(%rip),%rax
	movq	%rax,U_$UNIT6502_$$_CS(%rip)
.Ll723:
# [1122] ds:=@dsa;
	leaq	U_$UNIT6502_$$_DSA(%rip),%rax
	movq	%rax,U_$UNIT6502_$$_DS(%rip)
.Ll724:
# [1123] end;
	nop
	leaq	40(%rsp),%rsp
	ret
.seh_endproc
.Lc239:
.Lt41:
.Ll725:

.section .text.n_unit6502_$$_rts,"x"
	.balign 16,0x90
.globl	UNIT6502_$$_RTS
UNIT6502_$$_RTS:
.Lc241:
.seh_proc UNIT6502_$$_RTS
.Ll726:
# [1127] begin
	leaq	-40(%rsp),%rsp
.Lc243:
.seh_stackalloc 40
.seh_endprologue
.Ll727:
# [1128] value := pull16;
	call	UNIT6502_$$_PULL16$$WORD
	movw	%ax,U_$UNIT6502_$$_VALUE(%rip)
.Ll728:
# [1129] pc := value + 1;
	movzwl	U_$UNIT6502_$$_VALUE(%rip),%eax
	leal	1(%eax),%eax
	movw	%ax,U_$UNIT6502_$$_PC(%rip)
.Ll729:
# [1130] end;
	nop
	leaq	40(%rsp),%rsp
	ret
.seh_endproc
.Lc242:
.Lt49:
.Ll730:

.section .text.n_unit6502_$$_sbc,"x"
	.balign 16,0x90
.globl	UNIT6502_$$_SBC
UNIT6502_$$_SBC:
.Lc244:
.seh_proc UNIT6502_$$_SBC
.Ll731:
# [1134] begin
	leaq	-40(%rsp),%rsp
.Lc246:
.seh_stackalloc 40
.seh_endprologue
.Ll732:
# [1135] penaltyop := 1;
	movb	$1,U_$UNIT6502_$$_PENALTYOP(%rip)
.Ll733:
# [1136] value := getvalue xor $00FF;
	call	UNIT6502_$$_GETVALUE$$WORD
	xorw	$255,%ax
	movw	%ax,U_$UNIT6502_$$_VALUE(%rip)
.Ll734:
# [1137] aresult := word(a) + value + (status and FLAG_CARRY);
	movzbw	U_$UNIT6502_$$_A(%rip),%ax
# PeepHole Optimization,var11
	andl	$65535,%eax
	movzwl	U_$UNIT6502_$$_VALUE(%rip),%edx
	leal	(%eax,%edx),%edx
# PeepHole Optimization,var15
	movw	U_$UNIT6502_$$_STATUS(%rip),%ax
	andw	$1,%ax
	movswl	%ax,%eax
	leal	(%edx,%eax),%eax
# PeepHole Optimization,MovMov2Mov1
	movw	%ax,U_$UNIT6502_$$_ARESULT(%rip)
.Ll735:
# [1138] if (aresult and $FF00) <>0 then setcarry else clearcarry;
	andw	$65280,%ax
	testw	%ax,%ax
	je	.Lj1341
# PeepHole Optimization,var3
.Ll736:
	orb	$1,U_$UNIT6502_$$_STATUS(%rip)
	jmp	.Lj1344
.Lj1341:
# PeepHole Optimization,var3
.Ll737:
	andb	$-2,U_$UNIT6502_$$_STATUS(%rip)
.Lj1344:
.Ll738:
# [1139] if (aresult and $00FF)<>0 then clearzero else setzero;
	movw	U_$UNIT6502_$$_ARESULT(%rip),%ax
	andw	$255,%ax
	testw	%ax,%ax
	je	.Lj1348
# PeepHole Optimization,var3
.Ll739:
	andb	$-3,U_$UNIT6502_$$_STATUS(%rip)
	jmp	.Lj1351
.Lj1348:
# PeepHole Optimization,var3
.Ll740:
	orb	$2,U_$UNIT6502_$$_STATUS(%rip)
.Lj1351:
.Ll741:
# [1140] if ((aresult xor a) and (aresult xor value) and $0080)<>0 then setoverflow else clearoverflow;
	movzbw	U_$UNIT6502_$$_A(%rip),%dx
	movw	U_$UNIT6502_$$_ARESULT(%rip),%ax
	xorw	%dx,%ax
	movw	U_$UNIT6502_$$_ARESULT(%rip),%cx
	movw	U_$UNIT6502_$$_VALUE(%rip),%dx
	xorw	%cx,%dx
	andw	%ax,%dx
	andw	$128,%dx
	testw	%dx,%dx
	je	.Lj1355
# PeepHole Optimization,var3
.Ll742:
	orb	$64,U_$UNIT6502_$$_STATUS(%rip)
	jmp	.Lj1358
.Lj1355:
# PeepHole Optimization,var3
.Ll743:
	andb	$-65,U_$UNIT6502_$$_STATUS(%rip)
.Lj1358:
.Ll744:
# [1141] if (aresult and $0080)<>0 then setsign else clearsign;
	movw	U_$UNIT6502_$$_ARESULT(%rip),%ax
	andw	$128,%ax
	testw	%ax,%ax
	je	.Lj1362
# PeepHole Optimization,var2
# P=movb
# HP1=orb
# HP2=movb
# PeepHole Optimization,var2
.Ll745:
	orb	$128,U_$UNIT6502_$$_STATUS(%rip)
	jmp	.Lj1365
.Lj1362:
# PeepHole Optimization,var3
.Ll746:
	andb	$-129,U_$UNIT6502_$$_STATUS(%rip)
.Lj1365:
# PeepHole Optimization,var15
.Ll747:
# [1143] if (status and FLAG_DECIMAL)<>0 then
	movw	U_$UNIT6502_$$_STATUS(%rip),%ax
	andw	$8,%ax
	testw	%ax,%ax
	je	.Lj1369
.Ll748:
# [1145] inc(clockticks6502);
	addq	$1,TC_$UNIT6502_$$_CLOCKTICKS6502(%rip)
# PeepHole Optimization,var3
.Ll749:
	andb	$-2,U_$UNIT6502_$$_STATUS(%rip)
# PeepHole Optimization,var15
.Ll750:
# [1147] if ((a and $0F) > $09) then a += $06;
	movw	U_$UNIT6502_$$_A(%rip),%ax
	andw	$15,%ax
	cmpw	$9,%ax
	jng	.Lj1373
	movzbl	U_$UNIT6502_$$_A(%rip),%eax
	leal	6(%eax),%eax
	movb	%al,U_$UNIT6502_$$_A(%rip)
.Lj1373:
.Ll751:
# [1148] if ((a and $F0) > $90) then
	movb	U_$UNIT6502_$$_A(%rip),%al
	andb	$240,%al
	cmpb	$144,%al
	jna	.Lj1377
.Ll752:
# [1150] a += $60;
	movzbl	U_$UNIT6502_$$_A(%rip),%eax
	leal	96(%eax),%eax
	movb	%al,U_$UNIT6502_$$_A(%rip)
# PeepHole Optimization,var3
.Ll753:
	orb	$1,U_$UNIT6502_$$_STATUS(%rip)
.Lj1377:
.Lj1369:
.Ll754:
# [1155] a:=byte(aresult and $00FF);
	movw	U_$UNIT6502_$$_ARESULT(%rip),%ax
	andw	$255,%ax
	movb	%al,U_$UNIT6502_$$_A(%rip)
.Ll755:
# [1156] end;
	nop
	leaq	40(%rsp),%rsp
	ret
.seh_endproc
.Lc245:
.Lt86:
.Ll756:

.section .text.n_unit6502_$$_sec,"x"
	.balign 16,0x90
.globl	UNIT6502_$$_SEC
UNIT6502_$$_SEC:
.Lc247:
# [1160] begin
# PeepHole Optimization,var3
.Ll757:
	orb	$1,U_$UNIT6502_$$_STATUS(%rip)
.Ll758:
# [1162] end;
	ret
.Lc248:
.Lt40:
.Ll759:

.section .text.n_unit6502_$$_sed,"x"
	.balign 16,0x90
.globl	UNIT6502_$$_SED
UNIT6502_$$_SED:
.Lc249:
# [1166] begin
# PeepHole Optimization,var3
.Ll760:
# [223] {$define setdecimal:= status :=status or FLAG_DECIMAL}
	orb	$8,U_$UNIT6502_$$_STATUS(%rip)
.Ll761:
# [1168] end;
	ret
.Lc250:
.Lt88:
.Ll762:

.section .text.n_unit6502_$$_sei,"x"
	.balign 16,0x90
.globl	UNIT6502_$$_SEI
UNIT6502_$$_SEI:
.Lc251:
# [1172] begin
# PeepHole Optimization,var3
.Ll763:
	orb	$4,U_$UNIT6502_$$_STATUS(%rip)
.Ll764:
# [1174] end;
	ret
.Lc252:
.Lt55:
.Ll765:

.section .text.n_unit6502_$$_sta,"x"
	.balign 16,0x90
.globl	UNIT6502_$$_STA
UNIT6502_$$_STA:
.Lc253:
.seh_proc UNIT6502_$$_STA
.Ll766:
# [1178] begin
	leaq	-40(%rsp),%rsp
.Lc255:
.seh_stackalloc 40
.seh_endprologue
.Ll767:
# [1179] putvalue(a);
	movzbw	U_$UNIT6502_$$_A(%rip),%ax
	movzwl	%ax,%ecx
	call	UNIT6502_$$_PUTVALUE$WORD
.Ll768:
# [1180] end;
	nop
	leaq	40(%rsp),%rsp
	ret
.seh_endproc
.Lc254:
.Lt56:
.Ll769:

.section .text.n_unit6502_$$_stc,"x"
	.balign 16,0x90
.globl	UNIT6502_$$_STC
UNIT6502_$$_STC:
.Lc256:
.seh_proc UNIT6502_$$_STC
.Ll770:
# [1184] begin
	leaq	-40(%rsp),%rsp
.Lc258:
.seh_stackalloc 40
.seh_endprologue
.Ll771:
# [1185] putvalue32(cs^shr 8);
	movq	U_$UNIT6502_$$_CS(%rip),%rax
	movq	(%rax),%rcx
	shrq	$8,%rcx
	call	UNIT6502_$$_PUTVALUE32$LONGWORD
.Ll772:
# [1186] end;
	nop
	leaq	40(%rsp),%rsp
	ret
.seh_endproc
.Lc257:
.Lt98:
.Ll773:

.section .text.n_unit6502_$$_std,"x"
	.balign 16,0x90
.globl	UNIT6502_$$_STD
UNIT6502_$$_STD:
.Lc259:
.seh_proc UNIT6502_$$_STD
.Ll774:
# [1190] begin
	leaq	-40(%rsp),%rsp
.Lc261:
.seh_stackalloc 40
.seh_endprologue
.Ll775:
# [1191] putvalue32(ds^ shr 8);
	movq	U_$UNIT6502_$$_DS(%rip),%rax
	movq	(%rax),%rcx
	shrq	$8,%rcx
	call	UNIT6502_$$_PUTVALUE32$LONGWORD
.Ll776:
# [1192] end;
	nop
	leaq	40(%rsp),%rsp
	ret
.seh_endproc
.Lc260:
.Lt100:
.Ll777:

.section .text.n_unit6502_$$_stx,"x"
	.balign 16,0x90
.globl	UNIT6502_$$_STX
UNIT6502_$$_STX:
.Lc262:
.seh_proc UNIT6502_$$_STX
.Ll778:
# [1196] begin
	leaq	-40(%rsp),%rsp
.Lc264:
.seh_stackalloc 40
.seh_endprologue
.Ll779:
# [1197] putvalue(x);
	movzbw	U_$UNIT6502_$$_X(%rip),%ax
	movzwl	%ax,%ecx
	call	UNIT6502_$$_PUTVALUE$WORD
.Ll780:
# [1198] end;
	nop
	leaq	40(%rsp),%rsp
	ret
.seh_endproc
.Lc263:
.Lt58:
.Ll781:

.section .text.n_unit6502_$$_sty,"x"
	.balign 16,0x90
.globl	UNIT6502_$$_STY
UNIT6502_$$_STY:
.Lc265:
.seh_proc UNIT6502_$$_STY
.Ll782:
# [1202] begin
	leaq	-40(%rsp),%rsp
.Lc267:
.seh_stackalloc 40
.seh_endprologue
.Ll783:
# [1203] putvalue(y);
	movzbw	U_$UNIT6502_$$_Y(%rip),%ax
	movzwl	%ax,%ecx
	call	UNIT6502_$$_PUTVALUE$WORD
.Ll784:
# [1204] end;
	nop
	leaq	40(%rsp),%rsp
	ret
.seh_endproc
.Lc266:
.Lt59:
.Ll785:

.section .text.n_unit6502_$$_stz,"x"
	.balign 16,0x90
.globl	UNIT6502_$$_STZ
UNIT6502_$$_STZ:
.Lc268:
.seh_proc UNIT6502_$$_STZ
.Ll786:
# [1208] begin
	leaq	-40(%rsp),%rsp
.Lc270:
.seh_stackalloc 40
.seh_endprologue
.Ll787:
# [1209] putvalue(0);
	movl	$0,%eax
	movl	%eax,%ecx
	call	UNIT6502_$$_PUTVALUE$WORD
.Ll788:
# [1210] end;
	nop
	leaq	40(%rsp),%rsp
	ret
.seh_endproc
.Lc269:
.Lt94:
.Ll789:

.section .text.n_unit6502_$$_tax,"x"
	.balign 16,0x90
.globl	UNIT6502_$$_TAX
UNIT6502_$$_TAX:
.Lc271:
# [1214] begin
.Ll790:
# [1215] x := a;
	movb	U_$UNIT6502_$$_A(%rip),%al
# PeepHole Optimization,MovMov2Mov1
	movb	%al,U_$UNIT6502_$$_X(%rip)
.Ll791:
# [1216] if (x and $0080)<>0 then setsign else clearsign;
	andb	$128,%al
	testb	%al,%al
	je	.Lj1425
# PeepHole Optimization,var2
# P=movb
# HP1=orb
# HP2=movb
# PeepHole Optimization,var2
.Ll792:
	orb	$128,U_$UNIT6502_$$_STATUS(%rip)
	jmp	.Lj1428
.Lj1425:
# PeepHole Optimization,var3
.Ll793:
	andb	$-129,U_$UNIT6502_$$_STATUS(%rip)
.Lj1428:
.Ll794:
# [1217] if (x and $00FF)<>0 then clearzero else setzero;
	movb	U_$UNIT6502_$$_X(%rip),%al
	testb	%al,%al
	je	.Lj1432
# PeepHole Optimization,var3
.Ll795:
	andb	$-3,U_$UNIT6502_$$_STATUS(%rip)
	jmp	.Lj1435
.Lj1432:
# PeepHole Optimization,var3
.Ll796:
	orb	$2,U_$UNIT6502_$$_STATUS(%rip)
.Lj1435:
.Ll797:
# [1218] end;
	ret
.Lc272:
.Lt70:
.Ll798:

.section .text.n_unit6502_$$_tay,"x"
	.balign 16,0x90
.globl	UNIT6502_$$_TAY
UNIT6502_$$_TAY:
.Lc273:
# [1222] begin
.Ll799:
# [1223] y := a;
	movb	U_$UNIT6502_$$_A(%rip),%al
# PeepHole Optimization,MovMov2Mov1
	movb	%al,U_$UNIT6502_$$_Y(%rip)
.Ll800:
# [1224] if (y and $0080)<>0 then setsign else clearsign;
	andb	$128,%al
	testb	%al,%al
	je	.Lj1443
# PeepHole Optimization,var2
# P=movb
# HP1=orb
# HP2=movb
# PeepHole Optimization,var2
.Ll801:
	orb	$128,U_$UNIT6502_$$_STATUS(%rip)
	jmp	.Lj1446
.Lj1443:
# PeepHole Optimization,var3
.Ll802:
	andb	$-129,U_$UNIT6502_$$_STATUS(%rip)
.Lj1446:
.Ll803:
# [1225] if (y and $00FF)<>0 then clearzero else setzero;
	movb	U_$UNIT6502_$$_Y(%rip),%al
	testb	%al,%al
	je	.Lj1450
# PeepHole Optimization,var3
.Ll804:
	andb	$-3,U_$UNIT6502_$$_STATUS(%rip)
	jmp	.Lj1453
.Lj1450:
# PeepHole Optimization,var3
.Ll805:
	orb	$2,U_$UNIT6502_$$_STATUS(%rip)
.Lj1453:
.Ll806:
# [1226] end;
	ret
.Lc274:
.Lt69:
.Ll807:

.section .text.n_unit6502_$$_trb,"x"
	.balign 16,0x90
.globl	UNIT6502_$$_TRB
UNIT6502_$$_TRB:
.Lc275:
.seh_proc UNIT6502_$$_TRB
.Ll808:
# [1230] begin
	leaq	-40(%rsp),%rsp
.Lc277:
.seh_stackalloc 40
.seh_endprologue
.Ll809:
# [1231] value:=getvalue;
	call	UNIT6502_$$_GETVALUE$$WORD
	movw	%ax,U_$UNIT6502_$$_VALUE(%rip)
.Ll810:
# [1232] aresult:=value and (not a);
	movb	U_$UNIT6502_$$_A(%rip),%al
	notb	%al
# PeepHole Optimization,var7
	andw	$255,%ax
	movw	U_$UNIT6502_$$_VALUE(%rip),%dx
	andw	%ax,%dx
	movw	%dx,U_$UNIT6502_$$_ARESULT(%rip)
.Ll811:
# [1233] putvalue(aresult);
	movzwl	U_$UNIT6502_$$_ARESULT(%rip),%ecx
	call	UNIT6502_$$_PUTVALUE$WORD
.Ll812:
# [1234] if (aresult and $00FF)<>0 then clearzero else setzero;
	movw	U_$UNIT6502_$$_ARESULT(%rip),%ax
	andw	$255,%ax
	testw	%ax,%ax
	je	.Lj1465
# PeepHole Optimization,var3
.Ll813:
	andb	$-3,U_$UNIT6502_$$_STATUS(%rip)
	jmp	.Lj1468
.Lj1465:
# PeepHole Optimization,var3
.Ll814:
	orb	$2,U_$UNIT6502_$$_STATUS(%rip)
.Lj1468:
.Ll815:
# [1235] end;
	nop
	leaq	40(%rsp),%rsp
	ret
.seh_endproc
.Lc276:
.Lt95:
.Ll816:

.section .text.n_unit6502_$$_tsb,"x"
	.balign 16,0x90
.globl	UNIT6502_$$_TSB
UNIT6502_$$_TSB:
.Lc278:
.seh_proc UNIT6502_$$_TSB
.Ll817:
# [1239] begin
	leaq	-40(%rsp),%rsp
.Lc280:
.seh_stackalloc 40
.seh_endprologue
.Ll818:
# [1240] value:=getvalue;
	call	UNIT6502_$$_GETVALUE$$WORD
	movw	%ax,U_$UNIT6502_$$_VALUE(%rip)
.Ll819:
# [1241] aresult:=value or a;
	movzbw	U_$UNIT6502_$$_A(%rip),%dx
	movw	U_$UNIT6502_$$_VALUE(%rip),%ax
	orw	%dx,%ax
	movw	%ax,U_$UNIT6502_$$_ARESULT(%rip)
.Ll820:
# [1242] putvalue(aresult);
	movzwl	U_$UNIT6502_$$_ARESULT(%rip),%ecx
	call	UNIT6502_$$_PUTVALUE$WORD
.Ll821:
# [1243] if (aresult and $00FF)<>0 then clearzero else setzero;
	movw	U_$UNIT6502_$$_ARESULT(%rip),%ax
	andw	$255,%ax
	testw	%ax,%ax
	je	.Lj1480
# PeepHole Optimization,var3
.Ll822:
	andb	$-3,U_$UNIT6502_$$_STATUS(%rip)
	jmp	.Lj1483
.Lj1480:
# PeepHole Optimization,var3
.Ll823:
	orb	$2,U_$UNIT6502_$$_STATUS(%rip)
.Lj1483:
.Ll824:
# [1244] end;
	nop
	leaq	40(%rsp),%rsp
	ret
.seh_endproc
.Lc279:
.Lt96:
.Ll825:

.section .text.n_unit6502_$$_tsx,"x"
	.balign 16,0x90
.globl	UNIT6502_$$_TSX
UNIT6502_$$_TSX:
.Lc281:
# [1248] begin
.Ll826:
# [1249] x := sp;
	movb	U_$UNIT6502_$$_SP(%rip),%al
# PeepHole Optimization,MovMov2Mov1
	movb	%al,U_$UNIT6502_$$_X(%rip)
.Ll827:
# [1250] if (x and $0080)<>0 then setsign else clearsign;
	andb	$128,%al
	testb	%al,%al
	je	.Lj1491
# PeepHole Optimization,var2
# P=movb
# HP1=orb
# HP2=movb
# PeepHole Optimization,var2
.Ll828:
	orb	$128,U_$UNIT6502_$$_STATUS(%rip)
	jmp	.Lj1494
.Lj1491:
# PeepHole Optimization,var3
.Ll829:
	andb	$-129,U_$UNIT6502_$$_STATUS(%rip)
.Lj1494:
.Ll830:
# [1251] if (x and $00FF)<>0 then clearzero else setzero;
	movb	U_$UNIT6502_$$_X(%rip),%al
	testb	%al,%al
	je	.Lj1498
# PeepHole Optimization,var3
.Ll831:
	andb	$-3,U_$UNIT6502_$$_STATUS(%rip)
	jmp	.Lj1501
.Lj1498:
# PeepHole Optimization,var3
.Ll832:
	orb	$2,U_$UNIT6502_$$_STATUS(%rip)
.Lj1501:
.Ll833:
# [1252] end;
	ret
.Lc282:
.Lt73:
.Ll834:

.section .text.n_unit6502_$$_txa,"x"
	.balign 16,0x90
.globl	UNIT6502_$$_TXA
UNIT6502_$$_TXA:
.Lc283:
# [1256] begin
.Ll835:
# [1257] a := x;
	movb	U_$UNIT6502_$$_X(%rip),%al
# PeepHole Optimization,MovMov2Mov1
	movb	%al,U_$UNIT6502_$$_A(%rip)
.Ll836:
# [1258] if (a and $0080)<>0 then setsign else clearsign;
	andb	$128,%al
	testb	%al,%al
	je	.Lj1509
# PeepHole Optimization,var2
# P=movb
# HP1=orb
# HP2=movb
# PeepHole Optimization,var2
.Ll837:
	orb	$128,U_$UNIT6502_$$_STATUS(%rip)
	jmp	.Lj1512
.Lj1509:
# PeepHole Optimization,var3
.Ll838:
	andb	$-129,U_$UNIT6502_$$_STATUS(%rip)
.Lj1512:
.Ll839:
# [1259] if (a and $00FF)<>0 then clearzero else setzero;
	movb	U_$UNIT6502_$$_A(%rip),%al
	testb	%al,%al
	je	.Lj1516
# PeepHole Optimization,var3
.Ll840:
	andb	$-3,U_$UNIT6502_$$_STATUS(%rip)
	jmp	.Lj1519
.Lj1516:
# PeepHole Optimization,var3
.Ll841:
	orb	$2,U_$UNIT6502_$$_STATUS(%rip)
.Lj1519:
.Ll842:
# [1260] end;
	ret
.Lc284:
.Lt61:
.Ll843:

.section .text.n_unit6502_$$_txs,"x"
	.balign 16,0x90
.globl	UNIT6502_$$_TXS
UNIT6502_$$_TXS:
.Lc285:
# [1264] begin
.Ll844:
# [1265] sp := x;
	movb	U_$UNIT6502_$$_X(%rip),%al
	movb	%al,U_$UNIT6502_$$_SP(%rip)
.Ll845:
# [1266] end;
	ret
.Lc286:
.Lt64:
.Ll846:

.section .text.n_unit6502_$$_tya,"x"
	.balign 16,0x90
.globl	UNIT6502_$$_TYA
UNIT6502_$$_TYA:
.Lc287:
# [1270] begin
.Ll847:
# [1271] a := y;
	movb	U_$UNIT6502_$$_Y(%rip),%al
# PeepHole Optimization,MovMov2Mov1
	movb	%al,U_$UNIT6502_$$_A(%rip)
.Ll848:
# [1272] if (a and $0080)<>0 then setsign else clearsign;
	andb	$128,%al
	testb	%al,%al
	je	.Lj1531
# PeepHole Optimization,var2
# P=movb
# HP1=orb
# HP2=movb
# PeepHole Optimization,var2
.Ll849:
	orb	$128,U_$UNIT6502_$$_STATUS(%rip)
	jmp	.Lj1534
.Lj1531:
# PeepHole Optimization,var3
.Ll850:
	andb	$-129,U_$UNIT6502_$$_STATUS(%rip)
.Lj1534:
.Ll851:
# [1273] if (a and $00FF)<>0 then clearzero else setzero;
	movb	U_$UNIT6502_$$_A(%rip),%al
	testb	%al,%al
	je	.Lj1538
# PeepHole Optimization,var3
.Ll852:
	andb	$-3,U_$UNIT6502_$$_STATUS(%rip)
	jmp	.Lj1541
.Lj1538:
# PeepHole Optimization,var3
.Ll853:
	orb	$2,U_$UNIT6502_$$_STATUS(%rip)
.Lj1541:
.Ll854:
# [1274] end;
	ret
.Lc288:
.Lt63:
.Ll855:

.section .text.n_unit6502_$$_lax,"x"
	.balign 16,0x90
.globl	UNIT6502_$$_LAX
UNIT6502_$$_LAX:
.Lc289:
.seh_proc UNIT6502_$$_LAX
.Ll856:
# [1280] begin
	leaq	-40(%rsp),%rsp
.Lc291:
.seh_stackalloc 40
.seh_endprologue
.Ll857:
# [1281] lda;
	call	UNIT6502_$$_LDA
.Ll858:
# [1282] ldx;
	call	UNIT6502_$$_LDX
.Ll859:
# [1283] end;
	nop
	leaq	40(%rsp),%rsp
	ret
.seh_endproc
.Lc290:
.Lt68:
.Ll860:

.section .text.n_unit6502_$$_sax,"x"
	.balign 16,0x90
.globl	UNIT6502_$$_SAX
UNIT6502_$$_SAX:
.Lc292:
.seh_proc UNIT6502_$$_SAX
.Ll861:
# [1287] begin
	leaq	-40(%rsp),%rsp
.Lc294:
.seh_stackalloc 40
.seh_endprologue
.Ll862:
# [1288] sta;
	call	UNIT6502_$$_STA
.Ll863:
# [1289] stx;
	call	UNIT6502_$$_STX
.Ll864:
# [1290] putvalue(a and x);
	movb	U_$UNIT6502_$$_A(%rip),%al
	movb	U_$UNIT6502_$$_X(%rip),%cl
	andb	%al,%cl
# PeepHole Optimization,var7
# PeepHole Optimization,var1
# PeepHole Optimization,var11
	andl	$255,%ecx
	call	UNIT6502_$$_PUTVALUE$WORD
.Ll865:
# [1291] if (penaltyop<>0) and (penaltyaddr<>0) then dec (clockticks6502);
	cmpb	$0,U_$UNIT6502_$$_PENALTYOP(%rip)
	je	.Lj1551
	cmpb	$0,U_$UNIT6502_$$_PENALTYADDR(%rip)
	je	.Lj1551
	subq	$1,TC_$UNIT6502_$$_CLOCKTICKS6502(%rip)
.Lj1551:
.Ll866:
# [1292] end;
	nop
	leaq	40(%rsp),%rsp
	ret
.seh_endproc
.Lc293:
.Lt57:
.Ll867:

.section .text.n_unit6502_$$_dcp,"x"
	.balign 16,0x90
.globl	UNIT6502_$$_DCP
UNIT6502_$$_DCP:
.Lc295:
.seh_proc UNIT6502_$$_DCP
.Ll868:
# [1296] begin
	leaq	-40(%rsp),%rsp
.Lc297:
.seh_stackalloc 40
.seh_endprologue
.Ll869:
# [1297] dea;
	call	UNIT6502_$$_DEA
.Ll870:
# [1298] cmp;
	call	UNIT6502_$$_CMP
.Ll871:
# [1299] if (penaltyop<>0) and (penaltyaddr<>0) then dec (clockticks6502);
	cmpb	$0,U_$UNIT6502_$$_PENALTYOP(%rip)
	je	.Lj1556
	cmpb	$0,U_$UNIT6502_$$_PENALTYADDR(%rip)
	je	.Lj1556
	subq	$1,TC_$UNIT6502_$$_CLOCKTICKS6502(%rip)
.Lj1556:
.Ll872:
# [1300] end;
	nop
	leaq	40(%rsp),%rsp
	ret
.seh_endproc
.Lc296:
.Lt76:
.Ll873:

.section .text.n_unit6502_$$_isb,"x"
	.balign 16,0x90
.globl	UNIT6502_$$_ISB
UNIT6502_$$_ISB:
.Lc298:
.seh_proc UNIT6502_$$_ISB
.Ll874:
# [1304] begin
	leaq	-40(%rsp),%rsp
.Lc300:
.seh_stackalloc 40
.seh_endprologue
.Ll875:
# [1305] ina;
	call	UNIT6502_$$_INA
.Ll876:
# [1306] sbc;
	call	UNIT6502_$$_SBC
.Ll877:
# [1307] if (penaltyop<>0) and (penaltyaddr<>0) then dec (clockticks6502);
	cmpb	$0,U_$UNIT6502_$$_PENALTYOP(%rip)
	je	.Lj1561
	cmpb	$0,U_$UNIT6502_$$_PENALTYADDR(%rip)
	je	.Lj1561
	subq	$1,TC_$UNIT6502_$$_CLOCKTICKS6502(%rip)
.Lj1561:
.Ll878:
# [1308] end;
	nop
	leaq	40(%rsp),%rsp
	ret
.seh_endproc
.Lc299:
.Lt83:
.Ll879:

.section .text.n_unit6502_$$_slo,"x"
	.balign 16,0x90
.globl	UNIT6502_$$_SLO
UNIT6502_$$_SLO:
.Lc301:
.seh_proc UNIT6502_$$_SLO
.Ll880:
# [1312] begin
	leaq	-40(%rsp),%rsp
.Lc303:
.seh_stackalloc 40
.seh_endprologue
.Ll881:
# [1313] asl;
	call	UNIT6502_$$_ASL
.Ll882:
# [1314] ora;
	call	UNIT6502_$$_ORA
.Ll883:
# [1315] if (penaltyop<>0) and (penaltyaddr<>0) then dec (clockticks6502);
	cmpb	$0,U_$UNIT6502_$$_PENALTYOP(%rip)
	je	.Lj1566
	cmpb	$0,U_$UNIT6502_$$_PENALTYADDR(%rip)
	je	.Lj1566
	subq	$1,TC_$UNIT6502_$$_CLOCKTICKS6502(%rip)
.Lj1566:
.Ll884:
# [1316] end;
	nop
	leaq	40(%rsp),%rsp
	ret
.seh_endproc
.Lc302:
.Lt29:
.Ll885:

.section .text.n_unit6502_$$_rla,"x"
	.balign 16,0x90
.globl	UNIT6502_$$_RLA
UNIT6502_$$_RLA:
.Lc304:
.seh_proc UNIT6502_$$_RLA
.Ll886:
# [1321] begin
	leaq	-40(%rsp),%rsp
.Lc306:
.seh_stackalloc 40
.seh_endprologue
.Ll887:
# [1322] rol;
	call	UNIT6502_$$_ROL
.Ll888:
# [1323] ana;
	call	UNIT6502_$$_ANA
.Ll889:
# [1324] if (penaltyop<>0) and (penaltyaddr<>0) then dec (clockticks6502);
	cmpb	$0,U_$UNIT6502_$$_PENALTYOP(%rip)
	je	.Lj1571
	cmpb	$0,U_$UNIT6502_$$_PENALTYADDR(%rip)
	je	.Lj1571
	subq	$1,TC_$UNIT6502_$$_CLOCKTICKS6502(%rip)
.Lj1571:
.Ll890:
# [1325] end;
	nop
	leaq	40(%rsp),%rsp
	ret
.seh_endproc
.Lc305:
.Lt35:
.Ll891:

.section .text.n_unit6502_$$_sre,"x"
	.balign 16,0x90
.globl	UNIT6502_$$_SRE
UNIT6502_$$_SRE:
.Lc307:
.seh_proc UNIT6502_$$_SRE
.Ll892:
# [1329] begin
	leaq	-40(%rsp),%rsp
.Lc309:
.seh_stackalloc 40
.seh_endprologue
.Ll893:
# [1330] lsr;
	call	UNIT6502_$$_LSR
.Ll894:
# [1331] eor;
	call	UNIT6502_$$_EOR
.Ll895:
# [1332] if (penaltyop<>0) and (penaltyaddr<>0) then dec (clockticks6502);
	cmpb	$0,U_$UNIT6502_$$_PENALTYOP(%rip)
	je	.Lj1576
	cmpb	$0,U_$UNIT6502_$$_PENALTYADDR(%rip)
	je	.Lj1576
	subq	$1,TC_$UNIT6502_$$_CLOCKTICKS6502(%rip)
.Lj1576:
.Ll896:
# [1333] end;
	nop
	leaq	40(%rsp),%rsp
	ret
.seh_endproc
.Lc308:
.Lt43:
.Ll897:

.section .text.n_unit6502_$$_rra,"x"
	.balign 16,0x90
.globl	UNIT6502_$$_RRA
UNIT6502_$$_RRA:
.Lc310:
.seh_proc UNIT6502_$$_RRA
.Ll898:
# [1337] begin
	leaq	-40(%rsp),%rsp
.Lc312:
.seh_stackalloc 40
.seh_endprologue
.Ll899:
# [1338] ror;
	call	UNIT6502_$$_ROR
.Ll900:
# [1339] adc;
	call	UNIT6502_$$_ADC
.Ll901:
# [1340] if (penaltyop<>0) and (penaltyaddr<>0) then dec (clockticks6502);
	cmpb	$0,U_$UNIT6502_$$_PENALTYOP(%rip)
	je	.Lj1581
	cmpb	$0,U_$UNIT6502_$$_PENALTYADDR(%rip)
	je	.Lj1581
	subq	$1,TC_$UNIT6502_$$_CLOCKTICKS6502(%rip)
.Lj1581:
.Ll902:
# [1341] end;
	nop
	leaq	40(%rsp),%rsp
	ret
.seh_endproc
.Lc311:
.Lt52:
.Ll903:
# End asmlist al_procedures
# Begin asmlist al_globals

.section .bss
# [10] var ram:array[-2..65537] of byte;
	.globl U_$UNIT6502_$$_RAM
U_$UNIT6502_$$_RAM:
	.zero 65540

.section .bss
	.balign 2
# [232] var pc:word;
U_$UNIT6502_$$_PC:
	.zero 2

.section .bss
# [233] var sp,a,x,y,status:byte;
U_$UNIT6502_$$_SP:
	.zero 1

.section .bss
U_$UNIT6502_$$_A:
	.zero 1

.section .bss
U_$UNIT6502_$$_X:
	.zero 1

.section .bss
U_$UNIT6502_$$_Y:
	.zero 1

.section .bss
U_$UNIT6502_$$_STATUS:
	.zero 1

.section .bss
	.balign 2
# [239] oldpc,ea,reladdr,value,aresult:word;
U_$UNIT6502_$$_OLDPC:
	.zero 2

.section .bss
	.balign 2
U_$UNIT6502_$$_EA:
	.zero 2

.section .bss
	.balign 2
U_$UNIT6502_$$_RELADDR:
	.zero 2

.section .bss
	.balign 2
U_$UNIT6502_$$_VALUE:
	.zero 2

.section .bss
	.balign 2
U_$UNIT6502_$$_ARESULT:
	.zero 2

.section .bss
# [240] opcode:byte;
U_$UNIT6502_$$_OPCODE:
	.zero 1

.section .bss
# [241] penaltyop,penaltyaddr:byte;
U_$UNIT6502_$$_PENALTYOP:
	.zero 1

.section .bss
U_$UNIT6502_$$_PENALTYADDR:
	.zero 1

.section .bss
	.balign 8
# [242] csa,dsa,csi,dsi:int64;
U_$UNIT6502_$$_CSA:
	.zero 8

.section .bss
	.balign 8
U_$UNIT6502_$$_DSA:
	.zero 8

.section .bss
	.balign 8
U_$UNIT6502_$$_CSI:
	.zero 8

.section .bss
	.balign 8
U_$UNIT6502_$$_DSI:
	.zero 8

.section .bss
	.balign 8
# [243] cs,ds:^int64;
U_$UNIT6502_$$_CS:
	.zero 8

.section .bss
	.balign 8
U_$UNIT6502_$$_DS:
	.zero 8
# End asmlist al_globals
# Begin asmlist al_typedconsts

.section .data.n_tc_$unit6502_$$_instructions,"d"
	.balign 8
.globl	TC_$UNIT6502_$$_INSTRUCTIONS
TC_$UNIT6502_$$_INSTRUCTIONS:
	.quad	0
# [13] clockticks6502:int64=0;

.section .data.n_tc_$unit6502_$$_clockticks6502,"d"
	.balign 8
.globl	TC_$UNIT6502_$$_CLOCKTICKS6502
TC_$UNIT6502_$$_CLOCKTICKS6502:
	.quad	0
# [14] clockgoal6502:int64=0;

.section .data.n_tc_$unit6502_$$_clockgoal6502,"d"
	.balign 8
.globl	TC_$UNIT6502_$$_CLOCKGOAL6502
TC_$UNIT6502_$$_CLOCKGOAL6502:
	.quad	0
# [16] function read6502(address:int64):byte;

.section .data.n_tc_$unit6502_$$_addrtable,"d"
	.balign 8
TC_$UNIT6502_$$_ADDRTABLE:
	.quad	UNIT6502_$$_IMP
	.quad	UNIT6502_$$_INDX
	.quad	UNIT6502_$$_ABSO
	.quad	UNIT6502_$$_INDX
	.quad	UNIT6502_$$_ZP
	.quad	UNIT6502_$$_ZP
	.quad	UNIT6502_$$_ZP
	.quad	UNIT6502_$$_ZP
	.quad	UNIT6502_$$_IMP
	.quad	UNIT6502_$$_IMM
	.quad	UNIT6502_$$_ACC
	.quad	UNIT6502_$$_IMM
	.quad	UNIT6502_$$_ABSO
	.quad	UNIT6502_$$_ABSO
	.quad	UNIT6502_$$_ABSO
	.quad	UNIT6502_$$_ABSO
	.quad	UNIT6502_$$_REL
	.quad	UNIT6502_$$_INDY
	.quad	UNIT6502_$$_IZP
	.quad	UNIT6502_$$_INDY
	.quad	UNIT6502_$$_ZP
	.quad	UNIT6502_$$_ZPX
	.quad	UNIT6502_$$_ZPX
	.quad	UNIT6502_$$_ZPX
	.quad	UNIT6502_$$_IMP
	.quad	UNIT6502_$$_ABSY
	.quad	UNIT6502_$$_ACC
	.quad	UNIT6502_$$_ABSY
	.quad	UNIT6502_$$_ABSO
	.quad	UNIT6502_$$_ABSX
	.quad	UNIT6502_$$_ABSX
	.quad	UNIT6502_$$_ABSX
	.quad	UNIT6502_$$_ABSO
	.quad	UNIT6502_$$_INDX
	.quad	UNIT6502_$$_ABSO
	.quad	UNIT6502_$$_INDX
	.quad	UNIT6502_$$_ZP
	.quad	UNIT6502_$$_ZP
	.quad	UNIT6502_$$_ZP
	.quad	UNIT6502_$$_ZP
	.quad	UNIT6502_$$_IMP
	.quad	UNIT6502_$$_IMM
	.quad	UNIT6502_$$_ACC
	.quad	UNIT6502_$$_IMM
	.quad	UNIT6502_$$_ABSO
	.quad	UNIT6502_$$_ABSO
	.quad	UNIT6502_$$_ABSO
	.quad	UNIT6502_$$_ABSO
	.quad	UNIT6502_$$_REL
	.quad	UNIT6502_$$_INDY
	.quad	UNIT6502_$$_IZP
	.quad	UNIT6502_$$_INDY
	.quad	UNIT6502_$$_ZPX
	.quad	UNIT6502_$$_ZPX
	.quad	UNIT6502_$$_ZPX
	.quad	UNIT6502_$$_ZPX
	.quad	UNIT6502_$$_IMP
	.quad	UNIT6502_$$_ABSY
	.quad	UNIT6502_$$_ACC
	.quad	UNIT6502_$$_ABSY
	.quad	UNIT6502_$$_ABSX
	.quad	UNIT6502_$$_ABSX
	.quad	UNIT6502_$$_ABSX
	.quad	UNIT6502_$$_ABSX
	.quad	UNIT6502_$$_IMP
	.quad	UNIT6502_$$_INDX
	.quad	UNIT6502_$$_ABSO
	.quad	UNIT6502_$$_INDX
	.quad	UNIT6502_$$_IMP
	.quad	UNIT6502_$$_ZP
	.quad	UNIT6502_$$_ZP
	.quad	UNIT6502_$$_ZP
	.quad	UNIT6502_$$_IMP
	.quad	UNIT6502_$$_IMM
	.quad	UNIT6502_$$_ACC
	.quad	UNIT6502_$$_IMM
	.quad	UNIT6502_$$_ABSO
	.quad	UNIT6502_$$_ABSO
	.quad	UNIT6502_$$_ABSO
	.quad	UNIT6502_$$_ABSO
	.quad	UNIT6502_$$_REL
	.quad	UNIT6502_$$_INDY
	.quad	UNIT6502_$$_IZP
	.quad	UNIT6502_$$_INDY
	.quad	UNIT6502_$$_ZPX
	.quad	UNIT6502_$$_ZPX
	.quad	UNIT6502_$$_ZPX
	.quad	UNIT6502_$$_ZPX
	.quad	UNIT6502_$$_IMP
	.quad	UNIT6502_$$_ABSY
	.quad	UNIT6502_$$_IMP
	.quad	UNIT6502_$$_ABSY
	.quad	UNIT6502_$$_ABSX
	.quad	UNIT6502_$$_ABSX
	.quad	UNIT6502_$$_ABSX
	.quad	UNIT6502_$$_ABSX
	.quad	UNIT6502_$$_IMP
	.quad	UNIT6502_$$_INDX
	.quad	UNIT6502_$$_ABSO
	.quad	UNIT6502_$$_INDX
	.quad	UNIT6502_$$_ZP
	.quad	UNIT6502_$$_ZP
	.quad	UNIT6502_$$_ZP
	.quad	UNIT6502_$$_ZP
	.quad	UNIT6502_$$_IMP
	.quad	UNIT6502_$$_IMM
	.quad	UNIT6502_$$_ACC
	.quad	UNIT6502_$$_IMM
	.quad	UNIT6502_$$_IND
	.quad	UNIT6502_$$_ABSO
	.quad	UNIT6502_$$_ABSO
	.quad	UNIT6502_$$_ABSO
	.quad	UNIT6502_$$_REL
	.quad	UNIT6502_$$_INDY
	.quad	UNIT6502_$$_IZP
	.quad	UNIT6502_$$_INDY
	.quad	UNIT6502_$$_ZPX
	.quad	UNIT6502_$$_ZPX
	.quad	UNIT6502_$$_ZPX
	.quad	UNIT6502_$$_ZPX
	.quad	UNIT6502_$$_IMP
	.quad	UNIT6502_$$_ABSY
	.quad	UNIT6502_$$_IMP
	.quad	UNIT6502_$$_ABSY
	.quad	UNIT6502_$$_IAX
	.quad	UNIT6502_$$_ABSX
	.quad	UNIT6502_$$_ABSX
	.quad	UNIT6502_$$_ABSX
	.quad	UNIT6502_$$_IMM
	.quad	UNIT6502_$$_INDX
	.quad	UNIT6502_$$_IMP
	.quad	UNIT6502_$$_INDX
	.quad	UNIT6502_$$_ZP
	.quad	UNIT6502_$$_ZP
	.quad	UNIT6502_$$_ZP
	.quad	UNIT6502_$$_ZP
	.quad	UNIT6502_$$_IMP
	.quad	UNIT6502_$$_IMM
	.quad	UNIT6502_$$_IMP
	.quad	UNIT6502_$$_IMM
	.quad	UNIT6502_$$_ABSO
	.quad	UNIT6502_$$_ABSO
	.quad	UNIT6502_$$_ABSO
	.quad	UNIT6502_$$_ABSO
	.quad	UNIT6502_$$_REL
	.quad	UNIT6502_$$_INDY
	.quad	UNIT6502_$$_IZP
	.quad	UNIT6502_$$_INDY
	.quad	UNIT6502_$$_ZPX
	.quad	UNIT6502_$$_ZPX
	.quad	UNIT6502_$$_ZPY
	.quad	UNIT6502_$$_ZPY
	.quad	UNIT6502_$$_IMP
	.quad	UNIT6502_$$_ABSY
	.quad	UNIT6502_$$_IMP
	.quad	UNIT6502_$$_ABSY
	.quad	UNIT6502_$$_ABSO
	.quad	UNIT6502_$$_ABSX
	.quad	UNIT6502_$$_ABSX
	.quad	UNIT6502_$$_ABSY
	.quad	UNIT6502_$$_IMM
	.quad	UNIT6502_$$_INDX
	.quad	UNIT6502_$$_IMM
	.quad	UNIT6502_$$_INDX
	.quad	UNIT6502_$$_ZP
	.quad	UNIT6502_$$_ZP
	.quad	UNIT6502_$$_ZP
	.quad	UNIT6502_$$_ZP
	.quad	UNIT6502_$$_IMP
	.quad	UNIT6502_$$_IMM
	.quad	UNIT6502_$$_IMP
	.quad	UNIT6502_$$_IMM
	.quad	UNIT6502_$$_ABSO
	.quad	UNIT6502_$$_ABSO
	.quad	UNIT6502_$$_ABSO
	.quad	UNIT6502_$$_ABSO
	.quad	UNIT6502_$$_REL
	.quad	UNIT6502_$$_INDY
	.quad	UNIT6502_$$_IZP
	.quad	UNIT6502_$$_INDY
	.quad	UNIT6502_$$_ZPX
	.quad	UNIT6502_$$_ZPX
	.quad	UNIT6502_$$_ZPY
	.quad	UNIT6502_$$_ZPY
	.quad	UNIT6502_$$_IMP
	.quad	UNIT6502_$$_ABSY
	.quad	UNIT6502_$$_IMP
	.quad	UNIT6502_$$_ABSY
	.quad	UNIT6502_$$_ABSX
	.quad	UNIT6502_$$_ABSX
	.quad	UNIT6502_$$_ABSY
	.quad	UNIT6502_$$_ABSY
	.quad	UNIT6502_$$_IMM
	.quad	UNIT6502_$$_INDX
	.quad	UNIT6502_$$_IMP
	.quad	UNIT6502_$$_INDX
	.quad	UNIT6502_$$_ZP
	.quad	UNIT6502_$$_ZP
	.quad	UNIT6502_$$_ZP
	.quad	UNIT6502_$$_ZP
	.quad	UNIT6502_$$_IMP
	.quad	UNIT6502_$$_IMM
	.quad	UNIT6502_$$_IMP
	.quad	UNIT6502_$$_IMM
	.quad	UNIT6502_$$_ABSO
	.quad	UNIT6502_$$_ABSO
	.quad	UNIT6502_$$_ABSO
	.quad	UNIT6502_$$_ABSO
	.quad	UNIT6502_$$_REL
	.quad	UNIT6502_$$_INDY
	.quad	UNIT6502_$$_IZP
	.quad	UNIT6502_$$_INDY
	.quad	UNIT6502_$$_ZPX
	.quad	UNIT6502_$$_ZPX
	.quad	UNIT6502_$$_ZPX
	.quad	UNIT6502_$$_ZPX
	.quad	UNIT6502_$$_IMP
	.quad	UNIT6502_$$_ABSY
	.quad	UNIT6502_$$_IMP
	.quad	UNIT6502_$$_ABSY
	.quad	UNIT6502_$$_ABSX
	.quad	UNIT6502_$$_ABSX
	.quad	UNIT6502_$$_ABSX
	.quad	UNIT6502_$$_ABSX
	.quad	UNIT6502_$$_IMM
	.quad	UNIT6502_$$_INDX
	.quad	UNIT6502_$$_IMP
	.quad	UNIT6502_$$_INDX
	.quad	UNIT6502_$$_ZP
	.quad	UNIT6502_$$_ZP
	.quad	UNIT6502_$$_ZP
	.quad	UNIT6502_$$_ZP
	.quad	UNIT6502_$$_IMP
	.quad	UNIT6502_$$_IMM
	.quad	UNIT6502_$$_IMP
	.quad	UNIT6502_$$_IMM
	.quad	UNIT6502_$$_ABSO
	.quad	UNIT6502_$$_ABSO
	.quad	UNIT6502_$$_ABSO
	.quad	UNIT6502_$$_ABSO
	.quad	UNIT6502_$$_REL
	.quad	UNIT6502_$$_INDY
	.quad	UNIT6502_$$_IZP
	.quad	UNIT6502_$$_INDY
	.quad	UNIT6502_$$_ZPX
	.quad	UNIT6502_$$_ZPX
	.quad	UNIT6502_$$_ZPX
	.quad	UNIT6502_$$_ZPX
	.quad	UNIT6502_$$_IMP
	.quad	UNIT6502_$$_ABSY
	.quad	UNIT6502_$$_IMP
	.quad	UNIT6502_$$_ABSY
	.quad	UNIT6502_$$_ABSX
	.quad	UNIT6502_$$_ABSX
	.quad	UNIT6502_$$_ABSX
	.quad	UNIT6502_$$_ABSX
# [165] var optable:array[0..255] of TOpcode=(

.section .data.n_tc_$unit6502_$$_optable,"d"
	.balign 8
TC_$UNIT6502_$$_OPTABLE:
	.quad	UNIT6502_$$_BRK
	.quad	UNIT6502_$$_ORA
	.quad	UNIT6502_$$_LDC
	.quad	UNIT6502_$$_SLO
	.quad	UNIT6502_$$_TSB
	.quad	UNIT6502_$$_ORA
	.quad	UNIT6502_$$_ASL
	.quad	UNIT6502_$$_SLO
	.quad	UNIT6502_$$_PHP
	.quad	UNIT6502_$$_ORA
	.quad	UNIT6502_$$_ASL
	.quad	UNIT6502_$$_NOP
	.quad	UNIT6502_$$_TSB
	.quad	UNIT6502_$$_ORA
	.quad	UNIT6502_$$_ASL
	.quad	UNIT6502_$$_SLO
	.quad	UNIT6502_$$_BPL
	.quad	UNIT6502_$$_ORA
	.quad	UNIT6502_$$_ORA
	.quad	UNIT6502_$$_SLO
	.quad	UNIT6502_$$_TRB
	.quad	UNIT6502_$$_ORA
	.quad	UNIT6502_$$_ASL
	.quad	UNIT6502_$$_SLO
	.quad	UNIT6502_$$_CLC
	.quad	UNIT6502_$$_ORA
	.quad	UNIT6502_$$_INA
	.quad	UNIT6502_$$_SLO
	.quad	UNIT6502_$$_TRB
	.quad	UNIT6502_$$_ORA
	.quad	UNIT6502_$$_ASL
	.quad	UNIT6502_$$_SLO
	.quad	UNIT6502_$$_JSR
	.quad	UNIT6502_$$_ANA
	.quad	UNIT6502_$$_LDD
	.quad	UNIT6502_$$_RLA
	.quad	UNIT6502_$$_BIT
	.quad	UNIT6502_$$_ANA
	.quad	UNIT6502_$$_ROL
	.quad	UNIT6502_$$_RLA
	.quad	UNIT6502_$$_PLP
	.quad	UNIT6502_$$_ANA
	.quad	UNIT6502_$$_ROL
	.quad	UNIT6502_$$_NOP
	.quad	UNIT6502_$$_BIT
	.quad	UNIT6502_$$_ANA
	.quad	UNIT6502_$$_ROL
	.quad	UNIT6502_$$_RLA
	.quad	UNIT6502_$$_BMI
	.quad	UNIT6502_$$_ANA
	.quad	UNIT6502_$$_ANA
	.quad	UNIT6502_$$_RLA
	.quad	UNIT6502_$$_BIT
	.quad	UNIT6502_$$_ANA
	.quad	UNIT6502_$$_ROL
	.quad	UNIT6502_$$_RLA
	.quad	UNIT6502_$$_SEC
	.quad	UNIT6502_$$_ANA
	.quad	UNIT6502_$$_DEA
	.quad	UNIT6502_$$_RLA
	.quad	UNIT6502_$$_BIT
	.quad	UNIT6502_$$_ANA
	.quad	UNIT6502_$$_ROL
	.quad	UNIT6502_$$_RLA
	.quad	UNIT6502_$$_RTI
	.quad	UNIT6502_$$_EOR
	.quad	UNIT6502_$$_STC
	.quad	UNIT6502_$$_SRE
	.quad	UNIT6502_$$_PLD
	.quad	UNIT6502_$$_EOR
	.quad	UNIT6502_$$_LSR
	.quad	UNIT6502_$$_SRE
	.quad	UNIT6502_$$_PHA
	.quad	UNIT6502_$$_EOR
	.quad	UNIT6502_$$_LSR
	.quad	UNIT6502_$$_NOP
	.quad	UNIT6502_$$_JMP
	.quad	UNIT6502_$$_EOR
	.quad	UNIT6502_$$_LSR
	.quad	UNIT6502_$$_SRE
	.quad	UNIT6502_$$_BVC
	.quad	UNIT6502_$$_EOR
	.quad	UNIT6502_$$_EOR
	.quad	UNIT6502_$$_SRE
	.quad	UNIT6502_$$_NOP
	.quad	UNIT6502_$$_EOR
	.quad	UNIT6502_$$_LSR
	.quad	UNIT6502_$$_SRE
	.quad	UNIT6502_$$_CLI
	.quad	UNIT6502_$$_EOR
	.quad	UNIT6502_$$_PHY
	.quad	UNIT6502_$$_SRE
	.quad	UNIT6502_$$_NOP
	.quad	UNIT6502_$$_EOR
	.quad	UNIT6502_$$_LSR
	.quad	UNIT6502_$$_SRE
	.quad	UNIT6502_$$_RTS
	.quad	UNIT6502_$$_ADC
	.quad	UNIT6502_$$_STD
	.quad	UNIT6502_$$_RRA
	.quad	UNIT6502_$$_STZ
	.quad	UNIT6502_$$_ADC
	.quad	UNIT6502_$$_ROR
	.quad	UNIT6502_$$_RRA
	.quad	UNIT6502_$$_PLA
	.quad	UNIT6502_$$_ADC
	.quad	UNIT6502_$$_ROR
	.quad	UNIT6502_$$_NOP
	.quad	UNIT6502_$$_JMP
	.quad	UNIT6502_$$_ADC
	.quad	UNIT6502_$$_ROR
	.quad	UNIT6502_$$_RRA
	.quad	UNIT6502_$$_BVS
	.quad	UNIT6502_$$_ADC
	.quad	UNIT6502_$$_ADC
	.quad	UNIT6502_$$_RRA
	.quad	UNIT6502_$$_STZ
	.quad	UNIT6502_$$_ADC
	.quad	UNIT6502_$$_ROR
	.quad	UNIT6502_$$_RRA
	.quad	UNIT6502_$$_SEI
	.quad	UNIT6502_$$_ADC
	.quad	UNIT6502_$$_PLY
	.quad	UNIT6502_$$_RRA
	.quad	UNIT6502_$$_JMP
	.quad	UNIT6502_$$_ADC
	.quad	UNIT6502_$$_ROR
	.quad	UNIT6502_$$_RRA
	.quad	UNIT6502_$$_BRA
	.quad	UNIT6502_$$_STA
	.quad	UNIT6502_$$_PLC
	.quad	UNIT6502_$$_SAX
	.quad	UNIT6502_$$_STY
	.quad	UNIT6502_$$_STA
	.quad	UNIT6502_$$_STX
	.quad	UNIT6502_$$_SAX
	.quad	UNIT6502_$$_DEY
	.quad	UNIT6502_$$_BIT
	.quad	UNIT6502_$$_TXA
	.quad	UNIT6502_$$_NOP
	.quad	UNIT6502_$$_STY
	.quad	UNIT6502_$$_STA
	.quad	UNIT6502_$$_STX
	.quad	UNIT6502_$$_SAX
	.quad	UNIT6502_$$_BCC
	.quad	UNIT6502_$$_STA
	.quad	UNIT6502_$$_STA
	.quad	UNIT6502_$$_NOP
	.quad	UNIT6502_$$_STY
	.quad	UNIT6502_$$_STA
	.quad	UNIT6502_$$_STX
	.quad	UNIT6502_$$_SAX
	.quad	UNIT6502_$$_TYA
	.quad	UNIT6502_$$_STA
	.quad	UNIT6502_$$_TXS
	.quad	UNIT6502_$$_NOP
	.quad	UNIT6502_$$_STZ
	.quad	UNIT6502_$$_STA
	.quad	UNIT6502_$$_STZ
	.quad	UNIT6502_$$_NOP
	.quad	UNIT6502_$$_LDY
	.quad	UNIT6502_$$_LDA
	.quad	UNIT6502_$$_LDX
	.quad	UNIT6502_$$_LAX
	.quad	UNIT6502_$$_LDY
	.quad	UNIT6502_$$_LDA
	.quad	UNIT6502_$$_LDX
	.quad	UNIT6502_$$_LAX
	.quad	UNIT6502_$$_TAY
	.quad	UNIT6502_$$_LDA
	.quad	UNIT6502_$$_TAX
	.quad	UNIT6502_$$_NOP
	.quad	UNIT6502_$$_LDY
	.quad	UNIT6502_$$_LDA
	.quad	UNIT6502_$$_LDX
	.quad	UNIT6502_$$_LAX
	.quad	UNIT6502_$$_BCS
	.quad	UNIT6502_$$_LDA
	.quad	UNIT6502_$$_LDA
	.quad	UNIT6502_$$_LAX
	.quad	UNIT6502_$$_LDY
	.quad	UNIT6502_$$_LDA
	.quad	UNIT6502_$$_LDX
	.quad	UNIT6502_$$_LAX
	.quad	UNIT6502_$$_CLV
	.quad	UNIT6502_$$_LDA
	.quad	UNIT6502_$$_TSX
	.quad	UNIT6502_$$_LAX
	.quad	UNIT6502_$$_LDY
	.quad	UNIT6502_$$_LDA
	.quad	UNIT6502_$$_LDX
	.quad	UNIT6502_$$_LAX
	.quad	UNIT6502_$$_CPY
	.quad	UNIT6502_$$_CMP
	.quad	UNIT6502_$$_PHC
	.quad	UNIT6502_$$_DCP
	.quad	UNIT6502_$$_CPY
	.quad	UNIT6502_$$_CMP
	.quad	UNIT6502_$$_DEA
	.quad	UNIT6502_$$_DCP
	.quad	UNIT6502_$$_INY
	.quad	UNIT6502_$$_CMP
	.quad	UNIT6502_$$_DEX
	.quad	UNIT6502_$$_NOP
	.quad	UNIT6502_$$_CPY
	.quad	UNIT6502_$$_CMP
	.quad	UNIT6502_$$_DEA
	.quad	UNIT6502_$$_DCP
	.quad	UNIT6502_$$_BNE
	.quad	UNIT6502_$$_CMP
	.quad	UNIT6502_$$_CMP
	.quad	UNIT6502_$$_DCP
	.quad	UNIT6502_$$_NOP
	.quad	UNIT6502_$$_CMP
	.quad	UNIT6502_$$_DEA
	.quad	UNIT6502_$$_DCP
	.quad	UNIT6502_$$_CLD
	.quad	UNIT6502_$$_CMP
	.quad	UNIT6502_$$_PHX
	.quad	UNIT6502_$$_DCP
	.quad	UNIT6502_$$_NOP
	.quad	UNIT6502_$$_CMP
	.quad	UNIT6502_$$_DEA
	.quad	UNIT6502_$$_DCP
	.quad	UNIT6502_$$_CPX
	.quad	UNIT6502_$$_SBC
	.quad	UNIT6502_$$_PHD
	.quad	UNIT6502_$$_ISB
	.quad	UNIT6502_$$_CPX
	.quad	UNIT6502_$$_SBC
	.quad	UNIT6502_$$_INA
	.quad	UNIT6502_$$_ISB
	.quad	UNIT6502_$$_INX
	.quad	UNIT6502_$$_SBC
	.quad	UNIT6502_$$_NOP
	.quad	UNIT6502_$$_SBC
	.quad	UNIT6502_$$_CPX
	.quad	UNIT6502_$$_SBC
	.quad	UNIT6502_$$_INA
	.quad	UNIT6502_$$_ISB
	.quad	UNIT6502_$$_BEQ
	.quad	UNIT6502_$$_SBC
	.quad	UNIT6502_$$_SBC
	.quad	UNIT6502_$$_ISB
	.quad	UNIT6502_$$_NOP
	.quad	UNIT6502_$$_SBC
	.quad	UNIT6502_$$_INA
	.quad	UNIT6502_$$_ISB
	.quad	UNIT6502_$$_SED
	.quad	UNIT6502_$$_SBC
	.quad	UNIT6502_$$_PLX
	.quad	UNIT6502_$$_ISB
	.quad	UNIT6502_$$_NOP
	.quad	UNIT6502_$$_SBC
	.quad	UNIT6502_$$_INA
	.quad	UNIT6502_$$_ISB
# [185] var ticktable:array[0..255] of byte = (

.section .data.n_tc_$unit6502_$$_ticktable,"d"
TC_$UNIT6502_$$_TICKTABLE:
	.byte	7,6,7,8,5,3,5,5,3,2,2,2,6,4,6,6,2,5,5,8,5,4,6,6,2,4,2,7,6,4,7,7,6,6,7,8,3,3,5,5,4,2,2,2,4,4,6,6,2,5,5,8,4,4,6,6,2,4,2,7,4,4,7,7,6,6,7,8,7,3,5
	.byte	5,3,2,2,2,3,4,6,6,2,5,5,8,4,4,6,6,2,4,3,7,4,4,7,7,6,6,7,8,3,3,5,5,4,2,2,2,5,4,6,6,2,5,5,8,4,4,6,6,2,4,4,7,6,4,7,7,3,6,7,6,3,3,3,3,2,2,2,2,4,4
	.byte	4,4,2,6,5,6,4,4,4,4,2,5,2,5,4,5,5,5,2,6,2,6,3,3,3,3,2,2,2,2,4,4,4,4,2,5,5,5,4,4,4,4,2,4,2,4,4,4,4,4,2,6,6,8,3,3,5,5,2,2,2,2,4,4,6,6,2,5,5,8,4
	.byte	4,6,6,2,4,3,7,4,4,7,7,2,6,6,8,3,3,5,5,2,2,2,2,4,4,6,6,2,5,5,8,4,4,6,6,2,4,4,7,4,4,7,7
# End asmlist al_typedconsts
# Begin asmlist al_dwarf_frame

.section .debug_frame
.Lc313:
	.long	.Lc315-.Lc314
.Lc314:
	.long	-1
	.byte	1
	.byte	0
	.uleb128	1
	.sleb128	-4
	.byte	16
	.byte	12
	.uleb128	7
	.uleb128	8
	.byte	5
	.uleb128	16
	.uleb128	2
	.balign 4,0
.Lc315:
	.long	.Lc317-.Lc316
.Lc316:
	.secrel32	.Lc313
	.quad	.Lc1
	.quad	.Lc2-.Lc1
	.balign 4,0
.Lc317:
	.long	.Lc319-.Lc318
.Lc318:
	.secrel32	.Lc313
	.quad	.Lc3
	.quad	.Lc4-.Lc3
	.balign 4,0
.Lc319:
	.long	.Lc321-.Lc320
.Lc320:
	.secrel32	.Lc313
	.quad	.Lc5
	.quad	.Lc6-.Lc5
	.byte	4
	.long	.Lc7-.Lc5
	.byte	14
	.uleb128	40
	.balign 4,0
.Lc321:
	.long	.Lc323-.Lc322
.Lc322:
	.secrel32	.Lc313
	.quad	.Lc8
	.quad	.Lc9-.Lc8
	.byte	4
	.long	.Lc10-.Lc8
	.byte	14
	.uleb128	40
	.balign 4,0
.Lc323:
	.long	.Lc325-.Lc324
.Lc324:
	.secrel32	.Lc313
	.quad	.Lc11
	.quad	.Lc12-.Lc11
	.byte	4
	.long	.Lc13-.Lc11
	.byte	14
	.uleb128	48
	.balign 4,0
.Lc325:
	.long	.Lc327-.Lc326
.Lc326:
	.secrel32	.Lc313
	.quad	.Lc14
	.quad	.Lc15-.Lc14
	.byte	4
	.long	.Lc16-.Lc14
	.byte	14
	.uleb128	40
	.balign 4,0
.Lc327:
	.long	.Lc329-.Lc328
.Lc328:
	.secrel32	.Lc313
	.quad	.Lc17
	.quad	.Lc18-.Lc17
	.byte	4
	.long	.Lc19-.Lc17
	.byte	14
	.uleb128	40
	.balign 4,0
.Lc329:
	.long	.Lc331-.Lc330
.Lc330:
	.secrel32	.Lc313
	.quad	.Lc20
	.quad	.Lc21-.Lc20
	.byte	4
	.long	.Lc22-.Lc20
	.byte	14
	.uleb128	48
	.balign 4,0
.Lc331:
	.long	.Lc333-.Lc332
.Lc332:
	.secrel32	.Lc313
	.quad	.Lc23
	.quad	.Lc24-.Lc23
	.byte	4
	.long	.Lc25-.Lc23
	.byte	14
	.uleb128	40
	.balign 4,0
.Lc333:
	.long	.Lc335-.Lc334
.Lc334:
	.secrel32	.Lc313
	.quad	.Lc26
	.quad	.Lc27-.Lc26
	.byte	4
	.long	.Lc28-.Lc26
	.byte	14
	.uleb128	48
	.balign 4,0
.Lc335:
	.long	.Lc337-.Lc336
.Lc336:
	.secrel32	.Lc313
	.quad	.Lc29
	.quad	.Lc30-.Lc29
	.byte	4
	.long	.Lc31-.Lc29
	.byte	14
	.uleb128	40
	.balign 4,0
.Lc337:
	.long	.Lc339-.Lc338
.Lc338:
	.secrel32	.Lc313
	.quad	.Lc32
	.quad	.Lc33-.Lc32
	.byte	4
	.long	.Lc34-.Lc32
	.byte	14
	.uleb128	48
	.balign 4,0
.Lc339:
	.long	.Lc341-.Lc340
.Lc340:
	.secrel32	.Lc313
	.quad	.Lc35
	.quad	.Lc36-.Lc35
	.byte	4
	.long	.Lc37-.Lc35
	.byte	14
	.uleb128	48
	.balign 4,0
.Lc341:
	.long	.Lc343-.Lc342
.Lc342:
	.secrel32	.Lc313
	.quad	.Lc38
	.quad	.Lc39-.Lc38
	.byte	4
	.long	.Lc40-.Lc38
	.byte	14
	.uleb128	40
	.balign 4,0
.Lc343:
	.long	.Lc345-.Lc344
.Lc344:
	.secrel32	.Lc313
	.quad	.Lc41
	.quad	.Lc42-.Lc41
	.byte	4
	.long	.Lc43-.Lc41
	.byte	14
	.uleb128	40
	.balign 4,0
.Lc345:
	.long	.Lc347-.Lc346
.Lc346:
	.secrel32	.Lc313
	.quad	.Lc44
	.quad	.Lc45-.Lc44
	.byte	4
	.long	.Lc46-.Lc44
	.byte	14
	.uleb128	40
	.balign 4,0
.Lc347:
	.long	.Lc349-.Lc348
.Lc348:
	.secrel32	.Lc313
	.quad	.Lc47
	.quad	.Lc48-.Lc47
	.byte	4
	.long	.Lc49-.Lc47
	.byte	14
	.uleb128	48
	.balign 4,0
.Lc349:
	.long	.Lc351-.Lc350
.Lc350:
	.secrel32	.Lc313
	.quad	.Lc50
	.quad	.Lc51-.Lc50
	.byte	4
	.long	.Lc52-.Lc50
	.byte	14
	.uleb128	48
	.balign 4,0
.Lc351:
	.long	.Lc353-.Lc352
.Lc352:
	.secrel32	.Lc313
	.quad	.Lc53
	.quad	.Lc54-.Lc53
	.byte	4
	.long	.Lc55-.Lc53
	.byte	14
	.uleb128	48
	.balign 4,0
.Lc353:
	.long	.Lc355-.Lc354
.Lc354:
	.secrel32	.Lc313
	.quad	.Lc56
	.quad	.Lc57-.Lc56
	.byte	4
	.long	.Lc58-.Lc56
	.byte	14
	.uleb128	40
	.balign 4,0
.Lc355:
	.long	.Lc357-.Lc356
.Lc356:
	.secrel32	.Lc313
	.quad	.Lc59
	.quad	.Lc60-.Lc59
	.balign 4,0
.Lc357:
	.long	.Lc359-.Lc358
.Lc358:
	.secrel32	.Lc313
	.quad	.Lc61
	.quad	.Lc62-.Lc61
	.balign 4,0
.Lc359:
	.long	.Lc361-.Lc360
.Lc360:
	.secrel32	.Lc313
	.quad	.Lc63
	.quad	.Lc64-.Lc63
	.balign 4,0
.Lc361:
	.long	.Lc363-.Lc362
.Lc362:
	.secrel32	.Lc313
	.quad	.Lc65
	.quad	.Lc66-.Lc65
	.byte	4
	.long	.Lc67-.Lc65
	.byte	14
	.uleb128	48
	.balign 4,0
.Lc363:
	.long	.Lc365-.Lc364
.Lc364:
	.secrel32	.Lc313
	.quad	.Lc68
	.quad	.Lc69-.Lc68
	.byte	4
	.long	.Lc70-.Lc68
	.byte	14
	.uleb128	48
	.balign 4,0
.Lc365:
	.long	.Lc367-.Lc366
.Lc366:
	.secrel32	.Lc313
	.quad	.Lc71
	.quad	.Lc72-.Lc71
	.byte	4
	.long	.Lc73-.Lc71
	.byte	14
	.uleb128	48
	.balign 4,0
.Lc367:
	.long	.Lc369-.Lc368
.Lc368:
	.secrel32	.Lc313
	.quad	.Lc74
	.quad	.Lc75-.Lc74
	.byte	4
	.long	.Lc76-.Lc74
	.byte	14
	.uleb128	48
	.balign 4,0
.Lc369:
	.long	.Lc371-.Lc370
.Lc370:
	.secrel32	.Lc313
	.quad	.Lc77
	.quad	.Lc78-.Lc77
	.byte	4
	.long	.Lc79-.Lc77
	.byte	14
	.uleb128	40
	.balign 4,0
.Lc371:
	.long	.Lc373-.Lc372
.Lc372:
	.secrel32	.Lc313
	.quad	.Lc80
	.quad	.Lc81-.Lc80
	.byte	4
	.long	.Lc82-.Lc80
	.byte	14
	.uleb128	40
	.balign 4,0
.Lc373:
	.long	.Lc375-.Lc374
.Lc374:
	.secrel32	.Lc313
	.quad	.Lc83
	.quad	.Lc84-.Lc83
	.byte	4
	.long	.Lc85-.Lc83
	.byte	14
	.uleb128	40
	.balign 4,0
.Lc375:
	.long	.Lc377-.Lc376
.Lc376:
	.secrel32	.Lc313
	.quad	.Lc86
	.quad	.Lc87-.Lc86
	.byte	4
	.long	.Lc88-.Lc86
	.byte	14
	.uleb128	48
	.balign 4,0
.Lc377:
	.long	.Lc379-.Lc378
.Lc378:
	.secrel32	.Lc313
	.quad	.Lc89
	.quad	.Lc90-.Lc89
	.byte	4
	.long	.Lc91-.Lc89
	.byte	14
	.uleb128	48
	.balign 4,0
.Lc379:
	.long	.Lc381-.Lc380
.Lc380:
	.secrel32	.Lc313
	.quad	.Lc92
	.quad	.Lc93-.Lc92
	.byte	4
	.long	.Lc94-.Lc92
	.byte	14
	.uleb128	48
	.balign 4,0
.Lc381:
	.long	.Lc383-.Lc382
.Lc382:
	.secrel32	.Lc313
	.quad	.Lc95
	.quad	.Lc96-.Lc95
	.byte	4
	.long	.Lc97-.Lc95
	.byte	14
	.uleb128	48
	.balign 4,0
.Lc383:
	.long	.Lc385-.Lc384
.Lc384:
	.secrel32	.Lc313
	.quad	.Lc98
	.quad	.Lc99-.Lc98
	.byte	4
	.long	.Lc100-.Lc98
	.byte	14
	.uleb128	48
	.balign 4,0
.Lc385:
	.long	.Lc387-.Lc386
.Lc386:
	.secrel32	.Lc313
	.quad	.Lc101
	.quad	.Lc102-.Lc101
	.byte	4
	.long	.Lc103-.Lc101
	.byte	14
	.uleb128	48
	.balign 4,0
.Lc387:
	.long	.Lc389-.Lc388
.Lc388:
	.secrel32	.Lc313
	.quad	.Lc104
	.quad	.Lc105-.Lc104
	.byte	4
	.long	.Lc106-.Lc104
	.byte	14
	.uleb128	48
	.balign 4,0
.Lc389:
	.long	.Lc391-.Lc390
.Lc390:
	.secrel32	.Lc313
	.quad	.Lc107
	.quad	.Lc108-.Lc107
	.byte	4
	.long	.Lc109-.Lc107
	.byte	14
	.uleb128	48
	.balign 4,0
.Lc391:
	.long	.Lc393-.Lc392
.Lc392:
	.secrel32	.Lc313
	.quad	.Lc110
	.quad	.Lc111-.Lc110
	.balign 4,0
.Lc393:
	.long	.Lc395-.Lc394
.Lc394:
	.secrel32	.Lc313
	.quad	.Lc112
	.quad	.Lc113-.Lc112
	.balign 4,0
.Lc395:
	.long	.Lc397-.Lc396
.Lc396:
	.secrel32	.Lc313
	.quad	.Lc114
	.quad	.Lc115-.Lc114
	.balign 4,0
.Lc397:
	.long	.Lc399-.Lc398
.Lc398:
	.secrel32	.Lc313
	.quad	.Lc116
	.quad	.Lc117-.Lc116
	.byte	4
	.long	.Lc118-.Lc116
	.byte	14
	.uleb128	48
	.balign 4,0
.Lc399:
	.long	.Lc401-.Lc400
.Lc400:
	.secrel32	.Lc313
	.quad	.Lc119
	.quad	.Lc120-.Lc119
	.balign 4,0
.Lc401:
	.long	.Lc403-.Lc402
.Lc402:
	.secrel32	.Lc313
	.quad	.Lc121
	.quad	.Lc122-.Lc121
	.balign 4,0
.Lc403:
	.long	.Lc405-.Lc404
.Lc404:
	.secrel32	.Lc313
	.quad	.Lc123
	.quad	.Lc124-.Lc123
	.balign 4,0
.Lc405:
	.long	.Lc407-.Lc406
.Lc406:
	.secrel32	.Lc313
	.quad	.Lc125
	.quad	.Lc126-.Lc125
	.balign 4,0
.Lc407:
	.long	.Lc409-.Lc408
.Lc408:
	.secrel32	.Lc313
	.quad	.Lc127
	.quad	.Lc128-.Lc127
	.byte	4
	.long	.Lc129-.Lc127
	.byte	14
	.uleb128	40
	.balign 4,0
.Lc409:
	.long	.Lc411-.Lc410
.Lc410:
	.secrel32	.Lc313
	.quad	.Lc130
	.quad	.Lc131-.Lc130
	.balign 4,0
.Lc411:
	.long	.Lc413-.Lc412
.Lc412:
	.secrel32	.Lc313
	.quad	.Lc132
	.quad	.Lc133-.Lc132
	.balign 4,0
.Lc413:
	.long	.Lc415-.Lc414
.Lc414:
	.secrel32	.Lc313
	.quad	.Lc134
	.quad	.Lc135-.Lc134
	.balign 4,0
.Lc415:
	.long	.Lc417-.Lc416
.Lc416:
	.secrel32	.Lc313
	.quad	.Lc136
	.quad	.Lc137-.Lc136
	.balign 4,0
.Lc417:
	.long	.Lc419-.Lc418
.Lc418:
	.secrel32	.Lc313
	.quad	.Lc138
	.quad	.Lc139-.Lc138
	.balign 4,0
.Lc419:
	.long	.Lc421-.Lc420
.Lc420:
	.secrel32	.Lc313
	.quad	.Lc140
	.quad	.Lc141-.Lc140
	.balign 4,0
.Lc421:
	.long	.Lc423-.Lc422
.Lc422:
	.secrel32	.Lc313
	.quad	.Lc142
	.quad	.Lc143-.Lc142
	.byte	4
	.long	.Lc144-.Lc142
	.byte	14
	.uleb128	48
	.balign 4,0
.Lc423:
	.long	.Lc425-.Lc424
.Lc424:
	.secrel32	.Lc313
	.quad	.Lc145
	.quad	.Lc146-.Lc145
	.byte	4
	.long	.Lc147-.Lc145
	.byte	14
	.uleb128	48
	.balign 4,0
.Lc425:
	.long	.Lc427-.Lc426
.Lc426:
	.secrel32	.Lc313
	.quad	.Lc148
	.quad	.Lc149-.Lc148
	.byte	4
	.long	.Lc150-.Lc148
	.byte	14
	.uleb128	48
	.balign 4,0
.Lc427:
	.long	.Lc429-.Lc428
.Lc428:
	.secrel32	.Lc313
	.quad	.Lc151
	.quad	.Lc152-.Lc151
	.byte	4
	.long	.Lc153-.Lc151
	.byte	14
	.uleb128	48
	.balign 4,0
.Lc429:
	.long	.Lc431-.Lc430
.Lc430:
	.secrel32	.Lc313
	.quad	.Lc154
	.quad	.Lc155-.Lc154
	.balign 4,0
.Lc431:
	.long	.Lc433-.Lc432
.Lc432:
	.secrel32	.Lc313
	.quad	.Lc156
	.quad	.Lc157-.Lc156
	.balign 4,0
.Lc433:
	.long	.Lc435-.Lc434
.Lc434:
	.secrel32	.Lc313
	.quad	.Lc158
	.quad	.Lc159-.Lc158
	.byte	4
	.long	.Lc160-.Lc158
	.byte	14
	.uleb128	48
	.balign 4,0
.Lc435:
	.long	.Lc437-.Lc436
.Lc436:
	.secrel32	.Lc313
	.quad	.Lc161
	.quad	.Lc162-.Lc161
	.byte	4
	.long	.Lc163-.Lc161
	.byte	14
	.uleb128	48
	.balign 4,0
.Lc437:
	.long	.Lc439-.Lc438
.Lc438:
	.secrel32	.Lc313
	.quad	.Lc164
	.quad	.Lc165-.Lc164
	.balign 4,0
.Lc439:
	.long	.Lc441-.Lc440
.Lc440:
	.secrel32	.Lc313
	.quad	.Lc166
	.quad	.Lc167-.Lc166
	.balign 4,0
.Lc441:
	.long	.Lc443-.Lc442
.Lc442:
	.secrel32	.Lc313
	.quad	.Lc168
	.quad	.Lc169-.Lc168
	.balign 4,0
.Lc443:
	.long	.Lc445-.Lc444
.Lc444:
	.secrel32	.Lc313
	.quad	.Lc170
	.quad	.Lc171-.Lc170
	.byte	4
	.long	.Lc172-.Lc170
	.byte	14
	.uleb128	48
	.balign 4,0
.Lc445:
	.long	.Lc447-.Lc446
.Lc446:
	.secrel32	.Lc313
	.quad	.Lc173
	.quad	.Lc174-.Lc173
	.byte	4
	.long	.Lc175-.Lc173
	.byte	14
	.uleb128	48
	.balign 4,0
.Lc447:
	.long	.Lc449-.Lc448
.Lc448:
	.secrel32	.Lc313
	.quad	.Lc176
	.quad	.Lc177-.Lc176
	.byte	4
	.long	.Lc178-.Lc176
	.byte	14
	.uleb128	48
	.balign 4,0
.Lc449:
	.long	.Lc451-.Lc450
.Lc450:
	.secrel32	.Lc313
	.quad	.Lc179
	.quad	.Lc180-.Lc179
	.byte	4
	.long	.Lc181-.Lc179
	.byte	14
	.uleb128	48
	.balign 4,0
.Lc451:
	.long	.Lc453-.Lc452
.Lc452:
	.secrel32	.Lc313
	.quad	.Lc182
	.quad	.Lc183-.Lc182
	.byte	4
	.long	.Lc184-.Lc182
	.byte	14
	.uleb128	48
	.balign 4,0
.Lc453:
	.long	.Lc455-.Lc454
.Lc454:
	.secrel32	.Lc313
	.quad	.Lc185
	.quad	.Lc186-.Lc185
	.byte	4
	.long	.Lc187-.Lc185
	.byte	14
	.uleb128	48
	.balign 4,0
.Lc455:
	.long	.Lc457-.Lc456
.Lc456:
	.secrel32	.Lc313
	.quad	.Lc188
	.quad	.Lc189-.Lc188
	.byte	4
	.long	.Lc190-.Lc188
	.byte	14
	.uleb128	48
	.balign 4,0
.Lc457:
	.long	.Lc459-.Lc458
.Lc458:
	.secrel32	.Lc313
	.quad	.Lc191
	.quad	.Lc192-.Lc191
	.balign 4,0
.Lc459:
	.long	.Lc461-.Lc460
.Lc460:
	.secrel32	.Lc313
	.quad	.Lc193
	.quad	.Lc194-.Lc193
	.byte	4
	.long	.Lc195-.Lc193
	.byte	14
	.uleb128	48
	.balign 4,0
.Lc461:
	.long	.Lc463-.Lc462
.Lc462:
	.secrel32	.Lc313
	.quad	.Lc196
	.quad	.Lc197-.Lc196
	.byte	4
	.long	.Lc198-.Lc196
	.byte	14
	.uleb128	48
	.balign 4,0
.Lc463:
	.long	.Lc465-.Lc464
.Lc464:
	.secrel32	.Lc313
	.quad	.Lc199
	.quad	.Lc200-.Lc199
	.byte	4
	.long	.Lc201-.Lc199
	.byte	14
	.uleb128	48
	.balign 4,0
.Lc465:
	.long	.Lc467-.Lc466
.Lc466:
	.secrel32	.Lc313
	.quad	.Lc202
	.quad	.Lc203-.Lc202
	.byte	4
	.long	.Lc204-.Lc202
	.byte	14
	.uleb128	48
	.balign 4,0
.Lc467:
	.long	.Lc469-.Lc468
.Lc468:
	.secrel32	.Lc313
	.quad	.Lc205
	.quad	.Lc206-.Lc205
	.byte	4
	.long	.Lc207-.Lc205
	.byte	14
	.uleb128	48
	.balign 4,0
.Lc469:
	.long	.Lc471-.Lc470
.Lc470:
	.secrel32	.Lc313
	.quad	.Lc208
	.quad	.Lc209-.Lc208
	.byte	4
	.long	.Lc210-.Lc208
	.byte	14
	.uleb128	48
	.balign 4,0
.Lc471:
	.long	.Lc473-.Lc472
.Lc472:
	.secrel32	.Lc313
	.quad	.Lc211
	.quad	.Lc212-.Lc211
	.byte	4
	.long	.Lc213-.Lc211
	.byte	14
	.uleb128	48
	.balign 4,0
.Lc473:
	.long	.Lc475-.Lc474
.Lc474:
	.secrel32	.Lc313
	.quad	.Lc214
	.quad	.Lc215-.Lc214
	.byte	4
	.long	.Lc216-.Lc214
	.byte	14
	.uleb128	48
	.balign 4,0
.Lc475:
	.long	.Lc477-.Lc476
.Lc476:
	.secrel32	.Lc313
	.quad	.Lc217
	.quad	.Lc218-.Lc217
	.byte	4
	.long	.Lc219-.Lc217
	.byte	14
	.uleb128	48
	.balign 4,0
.Lc477:
	.long	.Lc479-.Lc478
.Lc478:
	.secrel32	.Lc313
	.quad	.Lc220
	.quad	.Lc221-.Lc220
	.byte	4
	.long	.Lc222-.Lc220
	.byte	14
	.uleb128	48
	.balign 4,0
.Lc479:
	.long	.Lc481-.Lc480
.Lc480:
	.secrel32	.Lc313
	.quad	.Lc223
	.quad	.Lc224-.Lc223
	.byte	4
	.long	.Lc225-.Lc223
	.byte	14
	.uleb128	48
	.balign 4,0
.Lc481:
	.long	.Lc483-.Lc482
.Lc482:
	.secrel32	.Lc313
	.quad	.Lc226
	.quad	.Lc227-.Lc226
	.byte	4
	.long	.Lc228-.Lc226
	.byte	14
	.uleb128	48
	.balign 4,0
.Lc483:
	.long	.Lc485-.Lc484
.Lc484:
	.secrel32	.Lc313
	.quad	.Lc229
	.quad	.Lc230-.Lc229
	.byte	4
	.long	.Lc231-.Lc229
	.byte	14
	.uleb128	48
	.balign 4,0
.Lc485:
	.long	.Lc487-.Lc486
.Lc486:
	.secrel32	.Lc313
	.quad	.Lc232
	.quad	.Lc233-.Lc232
	.byte	4
	.long	.Lc234-.Lc232
	.byte	14
	.uleb128	48
	.balign 4,0
.Lc487:
	.long	.Lc489-.Lc488
.Lc488:
	.secrel32	.Lc313
	.quad	.Lc235
	.quad	.Lc236-.Lc235
	.byte	4
	.long	.Lc237-.Lc235
	.byte	14
	.uleb128	48
	.balign 4,0
.Lc489:
	.long	.Lc491-.Lc490
.Lc490:
	.secrel32	.Lc313
	.quad	.Lc238
	.quad	.Lc239-.Lc238
	.byte	4
	.long	.Lc240-.Lc238
	.byte	14
	.uleb128	48
	.balign 4,0
.Lc491:
	.long	.Lc493-.Lc492
.Lc492:
	.secrel32	.Lc313
	.quad	.Lc241
	.quad	.Lc242-.Lc241
	.byte	4
	.long	.Lc243-.Lc241
	.byte	14
	.uleb128	48
	.balign 4,0
.Lc493:
	.long	.Lc495-.Lc494
.Lc494:
	.secrel32	.Lc313
	.quad	.Lc244
	.quad	.Lc245-.Lc244
	.byte	4
	.long	.Lc246-.Lc244
	.byte	14
	.uleb128	48
	.balign 4,0
.Lc495:
	.long	.Lc497-.Lc496
.Lc496:
	.secrel32	.Lc313
	.quad	.Lc247
	.quad	.Lc248-.Lc247
	.balign 4,0
.Lc497:
	.long	.Lc499-.Lc498
.Lc498:
	.secrel32	.Lc313
	.quad	.Lc249
	.quad	.Lc250-.Lc249
	.balign 4,0
.Lc499:
	.long	.Lc501-.Lc500
.Lc500:
	.secrel32	.Lc313
	.quad	.Lc251
	.quad	.Lc252-.Lc251
	.balign 4,0
.Lc501:
	.long	.Lc503-.Lc502
.Lc502:
	.secrel32	.Lc313
	.quad	.Lc253
	.quad	.Lc254-.Lc253
	.byte	4
	.long	.Lc255-.Lc253
	.byte	14
	.uleb128	48
	.balign 4,0
.Lc503:
	.long	.Lc505-.Lc504
.Lc504:
	.secrel32	.Lc313
	.quad	.Lc256
	.quad	.Lc257-.Lc256
	.byte	4
	.long	.Lc258-.Lc256
	.byte	14
	.uleb128	48
	.balign 4,0
.Lc505:
	.long	.Lc507-.Lc506
.Lc506:
	.secrel32	.Lc313
	.quad	.Lc259
	.quad	.Lc260-.Lc259
	.byte	4
	.long	.Lc261-.Lc259
	.byte	14
	.uleb128	48
	.balign 4,0
.Lc507:
	.long	.Lc509-.Lc508
.Lc508:
	.secrel32	.Lc313
	.quad	.Lc262
	.quad	.Lc263-.Lc262
	.byte	4
	.long	.Lc264-.Lc262
	.byte	14
	.uleb128	48
	.balign 4,0
.Lc509:
	.long	.Lc511-.Lc510
.Lc510:
	.secrel32	.Lc313
	.quad	.Lc265
	.quad	.Lc266-.Lc265
	.byte	4
	.long	.Lc267-.Lc265
	.byte	14
	.uleb128	48
	.balign 4,0
.Lc511:
	.long	.Lc513-.Lc512
.Lc512:
	.secrel32	.Lc313
	.quad	.Lc268
	.quad	.Lc269-.Lc268
	.byte	4
	.long	.Lc270-.Lc268
	.byte	14
	.uleb128	48
	.balign 4,0
.Lc513:
	.long	.Lc515-.Lc514
.Lc514:
	.secrel32	.Lc313
	.quad	.Lc271
	.quad	.Lc272-.Lc271
	.balign 4,0
.Lc515:
	.long	.Lc517-.Lc516
.Lc516:
	.secrel32	.Lc313
	.quad	.Lc273
	.quad	.Lc274-.Lc273
	.balign 4,0
.Lc517:
	.long	.Lc519-.Lc518
.Lc518:
	.secrel32	.Lc313
	.quad	.Lc275
	.quad	.Lc276-.Lc275
	.byte	4
	.long	.Lc277-.Lc275
	.byte	14
	.uleb128	48
	.balign 4,0
.Lc519:
	.long	.Lc521-.Lc520
.Lc520:
	.secrel32	.Lc313
	.quad	.Lc278
	.quad	.Lc279-.Lc278
	.byte	4
	.long	.Lc280-.Lc278
	.byte	14
	.uleb128	48
	.balign 4,0
.Lc521:
	.long	.Lc523-.Lc522
.Lc522:
	.secrel32	.Lc313
	.quad	.Lc281
	.quad	.Lc282-.Lc281
	.balign 4,0
.Lc523:
	.long	.Lc525-.Lc524
.Lc524:
	.secrel32	.Lc313
	.quad	.Lc283
	.quad	.Lc284-.Lc283
	.balign 4,0
.Lc525:
	.long	.Lc527-.Lc526
.Lc526:
	.secrel32	.Lc313
	.quad	.Lc285
	.quad	.Lc286-.Lc285
	.balign 4,0
.Lc527:
	.long	.Lc529-.Lc528
.Lc528:
	.secrel32	.Lc313
	.quad	.Lc287
	.quad	.Lc288-.Lc287
	.balign 4,0
.Lc529:
	.long	.Lc531-.Lc530
.Lc530:
	.secrel32	.Lc313
	.quad	.Lc289
	.quad	.Lc290-.Lc289
	.byte	4
	.long	.Lc291-.Lc289
	.byte	14
	.uleb128	48
	.balign 4,0
.Lc531:
	.long	.Lc533-.Lc532
.Lc532:
	.secrel32	.Lc313
	.quad	.Lc292
	.quad	.Lc293-.Lc292
	.byte	4
	.long	.Lc294-.Lc292
	.byte	14
	.uleb128	48
	.balign 4,0
.Lc533:
	.long	.Lc535-.Lc534
.Lc534:
	.secrel32	.Lc313
	.quad	.Lc295
	.quad	.Lc296-.Lc295
	.byte	4
	.long	.Lc297-.Lc295
	.byte	14
	.uleb128	48
	.balign 4,0
.Lc535:
	.long	.Lc537-.Lc536
.Lc536:
	.secrel32	.Lc313
	.quad	.Lc298
	.quad	.Lc299-.Lc298
	.byte	4
	.long	.Lc300-.Lc298
	.byte	14
	.uleb128	48
	.balign 4,0
.Lc537:
	.long	.Lc539-.Lc538
.Lc538:
	.secrel32	.Lc313
	.quad	.Lc301
	.quad	.Lc302-.Lc301
	.byte	4
	.long	.Lc303-.Lc301
	.byte	14
	.uleb128	48
	.balign 4,0
.Lc539:
	.long	.Lc541-.Lc540
.Lc540:
	.secrel32	.Lc313
	.quad	.Lc304
	.quad	.Lc305-.Lc304
	.byte	4
	.long	.Lc306-.Lc304
	.byte	14
	.uleb128	48
	.balign 4,0
.Lc541:
	.long	.Lc543-.Lc542
.Lc542:
	.secrel32	.Lc313
	.quad	.Lc307
	.quad	.Lc308-.Lc307
	.byte	4
	.long	.Lc309-.Lc307
	.byte	14
	.uleb128	48
	.balign 4,0
.Lc543:
	.long	.Lc545-.Lc544
.Lc544:
	.secrel32	.Lc313
	.quad	.Lc310
	.quad	.Lc311-.Lc310
	.byte	4
	.long	.Lc312-.Lc310
	.byte	14
	.uleb128	48
	.balign 4,0
.Lc545:
# End asmlist al_dwarf_frame
# Begin asmlist al_dwarf_info

.section .text.z_DEBUGEND_$UNIT6502,"x"
.globl	DEBUGEND_$UNIT6502
DEBUGEND_$UNIT6502:
# End asmlist al_end

