	.file "unit1.pas"
# Begin asmlist al_begin

.section .text.b_DEBUGSTART_$UNIT1,"x"
.globl	DEBUGSTART_$UNIT1
DEBUGSTART_$UNIT1:
# End asmlist al_begin
# Begin asmlist al_procedures

.section .text.n_unit1$_$tform1_$_button1click$tobject_$$_fin$0,"x"
	.balign 16,0x90
UNIT1$_$TFORM1_$_BUTTON1CLICK$TOBJECT_$$_fin$0:
.Lc1:
.seh_proc UNIT1$_$TFORM1_$_BUTTON1CLICK$TOBJECT_$$_fin$0
.Ll1:
# [unit1.pas]
# [76] begin
	pushq	%rbp
.seh_pushreg %rbp
.Lc3:
.Lc4:
	movq	%rcx,%rbp
.Lc5:
	leaq	-32(%rsp),%rsp
.seh_stackalloc 32
# Var $parentfp located in register rbp
.seh_endprologue
.Ll2:
	leaq	-24736(%rbp),%rcx
	call	fpc_ansistr_decr_ref
	leaq	-24(%rbp),%rax
	movq	%rax,%rcx
	call	fpc_ansistr_decr_ref
	nop
	leaq	32(%rsp),%rsp
	popq	%rbp
	ret
.seh_endproc
.Lc2:
.Lt1:
.Ll3:

.section .text.n_unit1$_$tform1_$__$$_button1click$tobject,"x"
	.balign 16,0x90
.globl	UNIT1$_$TFORM1_$__$$_BUTTON1CLICK$TOBJECT
UNIT1$_$TFORM1_$__$$_BUTTON1CLICK$TOBJECT:
.Lc6:
# Temps allocated between rbp-24752 and rbp-24728
.seh_proc UNIT1$_$TFORM1_$__$$_BUTTON1CLICK$TOBJECT
.Ll4:
	pushq	%rbp
.seh_pushreg %rbp
.Lc8:
.Lc9:
	movq	%rsp,%rbp
.Lc10:
	movq	$6,%r10
.Lj251:
	leaq	-4096(%rsp),%rsp
	movl	%eax,(%rsp)
	subq	$1,%r10
	jne	.Lj251
	leaq	-224(%rsp),%rsp
.seh_stackalloc 24800
# Var Sender located in register rdx
# Var $self located in register rcx
# Var l located in register eax
# Var i located in register eax
# Var j located in register eax
# Var ilf located in register eax
# Var ild located in register eax
# Var ild2 located in register eax
# Var ild3 located in register eax
# Var sel located in register eax
# Var selstart located in register eax
# Var d located in register al
# Var testt located in register rax
.seh_endprologue
# Var s located at rbp-8, size=OS_64
# Var currentdir located at rbp-16, size=OS_64
# Var currentdir2 located at rbp-24, size=OS_64
# Var sr located at rbp-664, size=OS_NO
# Var filenames located at rbp-16680, size=OS_NO
# Var directories located at rbp-24688, size=OS_NO
# Var buf located at rbp-24720, size=OS_NO
# Var fn located at rbp-24728, size=OS_64
.Ll5:
	movq	$0,-24(%rbp)
	movq	$0,-24736(%rbp)
.Lj11:
	nop
.Lj7:
.Ll6:
# [62] label p101;
	movl	TC_$UNIT1$_$TFORM1_$_BUTTON1CLICK$TOBJECT_$$_defaultselstart(%rip),%eax
	movl	TC_$UNIT1$_$TFORM1_$_BUTTON1CLICK$TOBJECT_$$_defaultsel(%rip),%eax
.Ll7:
# [78] initmachine(0); //---------- Start the retromachine -------------------
	movl	$0,%ecx
	call	RETRO_$$_INITMACHINE$LONGINT
.Ll8:
# [79] poke($70002,0);
	movl	$0,%edx
	movl	$458754,%ecx
	call	RETRO_$$_POKE$LONGINT$BYTE
.Ll9:
# [80] application.processmessages;
	movq	TC_$FORMS_$$_APPLICATION(%rip),%rcx
	call	FORMS$_$TAPPLICATION_$__$$_PROCESSMESSAGES
.Ll10:
# [81] main1;
	call	UMAIN_$$_MAIN1
.Ll11:
# [83] currentdir2:='d:\sid\';
	leaq	_$UNIT1$_Ld1(%rip),%rdx
	leaq	-24(%rbp),%rcx
	call	fpc_ansistr_assign
.Ll12:
# [86] application.processmessages;
	movq	TC_$FORMS_$$_APPLICATION(%rip),%rcx
	call	FORMS$_$TAPPLICATION_$__$$_PROCESSMESSAGES
.Ll13:
# [88] poke ($70001,1);
	movl	$1,%edx
	movl	$458753,%ecx
	call	RETRO_$$_POKE$LONGINT$BYTE
.Ll14:
# [91] openmidi;
	call	MIDI_$$_OPENMIDI
.Ll15:
# [92] filetype:=4;
	movl	$4,U_$RETRO_$$_FILETYPE(%rip)
.Ll16:
# [93] sc:=TSynthctrl.create(true);
	leaq	VMT_$SYNTHCONTROL_$$_TSYNTHCTRL(%rip),%rcx
	movl	$1,%r8d
	movq	$1,%rdx
	call	SYNTHCONTROL$_$TSYNTHCTRL_$__$$_CREATE$BOOLEAN$$TSYNTHCTRL
# PeepHole Optimization,MovMov2MovMov1
	movq	%rax,U_$UNIT1_$$_SC(%rip)
.Ll17:
# [94] sc.Start;
	movq	%rax,%rcx
	call	CLASSES$_$TTHREAD_$__$$_START
	.balign 8,0x90
.Lj46:
.Ll18:
# [99] main2;
	call	UMAIN_$$_MAIN2
.Ll19:
# [103] if dpeek($60028)=16445 then begin edelay:=not edelay; dpoke($60028,0); end;  //f4=delay
	movl	$393256,%ecx
	call	RETRO_$$_DPEEK$LONGINT$$WORD
	cmpw	$16445,%ax
	jne	.Lj50
	cmpb	$0,TC_$RETRO_$$_EDELAY(%rip)
	seteb	TC_$RETRO_$$_EDELAY(%rip)
	movl	$0,%edx
	movl	$393256,%ecx
	call	RETRO_$$_DPOKE$LONGINT$WORD
.Lj50:
.Ll20:
# [106] if dpeek($60028)=16447 then begin att:=att*1.1; dpoke($60028,0); end; //f5=reverb
	movl	$393256,%ecx
	call	RETRO_$$_DPEEK$LONGINT$$WORD
	cmpw	$16447,%ax
	jne	.Lj60
	movsd	TC_$FMSYNTH_$$_ATT(%rip),%xmm0
	mulsd	_$UNIT1$_Ld2(%rip),%xmm0
	movsd	%xmm0,TC_$FMSYNTH_$$_ATT(%rip)
	movl	$0,%edx
	movl	$393256,%ecx
	call	RETRO_$$_DPOKE$LONGINT$WORD
.Lj60:
.Ll21:
# [107] if dpeek($60028)=16448 then begin att:=att/1.1; ereverb:=not ereverb; dpoke($60028,0); end; //f5=reverb
	movl	$393256,%ecx
	call	RETRO_$$_DPEEK$LONGINT$$WORD
	cmpw	$16448,%ax
	jne	.Lj70
	movsd	TC_$FMSYNTH_$$_ATT(%rip),%xmm0
	mulsd	_$UNIT1$_Ld3(%rip),%xmm0
	movsd	%xmm0,TC_$FMSYNTH_$$_ATT(%rip)
	cmpb	$0,TC_$RETRO_$$_EREVERB(%rip)
	seteb	TC_$RETRO_$$_EREVERB(%rip)
	movl	$0,%edx
	movl	$393256,%ecx
	call	RETRO_$$_DPOKE$LONGINT$WORD
.Lj70:
.Ll22:
# [108] box(100,700,500,50,0); outtextxyz(100,700,floattostr(1/(96000*att)),15,2,2);
	movl	$0,32(%rsp)
	movl	$50,%r9d
	movl	$500,%r8d
	movl	$700,%edx
	movl	$100,%ecx
	call	RETRO_$$_BOX$LONGINT$LONGINT$LONGINT$LONGINT$LONGINT
	movl	$2,40(%rsp)
	movl	$2,32(%rsp)
	movsd	_$UNIT1$_Ld5(%rip),%xmm0
	mulsd	TC_$FMSYNTH_$$_ATT(%rip),%xmm0
	movsd	_$UNIT1$_Ld4(%rip),%xmm1
	divsd	%xmm0,%xmm1
	leaq	-24736(%rbp),%rcx
	call	SYSUTILS_$$_FLOATTOSTR$DOUBLE$$ANSISTRING
	movq	-24736(%rbp),%r8
	movl	$15,%r9d
	movl	$700,%edx
	movl	$100,%ecx
	call	RETRO_$$_OUTTEXTXYZ$LONGINT$LONGINT$ANSISTRING$LONGINT$LONGINT$LONGINT
.Ll23:
# [111] if (dpeek($60028)=16451) and (peek($70002)=0) then         // f10 toggles fullscreen
	movl	$393256,%ecx
	call	RETRO_$$_DPEEK$LONGINT$$WORD
	cmpw	$16451,%ax
	jne	.Lj108
	movl	$458754,%ecx
	call	RETRO_$$_PEEK$LONGINT$$BYTE
	testb	%al,%al
	jne	.Lj108
.Ll24:
# [113] dpoke($60028,0);
	movl	$0,%edx
	movl	$393256,%ecx
	call	RETRO_$$_DPOKE$LONGINT$WORD
	.balign 8,0x90
.Lj118:
.Ll25:
# [114] repeat until peek($70000)=1;
	movl	$458752,%ecx
	call	RETRO_$$_PEEK$LONGINT$$BYTE
	cmpb	$1,%al
	jne	.Lj118
.Ll26:
# [115] poke ($70000,2);
	movl	$2,%edx
	movl	$458752,%ecx
	call	RETRO_$$_POKE$LONGINT$BYTE
.Ll27:
# [116] SDL_DestroyTexture( sdlTexture );
	movq	U_$RETRO_$$_SDLTEXTURE(%rip),%rcx
	call	_$dll$sdl2$SDL_DestroyTexture
.Ll28:
# [117] SDL_DestroyRenderer( sdlRenderer );
	movq	U_$RETRO_$$_SDLRENDERER(%rip),%rcx
	call	_$dll$sdl2$SDL_DestroyRenderer
.Ll29:
# [118] poke($70002,1);
	movl	$1,%edx
	movl	$458754,%ecx
	call	RETRO_$$_POKE$LONGINT$BYTE
.Ll30:
# [119] sdl_setwindowfullscreen(scr,sdl_window_fullscreen_desktop);
	movq	U_$RETRO_$$_SCR(%rip),%rcx
	movl	$4097,%edx
	call	_$dll$sdl2$SDL_SetWindowFullscreen
.Ll31:
# [120] sdlRenderer := SDL_CreateRenderer(scr, -1, 14);
	movq	U_$RETRO_$$_SCR(%rip),%rcx
	movl	$14,%r8d
	movl	$-1,%edx
	call	_$dll$sdl2$SDL_CreateRenderer
	movq	%rax,U_$RETRO_$$_SDLRENDERER(%rip)
.Ll32:
# [121] sdlTexture := SDL_CreateTexture(sdlRenderer,SDL_PIXELFORMAT_ARGB8888,SDL_TEXTUREACCESS_STreaming,1920,1200);
	movl	$1200,32(%rsp)
	movq	U_$RETRO_$$_SDLRENDERER(%rip),%rcx
	movl	$1920,%r9d
	movl	$1,%r8d
	movl	$372645892,%edx
	call	_$dll$sdl2$SDL_CreateTexture
	movq	%rax,U_$RETRO_$$_SDLTEXTURE(%rip)
.Ll33:
# [122] SDL_RenderSetLogicalSize(sdlRenderer,1920,1200);
	movq	U_$RETRO_$$_SDLRENDERER(%rip),%rcx
	movl	$1200,%r8d
	movl	$1920,%edx
	call	_$dll$sdl2$SDL_RenderSetLogicalSize
.Ll34:
# [123] poke ($70000,1);
	movl	$1,%edx
	movl	$458752,%ecx
	call	RETRO_$$_POKE$LONGINT$BYTE
.Lj108:
.Ll35:
# [126] if ((dpeek($60028)=16451)) and (peek($70002)=1) then
	movl	$393256,%ecx
	call	RETRO_$$_DPEEK$LONGINT$$WORD
	cmpw	$16451,%ax
	jne	.Lj170
	movl	$458754,%ecx
	call	RETRO_$$_PEEK$LONGINT$$BYTE
	cmpb	$1,%al
	jne	.Lj170
.Ll36:
# [128] poke($60028,0);
	movl	$0,%edx
	movl	$393256,%ecx
	call	RETRO_$$_POKE$LONGINT$BYTE
	.balign 8,0x90
.Lj180:
.Ll37:
# [129] repeat until peek($70000)=1;
	movl	$458752,%ecx
	call	RETRO_$$_PEEK$LONGINT$$BYTE
	cmpb	$1,%al
	jne	.Lj180
.Ll38:
# [130] poke ($70000,2);
	movl	$2,%edx
	movl	$458752,%ecx
	call	RETRO_$$_POKE$LONGINT$BYTE
.Ll39:
# [131] SDL_DestroyTexture( sdlTexture );
	movq	U_$RETRO_$$_SDLTEXTURE(%rip),%rcx
	call	_$dll$sdl2$SDL_DestroyTexture
.Ll40:
# [132] SDL_DestroyRenderer( sdlRenderer );
	movq	U_$RETRO_$$_SDLRENDERER(%rip),%rcx
	call	_$dll$sdl2$SDL_DestroyRenderer
.Ll41:
# [133] poke($70002,0);
	movl	$0,%edx
	movl	$458754,%ecx
	call	RETRO_$$_POKE$LONGINT$BYTE
.Ll42:
# [134] sdl_setwindowfullscreen(scr,0);
	movq	U_$RETRO_$$_SCR(%rip),%rcx
	movl	$0,%edx
	call	_$dll$sdl2$SDL_SetWindowFullscreen
.Ll43:
# [135] sdlRenderer := SDL_CreateRenderer(scr, -1, 14);
	movq	U_$RETRO_$$_SCR(%rip),%rcx
	movl	$14,%r8d
	movl	$-1,%edx
	call	_$dll$sdl2$SDL_CreateRenderer
	movq	%rax,U_$RETRO_$$_SDLRENDERER(%rip)
.Ll44:
# [136] sdlTexture := SDL_CreateTexture(sdlRenderer,SDL_PIXELFORMAT_ARGB8888,SDL_TEXTUREACCESS_STreaming,1920,1200);
	movl	$1200,32(%rsp)
	movq	U_$RETRO_$$_SDLRENDERER(%rip),%rcx
	movl	$1920,%r9d
	movl	$1,%r8d
	movl	$372645892,%edx
	call	_$dll$sdl2$SDL_CreateTexture
	movq	%rax,U_$RETRO_$$_SDLTEXTURE(%rip)
.Ll45:
# [137] SDL_RenderSetLogicalSize(sdlRenderer,1920,1200);
	movq	U_$RETRO_$$_SDLRENDERER(%rip),%rcx
	movl	$1200,%r8d
	movl	$1920,%edx
	call	_$dll$sdl2$SDL_RenderSetLogicalSize
.Ll46:
# [138] poke ($70000,1);
	movl	$1,%edx
	movl	$458752,%ecx
	call	RETRO_$$_POKE$LONGINT$BYTE
.Lj170:
.Ll47:
# [141] application.processmessages;
	movq	TC_$FORMS_$$_APPLICATION(%rip),%rcx
	call	FORMS$_$TAPPLICATION_$__$$_PROCESSMESSAGES
.Ll48:
# [142] until (peek($6002b)<>0) and (peek($60028)=27) ;
	movl	$393259,%ecx
	call	RETRO_$$_PEEK$LONGINT$$BYTE
	testb	%al,%al
	je	.Lj46
	movl	$393256,%ecx
	call	RETRO_$$_PEEK$LONGINT$$BYTE
	cmpb	$27,%al
	jne	.Lj46
.Ll49:
# [143] timer1:=-1;
	movq	$-1,TC_$RETRO_$$_TIMER1(%rip)
.Ll50:
# [144] fileclose(fh);
	movslq	U_$RETRO_$$_FH(%rip),%rcx
	call	SYSUTILS_$$_FILECLOSE$QWORD
.Ll51:
# [145] stopmachine;
	call	RETRO_$$_STOPMACHINE
.Ll52:
# [146] halt;
	movl	$0,%ecx
	call	SYSTEM_$$_HALT$LONGINT
.Lj244:
.Ll53:
	nop
.Lj8:
	movq	%rbp,%rcx
	call	UNIT1$_$TFORM1_$_BUTTON1CLICK$TOBJECT_$$_fin$0
.Ll54:
# [147] end;
	leaq	(%rbp),%rsp
	popq	%rbp
	ret
.seh_handler __FPC_specific_handler,@unwind
.seh_handlerdata
	.long	1
	.long	0
	.rva	.Lj7
	.rva	.Lj8
	.rva	UNIT1$_$TFORM1_$_BUTTON1CLICK$TOBJECT_$$_fin$0

.section .text.n_unit1$_$tform1_$__$$_button1click$tobject,"x"
.seh_endproc
.Lc7:
.Lt7:
.Ll55:

.section .text.n_unit1$_$tform1_$__$$_button2click$tobject,"x"
	.balign 16,0x90
.globl	UNIT1$_$TFORM1_$__$$_BUTTON2CLICK$TOBJECT
UNIT1$_$TFORM1_$__$$_BUTTON2CLICK$TOBJECT:
.Lc11:
.seh_proc UNIT1$_$TFORM1_$__$$_BUTTON2CLICK$TOBJECT
.Ll56:
# [150] begin
	pushq	%rbx
.seh_pushreg %rbx
	leaq	-32(%rsp),%rsp
.Lc13:
.seh_stackalloc 32
# Var Sender located in register rdx
# Var $self located in register rbx
.seh_endprologue
	movq	%rcx,%rbx
.Ll57:
# [151] if opendialog1.execute then loadxi(opendialog1.filename);
	movq	1936(%rbx),%rcx
	movq	1936(%rbx),%rax
	movq	(%rax),%rax
	call	*504(%rax)
	testb	%al,%al
	je	.Lj255
	movq	1936(%rbx),%rax
	movq	224(%rax),%rcx
	call	UNIT1_$$_LOADXI$ANSISTRING$$LONGINT
.Lj255:
.Ll58:
# [152] end;
	nop
	leaq	32(%rsp),%rsp
	popq	%rbx
	ret
.seh_endproc
.Lc12:
.Lt8:
.Ll59:

.section .text.n_unit1$_$tform1_$_button3click$tobject_$$_fin$1,"x"
	.balign 16,0x90
UNIT1$_$TFORM1_$_BUTTON3CLICK$TOBJECT_$$_fin$1:
.Lc14:
.seh_proc UNIT1$_$TFORM1_$_BUTTON3CLICK$TOBJECT_$$_fin$1
.Ll60:
# [160] begin
	pushq	%rbp
.seh_pushreg %rbp
.Lc16:
.Lc17:
	movq	%rcx,%rbp
.Lc18:
	leaq	-32(%rsp),%rsp
.seh_stackalloc 32
# Var $parentfp located in register rbp
.seh_endprologue
.Ll61:
	leaq	-8200(%rbp),%rcx
	call	fpc_ansistr_decr_ref
	nop
	leaq	32(%rsp),%rsp
	popq	%rbp
	ret
.seh_endproc
.Lc15:
.Lt2:
.Ll62:

.section .text.n_unit1$_$tform1_$__$$_button3click$tobject,"x"
	.balign 16,0x90
.globl	UNIT1$_$TFORM1_$__$$_BUTTON3CLICK$TOBJECT
UNIT1$_$TFORM1_$__$$_BUTTON3CLICK$TOBJECT:
.Lc19:
# Temps allocated between rbp-8368 and rbp-8192
.seh_proc UNIT1$_$TFORM1_$__$$_BUTTON3CLICK$TOBJECT
.Ll63:
	pushq	%rbp
.seh_pushreg %rbp
.Lc21:
.Lc22:
	movq	%rsp,%rbp
.Lc23:
	leaq	-8400(%rsp),%rsp
	movl	%eax,4308(%rsp)
	movl	%eax,212(%rsp)
	movl	%eax,(%rsp)
.seh_stackalloc 8400
# Var Sender located in register rdx
# Var $self located in register rbx
# Var i located in register esi
# Var i2 located in register r13d
# Var i3 located in register edi
# Var i0 located in register r12d
# Var d located in register xmm10
# Var dd located in register xmm12
# Var dd0 located in register xmm6
# Var q located in register xmm13
# Var q1 located in register xmm8
# Var q2 located in register xmm9
# Var q3 located in register xmm11
	movq	%rbx,-8368(%rbp)
	movq	%rdi,-8360(%rbp)
	movq	%rsi,-8352(%rbp)
	movq	%r12,-8344(%rbp)
	movq	%r13,-8336(%rbp)
	movdqa	%xmm6,-8304(%rbp)
	movdqa	%xmm8,-8288(%rbp)
	movdqa	%xmm9,-8272(%rbp)
	movdqa	%xmm10,-8256(%rbp)
	movdqa	%xmm11,-8240(%rbp)
	movdqa	%xmm12,-8224(%rbp)
	movdqa	%xmm13,-8208(%rbp)
.seh_savereg %rbx, 32
.seh_savereg %rdi, 40
.seh_savereg %rsi, 48
.seh_savereg %r12, 56
.seh_savereg %r13, 64
.seh_savexmm %xmm6, 96
.seh_savexmm %xmm8, 112
.seh_savexmm %xmm9, 128
.seh_savexmm %xmm10, 144
.seh_savexmm %xmm11, 160
.seh_savexmm %xmm12, 176
.seh_savexmm %xmm13, 192
.seh_endprologue
# Var a located at rbp-8192, size=OS_NO
	movq	%rcx,%rbx
.Ll64:
	movq	$0,-8200(%rbp)
.Lj268:
	nop
.Lj264:
.Ll65:
# [161] dd0:=0;
	movsd	_$UNIT1$_Ld6(%rip),%xmm6
.Ll66:
# [162] for i:=0 to 1023 do a[i]:=sin(2*pi*i/512);
	movl	$0,%esi
	subl	$1,%esi
	.balign 8,0x90
.Lj273:
	addl	$1,%esi
	cvtsi2sd	%esi,%xmm0
	mulsd	_$UNIT1$_Ld7(%rip),%xmm0
	mulsd	_$UNIT1$_Ld8(%rip),%xmm0
	call	fpc_sin_real
# PeepHole Optimization,var2a
	movl	%esi,%eax
	movsd	%xmm0,-8192(%rbp,%rax,8)
	cmpl	$1023,%esi
	jl	.Lj273
.Ll67:
# [163] for i:=0 to 65535 do
	movl	$0,%esi
	subl	$1,%esi
	.balign 8,0x90
.Lj280:
	addl	$1,%esi
.Ll68:
# [165] q:=sin(2*pi*i/65536);
	cvtsi2sd	%esi,%xmm0
	mulsd	_$UNIT1$_Ld7(%rip),%xmm0
	mulsd	_$UNIT1$_Ld9(%rip),%xmm0
	call	fpc_sin_real
	movapd	%xmm0,%xmm13
.Ll69:
# [166] i2:=i div 128;
	movslq	%esi,%rax
	movq	%rax,%rdx
	sarq	$63,%rdx
	andq	$127,%rdx
	addq	%rdx,%rax
	sarq	$7,%rax
	movl	%eax,%r13d
.Ll70:
# [167] i3:=i2+1; if i3>512 then i3:=0;
	leal	1(%r13d),%eax
	movl	%eax,%edi
	cmpl	$512,%edi
	jng	.Lj290
	movl	$0,%edi
.Lj290:
# PeepHole Optimization,var2a
.Ll71:
# [169] q1:=a[i2];
	movl	%r13d,%eax
	movsd	-8192(%rbp,%rax,8),%xmm8
# PeepHole Optimization,var2a
.Ll72:
# [170] q2:=a[i3];
	movl	%edi,%eax
	movsd	-8192(%rbp,%rax,8),%xmm9
.Ll73:
# [171] d:=(i mod 128)/128;
	movslq	%esi,%rax
	cqto
	movq	$128,%rcx
	idivq	%rcx
	cvtsi2sd	%rdx,%xmm0
	mulsd	_$UNIT1$_Ld10(%rip),%xmm0
	movapd	%xmm0,%xmm10
.Ll74:
# [172] q3:=d*q2+(1-d)*q1;
	movsd	_$UNIT1$_Ld4(%rip),%xmm0
	subsd	%xmm10,%xmm0
	mulsd	%xmm8,%xmm0
	movapd	%xmm10,%xmm1
	mulsd	%xmm9,%xmm1
	addsd	%xmm1,%xmm0
	movapd	%xmm0,%xmm11
.Ll75:
# [173] dd:=abs(q3-q);
	movapd	%xmm11,%xmm0
	subsd	%xmm13,%xmm0
	andpd	FPC_ABSMASK_DOUBLE(%rip),%xmm0
	movapd	%xmm0,%xmm12
.Ll76:
# [174] if dd>dd0 then begin dd0:=dd; i0:=i; end;
	comisd	%xmm12,%xmm6
	jp	.Lj304
	jnb	.Lj304
	movapd	%xmm12,%xmm6
	movl	%esi,%r12d
.Lj304:
.Ll77:
	cmpl	$65535,%esi
	jl	.Lj280
.Ll78:
# [180] memo1.lines.add(floattostr(1/dd0));
	movsd	_$UNIT1$_Ld4(%rip),%xmm1
	divsd	%xmm6,%xmm1
	leaq	-8200(%rbp),%rcx
	call	SYSUTILS_$$_FLOATTOSTR$DOUBLE$$ANSISTRING
	movq	-8200(%rbp),%rdx
	movq	1928(%rbx),%rax
	movq	1480(%rax),%rcx
	movq	1928(%rbx),%rax
	movq	1480(%rax),%rax
	movq	(%rax),%rax
	call	*328(%rax)
.Ll79:
# [181] memo1.lines.add(inttostr(i0));
	movl	%r12d,%edx
	leaq	-8200(%rbp),%rcx
	call	SYSUTILS_$$_INTTOSTR$LONGINT$$ANSISTRING
	movq	-8200(%rbp),%rdx
	movq	1928(%rbx),%rax
	movq	1480(%rax),%rcx
	movq	1928(%rbx),%rax
	movq	1480(%rax),%rax
	movq	(%rax),%rax
	call	*328(%rax)
.Lj326:
.Ll80:
	nop
.Lj265:
	movq	%rbp,%rcx
	call	UNIT1$_$TFORM1_$_BUTTON3CLICK$TOBJECT_$$_fin$1
.Ll81:
# [182] end;
	movq	-8368(%rbp),%rbx
	movq	-8360(%rbp),%rdi
	movq	-8352(%rbp),%rsi
	movq	-8344(%rbp),%r12
	movq	-8336(%rbp),%r13
	movdqa	-8304(%rbp),%xmm6
	movdqa	-8288(%rbp),%xmm8
	movdqa	-8272(%rbp),%xmm9
	movdqa	-8256(%rbp),%xmm10
	movdqa	-8240(%rbp),%xmm11
	movdqa	-8224(%rbp),%xmm12
	movdqa	-8208(%rbp),%xmm13
	leaq	(%rbp),%rsp
	popq	%rbp
	ret
.seh_handler __FPC_specific_handler,@unwind
.seh_handlerdata
	.long	1
	.long	0
	.rva	.Lj264
	.rva	.Lj265
	.rva	UNIT1$_$TFORM1_$_BUTTON3CLICK$TOBJECT_$$_fin$1

.section .text.n_unit1$_$tform1_$__$$_button3click$tobject,"x"
.seh_endproc
.Lc20:
.Lt9:
.Ll82:

.section .text.n_unit1$_$tform1_$__$$_formclose$tobject$tcloseaction,"x"
	.balign 16,0x90
.globl	UNIT1$_$TFORM1_$__$$_FORMCLOSE$TOBJECT$TCLOSEACTION
UNIT1$_$TFORM1_$__$$_FORMCLOSE$TOBJECT$TCLOSEACTION:
.Lc24:
# Var Sender located in register rdx
# Var CloseAction located in register r8
# Var $self located in register rax
.Ll83:
# [186] begin
	movq	%rcx,%rax
.Ll84:
# [187] closeaction:=cafree;
	movl	$2,(%r8)
.Ll85:
# [188] end;
	ret
.Lc25:
.Lt10:
.Ll86:

.section .text.n_unit1$_$tform1_$__$$_formcreate$tobject,"x"
	.balign 16,0x90
.globl	UNIT1$_$TFORM1_$__$$_FORMCREATE$TOBJECT
UNIT1$_$TFORM1_$__$$_FORMCREATE$TOBJECT:
.Lc26:
# Var Sender located in register rdx
# Var $self located in register rax
.Ll87:
# [191] begin
	movq	%rcx,%rax
.Ll88:
# [192] DefaultFormatSettings.DecimalSeparator := '.';
	movb	$46,TC_$SYSUTILS_$$_DEFAULTFORMATSETTINGS+3(%rip)
.Ll89:
# [194] end;
	ret
.Lc27:
.Lt11:
.Ll90:

.section .text.n_unit1$_$sidopen$longint_$$_fin$2,"x"
	.balign 16,0x90
UNIT1$_$SIDOPEN$LONGINT_$$_fin$2:
.Lc28:
.seh_proc UNIT1$_$SIDOPEN$LONGINT_$$_fin$2
.Ll91:
# [206] begin
	pushq	%rbp
.seh_pushreg %rbp
.Lc30:
.Lc31:
	movq	%rcx,%rbp
.Lc32:
	leaq	-32(%rsp),%rsp
.seh_stackalloc 32
# Var $parentfp located in register rbp
.seh_endprologue
.Ll92:
	leaq	-88(%rbp),%rcx
	call	fpc_ansistr_decr_ref
	leaq	-80(%rbp),%rcx
	call	fpc_ansistr_decr_ref
	nop
	leaq	32(%rsp),%rsp
	popq	%rbp
	ret
.seh_endproc
.Lc29:
.Lt4:
.Ll93:

.section .text.n_unit1_$$_sidopen$longint,"x"
	.balign 16,0x90
.globl	UNIT1_$$_SIDOPEN$LONGINT
UNIT1_$$_SIDOPEN$LONGINT:
.Lc33:
# Temps allocated between rbp-104 and rbp-72
.seh_proc UNIT1_$$_SIDOPEN$LONGINT
.Ll94:
	pushq	%rbp
.seh_pushreg %rbp
.Lc35:
.Lc36:
	movq	%rsp,%rbp
.Lc37:
	leaq	-160(%rsp),%rsp
.seh_stackalloc 160
# Var fh located in register ebx
# Var i located in register esi
# Var il located in register sil
	movq	%rbx,-104(%rbp)
	movq	%rsi,-96(%rbp)
.seh_savereg %rbx, 56
.seh_savereg %rsi, 64
.seh_endprologue
# Var speed located at rbp-8, size=OS_32
# Var version located at rbp-16, size=OS_16
# Var offset located at rbp-24, size=OS_16
# Var load located at rbp-32, size=OS_16
# Var startsong located at rbp-40, size=OS_16
# Var flags located at rbp-48, size=OS_16
# Var magic located at rbp-56, size=OS_NO
# Var dump located at rbp-64, size=OS_16
# Var b located at rbp-72, size=OS_8
	movl	%ecx,%ebx
.Ll95:
	movq	$0,-88(%rbp)
	movq	$0,-80(%rbp)
.Lj345:
	nop
.Lj341:
.Ll96:
# [198] var i:integer;
	leaq	TC_$UNIT1$_$SIDOPEN$LONGINT_$$_defaultmagic(%rip),%r8
	leaq	-56(%rbp),%rcx
	movq	$4,%rdx
	call	fpc_shortstr_to_shortstr
.Ll97:
# [207] reset6502;
	call	UNIT6502_$$_RESET6502
.Ll98:
# [208] title:='                                ';
	leaq	_$UNIT1$_Ld11(%rip),%r8
	leaq	U_$UNIT1_$$_TITLE(%rip),%rcx
	movq	$32,%rdx
	call	fpc_shortstr_to_shortstr
.Ll99:
# [209] author:='                                ';
	leaq	_$UNIT1$_Ld11(%rip),%r8
	leaq	U_$UNIT1_$$_AUTHOR(%rip),%rcx
	movq	$32,%rdx
	call	fpc_shortstr_to_shortstr
.Ll100:
# [210] copyright:='                                ';
	leaq	_$UNIT1$_Ld11(%rip),%r8
	leaq	U_$UNIT1_$$_COPYRIGHT(%rip),%rcx
	movq	$32,%rdx
	call	fpc_shortstr_to_shortstr
.Ll101:
# [215] fileread(fh,version,2); version:=(version shl 8) or (version shr 8);
	movslq	%ebx,%rcx
	leaq	-16(%rbp),%rdx
	movl	$2,%r8d
	call	SYSUTILS_$$_FILEREAD$QWORD$formal$LONGINT$$LONGINT
	movzwl	-16(%rbp),%eax
	movl	%eax,%edx
	shll	$8,%edx
	shrl	$8,%eax
	orl	%edx,%eax
	movw	%ax,-16(%rbp)
.Ll102:
# [216] fileread(fh,offset,2); offset:=(offset shl 8) or (offset shr 8);
	movslq	%ebx,%rcx
	leaq	-24(%rbp),%rdx
	movl	$2,%r8d
	call	SYSUTILS_$$_FILEREAD$QWORD$formal$LONGINT$$LONGINT
	movzwl	-24(%rbp),%eax
	movl	%eax,%edx
	shll	$8,%edx
	shrl	$8,%eax
	orl	%edx,%eax
	movw	%ax,-24(%rbp)
.Ll103:
# [217] fileread(fh,load,2); load:=(load shl 8) or (load shr 8);
	movslq	%ebx,%rcx
	leaq	-32(%rbp),%rdx
	movl	$2,%r8d
	call	SYSUTILS_$$_FILEREAD$QWORD$formal$LONGINT$$LONGINT
	movzwl	-32(%rbp),%eax
	movl	%eax,%edx
	shll	$8,%edx
	shrl	$8,%eax
	orl	%edx,%eax
	movw	%ax,-32(%rbp)
.Ll104:
# [218] fileread(fh,init,2); init:=(init shl 8) or (init shr 8);
	movslq	%ebx,%rcx
	leaq	U_$UNIT1_$$_INIT(%rip),%rdx
	movl	$2,%r8d
	call	SYSUTILS_$$_FILEREAD$QWORD$formal$LONGINT$$LONGINT
	movzwl	U_$UNIT1_$$_INIT(%rip),%eax
	movl	%eax,%edx
	shll	$8,%edx
	shrl	$8,%eax
	orl	%edx,%eax
	movw	%ax,U_$UNIT1_$$_INIT(%rip)
.Ll105:
# [219] fileread(fh,play,2);  play:=(play shl 8) or (play shr 8);
	movslq	%ebx,%rcx
	leaq	U_$RETRO_$$_PLAY(%rip),%rdx
	movl	$2,%r8d
	call	SYSUTILS_$$_FILEREAD$QWORD$formal$LONGINT$$LONGINT
	movzwl	U_$RETRO_$$_PLAY(%rip),%eax
	movl	%eax,%edx
	shll	$8,%edx
	shrl	$8,%eax
	orl	%edx,%eax
	movw	%ax,U_$RETRO_$$_PLAY(%rip)
.Ll106:
# [220] fileread(fh,songs,2); songs:=(songs shl 8) or (songs shr 8);
	movslq	%ebx,%rcx
	leaq	TC_$UNIT1_$$_SONGS(%rip),%rdx
	movl	$2,%r8d
	call	SYSUTILS_$$_FILEREAD$QWORD$formal$LONGINT$$LONGINT
	movzwl	TC_$UNIT1_$$_SONGS(%rip),%eax
	movl	%eax,%edx
	shll	$8,%edx
	shrl	$8,%eax
	orl	%edx,%eax
	movw	%ax,TC_$UNIT1_$$_SONGS(%rip)
.Ll107:
# [221] fileread(fh,startsong,2); startsong:=(startsong shl 8) or (startsong shr 8);
	movslq	%ebx,%rcx
	leaq	-40(%rbp),%rdx
	movl	$2,%r8d
	call	SYSUTILS_$$_FILEREAD$QWORD$formal$LONGINT$$LONGINT
	movzwl	-40(%rbp),%eax
	movl	%eax,%edx
	shll	$8,%edx
	shrl	$8,%eax
	orl	%edx,%eax
	movw	%ax,-40(%rbp)
.Ll108:
# [222] fileread(fh,speed,4);
	movslq	%ebx,%rcx
	leaq	-8(%rbp),%rdx
	movl	$4,%r8d
	call	SYSUTILS_$$_FILEREAD$QWORD$formal$LONGINT$$LONGINT
.Ll109:
	movl	-8(%rbp),%edx
.Ll110:
# [223] speed:=speed shr 24+((speed shr 8) and $0000FF00) + ((speed shl 8) and $00FF0000) + (speed shl 24);
	movl	%edx,%eax
	shrl	$8,%eax
	andl	$65280,%eax
	movl	%edx,%ecx
	shrl	$24,%ecx
	leal	(%eax,%ecx),%ecx
	movl	%edx,%eax
	shll	$8,%eax
	andl	$16711680,%eax
	leal	(%ecx,%eax),%eax
	shll	$24,%edx
	leal	(%eax,%edx),%eax
	movl	%eax,-8(%rbp)
.Ll111:
# [224] fileread(fh,title[1],32);
	movslq	%ebx,%rcx
	leaq	U_$UNIT1_$$_TITLE+1(%rip),%rdx
	movl	$32,%r8d
	call	SYSUTILS_$$_FILEREAD$QWORD$formal$LONGINT$$LONGINT
.Ll112:
# [225] fileread(fh,author[1],32);
	movslq	%ebx,%rcx
	leaq	U_$UNIT1_$$_AUTHOR+1(%rip),%rdx
	movl	$32,%r8d
	call	SYSUTILS_$$_FILEREAD$QWORD$formal$LONGINT$$LONGINT
.Ll113:
# [226] fileread(fh,copyright[1],32);
	movslq	%ebx,%rcx
	leaq	U_$UNIT1_$$_COPYRIGHT+1(%rip),%rdx
	movl	$32,%r8d
	call	SYSUTILS_$$_FILEREAD$QWORD$formal$LONGINT$$LONGINT
.Ll114:
# [227] if version>1 then begin
	cmpw	$1,-16(%rbp)
	jna	.Lj469
.Ll115:
# [228] fileread(fh,flags,2); flags:=(flags shl 8) or (flags shr 8);
	movslq	%ebx,%rcx
	leaq	-48(%rbp),%rdx
	movl	$2,%r8d
	call	SYSUTILS_$$_FILEREAD$QWORD$formal$LONGINT$$LONGINT
	movzwl	-48(%rbp),%eax
	movl	%eax,%edx
	shll	$8,%edx
	shrl	$8,%eax
	orl	%edx,%eax
	movw	%ax,-48(%rbp)
.Ll116:
# [229] fileread(fh,dump,2);
	movslq	%ebx,%rcx
	leaq	-64(%rbp),%rdx
	movl	$2,%r8d
	call	SYSUTILS_$$_FILEREAD$QWORD$formal$LONGINT$$LONGINT
.Ll117:
# [230] fileread(fh,dump,2);
	movslq	%ebx,%rcx
	leaq	-64(%rbp),%rdx
	movl	$2,%r8d
	call	SYSUTILS_$$_FILEREAD$QWORD$formal$LONGINT$$LONGINT
.Ll118:
# [231] b:=0; if load=0 then begin b:=1; fileread(fh,load,2); end;
	movb	$0,-72(%rbp)
	cmpw	$0,-32(%rbp)
	jne	.Lj495
	movb	$1,-72(%rbp)
	movslq	%ebx,%rcx
	leaq	-32(%rbp),%rdx
	movl	$2,%r8d
	call	SYSUTILS_$$_FILEREAD$QWORD$formal$LONGINT$$LONGINT
.Lj495:
.Lj469:
.Ll119:
# [233] for i:=1 to 32 do if byte(title[i])=$F1 then title[i]:=char(26);
	movl	$1,%esi
	subl	$1,%esi
	.balign 8,0x90
.Lj506:
	addl	$1,%esi
	movb	%sil,%al
# PeepHole Optimization,var9
	andl	$255,%eax
	leaq	U_$UNIT1_$$_TITLE(%rip),%rdx
	cmpb	$241,(%rdx,%rax,1)
	jne	.Lj508
	movb	%sil,%al
# PeepHole Optimization,var9
	andl	$255,%eax
	leaq	U_$UNIT1_$$_TITLE(%rip),%rdx
	movb	$26,(%rdx,%rax,1)
.Lj508:
	cmpl	$32,%esi
	jl	.Lj506
.Ll120:
# [234] for i:=1 to 32 do if byte(author[i])=$F1 then author[i]:=char(26);
	movl	$1,%esi
	subl	$1,%esi
	.balign 8,0x90
.Lj513:
	addl	$1,%esi
	movb	%sil,%al
# PeepHole Optimization,var9
	andl	$255,%eax
	leaq	U_$UNIT1_$$_AUTHOR(%rip),%rdx
	cmpb	$241,(%rdx,%rax,1)
	jne	.Lj515
	movb	%sil,%al
# PeepHole Optimization,var9
	andl	$255,%eax
	leaq	U_$UNIT1_$$_AUTHOR(%rip),%rdx
	movb	$26,(%rdx,%rax,1)
.Lj515:
	cmpl	$32,%esi
	jl	.Lj513
.Ll121:
# [235] box(18,132,800,600,178);
	movl	$178,32(%rsp)
	movl	$600,%r9d
	movl	$800,%r8d
	movl	$132,%edx
	movl	$18,%ecx
	call	RETRO_$$_BOX$LONGINT$LONGINT$LONGINT$LONGINT$LONGINT
.Ll122:
# [236] outtextxyz(18,132,'type: PSID',188,2,2);
	movl	$2,40(%rsp)
	movl	$2,32(%rsp)
	leaq	_$UNIT1$_Ld12(%rip),%r8
	movl	$188,%r9d
	movl	$132,%edx
	movl	$18,%ecx
	call	RETRO_$$_OUTTEXTXYZ$LONGINT$LONGINT$ANSISTRING$LONGINT$LONGINT$LONGINT
.Ll123:
# [237] outtextxyz(18,164,'version: '+inttostr(version),188,2,2);
	movl	$2,40(%rsp)
	movl	$2,32(%rsp)
	leaq	-80(%rbp),%rcx
	call	fpc_ansistr_decr_ref
	movzwl	-16(%rbp),%edx
	leaq	-88(%rbp),%rcx
	call	SYSUTILS_$$_INTTOSTR$LONGINT$$ANSISTRING
	movq	-88(%rbp),%r8
	leaq	_$UNIT1$_Ld13(%rip),%rdx
	leaq	-80(%rbp),%rcx
	movl	$0,%r9d
	call	fpc_ansistr_concat
	movq	-80(%rbp),%r8
	movl	$188,%r9d
	movl	$164,%edx
	movl	$18,%ecx
	call	RETRO_$$_OUTTEXTXYZ$LONGINT$LONGINT$ANSISTRING$LONGINT$LONGINT$LONGINT
.Ll124:
# [238] outtextxyz(18,196,'offset: ' +inttohex(offset,4),188,2,2);
	movl	$2,40(%rsp)
	movl	$2,32(%rsp)
	leaq	-88(%rbp),%rcx
	call	fpc_ansistr_decr_ref
	movzwl	-24(%rbp),%edx
	leaq	-80(%rbp),%rcx
	movl	$4,%r8d
	call	SYSUTILS_$$_INTTOHEX$LONGINT$LONGINT$$ANSISTRING
	movq	-80(%rbp),%r8
	leaq	_$UNIT1$_Ld14(%rip),%rdx
	leaq	-88(%rbp),%rcx
	movl	$0,%r9d
	call	fpc_ansistr_concat
	movq	-88(%rbp),%r8
	movl	$188,%r9d
	movl	$196,%edx
	movl	$18,%ecx
	call	RETRO_$$_OUTTEXTXYZ$LONGINT$LONGINT$ANSISTRING$LONGINT$LONGINT$LONGINT
.Ll125:
# [239] outtextxyz(18,228,'load: '+inttohex(load,4),188-144*b,2,2);
	movl	$2,40(%rsp)
	movl	$2,32(%rsp)
	leaq	-88(%rbp),%rcx
	call	fpc_ansistr_decr_ref
	movzwl	-32(%rbp),%edx
	leaq	-80(%rbp),%rcx
	movl	$4,%r8d
	call	SYSUTILS_$$_INTTOHEX$LONGINT$LONGINT$$ANSISTRING
	movq	-80(%rbp),%r8
	leaq	_$UNIT1$_Ld15(%rip),%rdx
	leaq	-88(%rbp),%rcx
	movl	$0,%r9d
	call	fpc_ansistr_concat
	movq	-88(%rbp),%r8
	movzbl	-72(%rbp),%eax
	imull	$144,%eax,%eax
	movl	$188,%r9d
	subl	%eax,%r9d
	movl	$228,%edx
	movl	$18,%ecx
	call	RETRO_$$_OUTTEXTXYZ$LONGINT$LONGINT$ANSISTRING$LONGINT$LONGINT$LONGINT
.Ll126:
# [240] outtextxyz(18,260,'init: '+inttohex(init,4),188,2,2);
	movl	$2,40(%rsp)
	movl	$2,32(%rsp)
	leaq	-88(%rbp),%rcx
	call	fpc_ansistr_decr_ref
	movzwl	U_$UNIT1_$$_INIT(%rip),%edx
	leaq	-80(%rbp),%rcx
	movl	$4,%r8d
	call	SYSUTILS_$$_INTTOHEX$LONGINT$LONGINT$$ANSISTRING
	movq	-80(%rbp),%r8
	leaq	_$UNIT1$_Ld16(%rip),%rdx
	leaq	-88(%rbp),%rcx
	movl	$0,%r9d
	call	fpc_ansistr_concat
	movq	-88(%rbp),%r8
	movl	$188,%r9d
	movl	$260,%edx
	movl	$18,%ecx
	call	RETRO_$$_OUTTEXTXYZ$LONGINT$LONGINT$ANSISTRING$LONGINT$LONGINT$LONGINT
.Ll127:
# [241] outtextxyz(18,292,'play: '+inttohex(play,4),188,2,2);
	movl	$2,40(%rsp)
	movl	$2,32(%rsp)
	leaq	-88(%rbp),%rcx
	call	fpc_ansistr_decr_ref
	movzwl	U_$RETRO_$$_PLAY(%rip),%edx
	leaq	-80(%rbp),%rcx
	movl	$4,%r8d
	call	SYSUTILS_$$_INTTOHEX$LONGINT$LONGINT$$ANSISTRING
	movq	-80(%rbp),%r8
	leaq	_$UNIT1$_Ld17(%rip),%rdx
	leaq	-88(%rbp),%rcx
	movl	$0,%r9d
	call	fpc_ansistr_concat
	movq	-88(%rbp),%r8
	movl	$188,%r9d
	movl	$292,%edx
	movl	$18,%ecx
	call	RETRO_$$_OUTTEXTXYZ$LONGINT$LONGINT$ANSISTRING$LONGINT$LONGINT$LONGINT
.Ll128:
# [242] outtextxyz(18,324,'songs: '+inttostr(songs),188,2,2);
	movl	$2,40(%rsp)
	movl	$2,32(%rsp)
	leaq	-88(%rbp),%rcx
	call	fpc_ansistr_decr_ref
	movzwl	TC_$UNIT1_$$_SONGS(%rip),%edx
	leaq	-80(%rbp),%rcx
	call	SYSUTILS_$$_INTTOSTR$LONGINT$$ANSISTRING
	movq	-80(%rbp),%r8
	leaq	_$UNIT1$_Ld18(%rip),%rdx
	leaq	-88(%rbp),%rcx
	movl	$0,%r9d
	call	fpc_ansistr_concat
	movq	-88(%rbp),%r8
	movl	$188,%r9d
	movl	$324,%edx
	movl	$18,%ecx
	call	RETRO_$$_OUTTEXTXYZ$LONGINT$LONGINT$ANSISTRING$LONGINT$LONGINT$LONGINT
.Ll129:
# [243] outtextxyz(18,356,'startsong: '+inttostr(startsong),188,2,2);
	movl	$2,40(%rsp)
	movl	$2,32(%rsp)
	leaq	-88(%rbp),%rcx
	call	fpc_ansistr_decr_ref
	movzwl	-40(%rbp),%edx
	leaq	-80(%rbp),%rcx
	call	SYSUTILS_$$_INTTOSTR$LONGINT$$ANSISTRING
	movq	-80(%rbp),%r8
	leaq	_$UNIT1$_Ld19(%rip),%rdx
	leaq	-88(%rbp),%rcx
	movl	$0,%r9d
	call	fpc_ansistr_concat
	movq	-88(%rbp),%r8
	movl	$188,%r9d
	movl	$356,%edx
	movl	$18,%ecx
	call	RETRO_$$_OUTTEXTXYZ$LONGINT$LONGINT$ANSISTRING$LONGINT$LONGINT$LONGINT
.Ll130:
# [244] outtextxyz(18,388,'speed: '+inttohex(speed,8),188,2,2);
	movl	$2,40(%rsp)
	movl	$2,32(%rsp)
	leaq	-88(%rbp),%rcx
	call	fpc_ansistr_decr_ref
	movl	-8(%rbp),%edx
	leaq	-80(%rbp),%rcx
	movl	$8,%r8d
	call	SYSUTILS_$$_INTTOHEX$QWORD$LONGINT$$ANSISTRING
	movq	-80(%rbp),%r8
	leaq	_$UNIT1$_Ld20(%rip),%rdx
	leaq	-88(%rbp),%rcx
	movl	$0,%r9d
	call	fpc_ansistr_concat
	movq	-88(%rbp),%r8
	movl	$188,%r9d
	movl	$388,%edx
	movl	$18,%ecx
	call	RETRO_$$_OUTTEXTXYZ$LONGINT$LONGINT$ANSISTRING$LONGINT$LONGINT$LONGINT
.Ll131:
# [245] outtextxyz(18,420,'title: '+title,188,2,2);
	movl	$2,40(%rsp)
	movl	$2,32(%rsp)
	leaq	-88(%rbp),%rcx
	call	fpc_ansistr_decr_ref
	leaq	U_$UNIT1_$$_TITLE(%rip),%rdx
	leaq	-80(%rbp),%rcx
	movl	$0,%r8d
	call	fpc_shortstr_to_ansistr
	movq	-80(%rbp),%r8
	leaq	_$UNIT1$_Ld21(%rip),%rdx
	leaq	-88(%rbp),%rcx
	movl	$0,%r9d
	call	fpc_ansistr_concat
	movq	-88(%rbp),%r8
	movl	$188,%r9d
	movl	$420,%edx
	movl	$18,%ecx
	call	RETRO_$$_OUTTEXTXYZ$LONGINT$LONGINT$ANSISTRING$LONGINT$LONGINT$LONGINT
.Ll132:
# [246] outtextxyz(18,452,'author: '+author,188,2,2);
	movl	$2,40(%rsp)
	movl	$2,32(%rsp)
	leaq	-88(%rbp),%rcx
	call	fpc_ansistr_decr_ref
	leaq	U_$UNIT1_$$_AUTHOR(%rip),%rdx
	leaq	-80(%rbp),%rcx
	movl	$0,%r8d
	call	fpc_shortstr_to_ansistr
	movq	-80(%rbp),%r8
	leaq	_$UNIT1$_Ld22(%rip),%rdx
	leaq	-88(%rbp),%rcx
	movl	$0,%r9d
	call	fpc_ansistr_concat
	movq	-88(%rbp),%r8
	movl	$188,%r9d
	movl	$452,%edx
	movl	$18,%ecx
	call	RETRO_$$_OUTTEXTXYZ$LONGINT$LONGINT$ANSISTRING$LONGINT$LONGINT$LONGINT
.Ll133:
# [247] outtextxyz(18,484,'copyright: '+copyright,188,2,2);
	movl	$2,40(%rsp)
	movl	$2,32(%rsp)
	leaq	-88(%rbp),%rcx
	call	fpc_ansistr_decr_ref
	leaq	U_$UNIT1_$$_COPYRIGHT(%rip),%rdx
	leaq	-80(%rbp),%rcx
	movl	$0,%r8d
	call	fpc_shortstr_to_ansistr
	movq	-80(%rbp),%r8
	leaq	_$UNIT1$_Ld23(%rip),%rdx
	leaq	-88(%rbp),%rcx
	movl	$0,%r9d
	call	fpc_ansistr_concat
	movq	-88(%rbp),%r8
	movl	$188,%r9d
	movl	$484,%edx
	movl	$18,%ecx
	call	RETRO_$$_OUTTEXTXYZ$LONGINT$LONGINT$ANSISTRING$LONGINT$LONGINT$LONGINT
.Ll134:
# [248] outtextxyz(18,516,'flags: '+inttohex(flags,4),188,2,2);
	movl	$2,40(%rsp)
	movl	$2,32(%rsp)
	leaq	-88(%rbp),%rcx
	call	fpc_ansistr_decr_ref
	movzwl	-48(%rbp),%edx
	leaq	-80(%rbp),%rcx
	movl	$4,%r8d
	call	SYSUTILS_$$_INTTOHEX$LONGINT$LONGINT$$ANSISTRING
	movq	-80(%rbp),%r8
	leaq	_$UNIT1$_Ld24(%rip),%rdx
	leaq	-88(%rbp),%rcx
	movl	$0,%r9d
	call	fpc_ansistr_concat
	movq	-88(%rbp),%r8
	movl	$188,%r9d
	movl	$516,%edx
	movl	$18,%ecx
	call	RETRO_$$_OUTTEXTXYZ$LONGINT$LONGINT$ANSISTRING$LONGINT$LONGINT$LONGINT
.Ll135:
# [251] song:=startsong-1;
	movzwl	-40(%rbp),%eax
	leal	-1(%eax),%eax
	movw	%ax,TC_$UNIT1_$$_SONG(%rip)
.Ll136:
# [252] fuck:=0;
	movl	$0,TC_$UNIT1_$$_FUCK(%rip)
.Ll137:
# [253] for i:=0 to 100000000 do begin end;
	movl	$0,%esi
	subl	$1,%esi
	.balign 8,0x90
.Lj852:
	addl	$1,%esi
	cmpl	$100000000,%esi
	jl	.Lj852
.Ll138:
# [254] reset6502;
	call	UNIT6502_$$_RESET6502
.Ll139:
# [255] for i:=0 to 65535 do write6502(i,0);
	movl	$0,%esi
	subl	$1,%esi
	.balign 8,0x90
.Lj855:
	addl	$1,%esi
	movslq	%esi,%rcx
	movl	$0,%edx
	call	UNIT6502_$$_WRITE6502$INT64$BYTE
	cmpl	$65535,%esi
	jl	.Lj855
	.balign 8,0x90
.Lj860:
.Ll140:
# [257] il:=fileread(fh,b,1);
	movslq	%ebx,%rcx
	leaq	-72(%rbp),%rdx
	movl	$1,%r8d
	call	SYSUTILS_$$_FILEREAD$QWORD$formal$LONGINT$$LONGINT
	movb	%al,%sil
.Ll141:
# [258] write6502(load,b);
	movzwl	-32(%rbp),%ecx
	movzbl	-72(%rbp),%edx
	call	UNIT6502_$$_WRITE6502$INT64$BYTE
.Ll142:
# [259] load+=1;
	movzwl	-32(%rbp),%eax
	leal	1(%eax),%eax
	movw	%ax,-32(%rbp)
.Ll143:
# [260] until il<>1;
	cmpb	$1,%sil
	je	.Lj860
.Ll144:
# [261] fileseek(fh,0,fsfrombeginning);
	movslq	%ebx,%rcx
	movl	$0,%r8d
	movl	$0,%edx
	call	SYSUTILS_$$_FILESEEK$QWORD$LONGINT$LONGINT$$LONGINT
.Ll145:
# [263] reset6502;
	call	UNIT6502_$$_RESET6502
.Ll146:
# [265] jsr6502(song,init);
	movzwl	U_$UNIT1_$$_INIT(%rip),%edx
	movzwl	TC_$UNIT1_$$_SONG(%rip),%ecx
	call	UNIT6502_$$_JSR6502$WORD$INT64
.Ll147:
# [266] cia:=read6502($dc04)+256*read6502($dc05);
	movq	$56324,%rcx
	call	UNIT6502_$$_READ6502$INT64$$BYTE
	movb	%al,%bl
# PeepHole Optimization,var9
	andl	$255,%ebx
	movq	$56325,%rcx
	call	UNIT6502_$$_READ6502$INT64$$BYTE
# PeepHole Optimization,var9
	andl	$255,%eax
	shll	$8,%eax
	leal	(%ebx,%eax),%eax
	movl	%eax,U_$UNIT1_$$_CIA(%rip)
.Ll148:
# [267] outtextxyz(18,578,'cia: '+inttohex(read6502($dc04)+256*read6502($dc05),4),188,2,2);
	movl	$2,40(%rsp)
	movl	$2,32(%rsp)
	leaq	-88(%rbp),%rcx
	call	fpc_ansistr_decr_ref
	movq	$56324,%rcx
	call	UNIT6502_$$_READ6502$INT64$$BYTE
	movb	%al,%bl
# PeepHole Optimization,var9
	andl	$255,%ebx
	movq	$56325,%rcx
	call	UNIT6502_$$_READ6502$INT64$$BYTE
# PeepHole Optimization,var9
	andl	$255,%eax
	shlq	$8,%rax
	leaq	(%rbx,%rax),%rdx
	leaq	-80(%rbp),%rcx
	movl	$4,%r8d
	call	SYSUTILS_$$_INTTOHEX$INT64$LONGINT$$ANSISTRING
	movq	-80(%rbp),%r8
	leaq	_$UNIT1$_Ld25(%rip),%rdx
	leaq	-88(%rbp),%rcx
	movl	$0,%r9d
	call	fpc_ansistr_concat
	movq	-88(%rbp),%r8
	movl	$188,%r9d
	movl	$578,%edx
	movl	$18,%ecx
	call	RETRO_$$_OUTTEXTXYZ$LONGINT$LONGINT$ANSISTRING$LONGINT$LONGINT$LONGINT
.Lj923:
.Ll149:
	nop
.Lj342:
	movq	%rbp,%rcx
	call	UNIT1$_$SIDOPEN$LONGINT_$$_fin$2
.Ll150:
# [271] end;
	movq	-104(%rbp),%rbx
	movq	-96(%rbp),%rsi
	leaq	(%rbp),%rsp
	popq	%rbp
	ret
.seh_handler __FPC_specific_handler,@unwind
.seh_handlerdata
	.long	1
	.long	0
	.rva	.Lj341
	.rva	.Lj342
	.rva	UNIT1$_$SIDOPEN$LONGINT_$$_fin$2

.section .text.n_unit1_$$_sidopen$longint,"x"
.seh_endproc
.Lc34:
.Lt3:
.Ll151:

.section .text.n_unit1$_$loadxi$ansistring$$longint_$$_fin$3,"x"
	.balign 16,0x90
UNIT1$_$LOADXI$ANSISTRING$$LONGINT_$$_fin$3:
.Lc38:
.seh_proc UNIT1$_$LOADXI$ANSISTRING$$LONGINT_$$_fin$3
.Ll152:
# [294] begin
	pushq	%rbp
.seh_pushreg %rbp
.Lc40:
.Lc41:
	movq	%rcx,%rbp
.Lc42:
	leaq	-32(%rsp),%rsp
.seh_stackalloc 32
# Var $parentfp located in register rbp
.seh_endprologue
.Ll153:
	leaq	-976(%rbp),%rcx
	call	fpc_ansistr_decr_ref
	leaq	-968(%rbp),%rcx
	call	fpc_ansistr_decr_ref
	leaq	-960(%rbp),%rax
	movq	%rax,%rcx
	call	fpc_ansistr_decr_ref
	leaq	-8(%rbp),%rcx
	call	fpc_ansistr_decr_ref
	nop
	leaq	32(%rsp),%rsp
	popq	%rbp
	ret
.seh_endproc
.Lc39:
.Lt6:
.Ll154:

.section .text.n_unit1_$$_loadxi$ansistring$$longint,"x"
	.balign 16,0x90
.globl	UNIT1_$$_LOADXI$ANSISTRING$$LONGINT
UNIT1_$$_LOADXI$ANSISTRING$$LONGINT:
.Lc43:
# Temps allocated between rbp-1000 and rbp-960
.seh_proc UNIT1_$$_LOADXI$ANSISTRING$$LONGINT
.Ll155:
	pushq	%rbp
.seh_pushreg %rbp
.Lc45:
.Lc46:
	movq	%rsp,%rbp
.Lc47:
	leaq	-1040(%rsp),%rsp
.seh_stackalloc 1040
# Var $result located in register edx
# Var i located in register esi
# Var j located in register edi
# Var spl located in register eax
# Var sampleptr located in register rax
# Var isampleptr located in register rax
	movq	%rbx,-1000(%rbp)
	movq	%rdi,-992(%rbp)
	movq	%rsi,-984(%rbp)
.seh_savereg %rbx, 40
.seh_savereg %rdi, 48
.seh_savereg %rsi, 56
.seh_endprologue
# Var filename located at rbp-8, size=OS_64
# Var samplenum located at rbp-16, size=OS_16
# Var head1 located at rbp-80, size=OS_NO
# Var head2 located at rbp-312, size=OS_NO
# Var sampleinfo located at rbp-952, size=OS_NO
# Var s located at rbp-960, size=OS_64
# PeepHole Optimization,MovMov2Mov1
	movq	%rcx,-8(%rbp)
	call	fpc_ansistr_incr_ref
.Ll156:
	movq	$0,-960(%rbp)
	movq	$0,-976(%rbp)
	movq	$0,-968(%rbp)
.Lj934:
	nop
.Lj930:
.Ll157:
# [295] fh:=fileopen(filename,$40);
	movq	-8(%rbp),%rcx
	movl	$64,%edx
	call	SYSUTILS_$$_FILEOPEN$RAWBYTESTRING$LONGINT$$QWORD
	movl	%eax,U_$RETRO_$$_FH(%rip)
.Ll158:
# [296] fileread(fh,head1,$40);  //text header
	movslq	U_$RETRO_$$_FH(%rip),%rcx
	leaq	-80(%rbp),%rdx
	movl	$64,%r8d
	call	SYSUTILS_$$_FILEREAD$QWORD$formal$LONGINT$$LONGINT
.Ll159:
# [297] fileread(fh,head2,$e8);  //inst headers
	movslq	U_$RETRO_$$_FH(%rip),%rcx
	leaq	-312(%rbp),%rdx
	movl	$232,%r8d
	call	SYSUTILS_$$_FILEREAD$QWORD$formal$LONGINT$$LONGINT
.Ll160:
# [298] fileread(fh,samplenum,2);
	movslq	U_$RETRO_$$_FH(%rip),%rcx
	leaq	-16(%rbp),%rdx
	movl	$2,%r8d
	call	SYSUTILS_$$_FILEREAD$QWORD$formal$LONGINT$$LONGINT
.Ll161:
# [299] for i:=0 to samplenum-1 do fileread(fh,sampleinfo[i],40);
	movzwl	-16(%rbp),%eax
	leal	-1(%eax),%ebx
	movl	$0,%esi
	cmpl	%esi,%ebx
	jl	.Lj962
	subl	$1,%esi
	.balign 8,0x90
.Lj963:
	addl	$1,%esi
# PeepHole Optimization,var2a
	movl	%esi,%eax
	imulq	$40,%rax,%rax
	leaq	-952(%rbp,%rax),%rdx
	movslq	U_$RETRO_$$_FH(%rip),%rcx
	movl	$40,%r8d
	call	SYSUTILS_$$_FILEREAD$QWORD$formal$LONGINT$$LONGINT
	cmpl	%esi,%ebx
	jg	.Lj963
.Lj962:
.Ll162:
# [300] fileclose(fh);
	movslq	U_$RETRO_$$_FH(%rip),%rcx
	call	SYSUTILS_$$_FILECLOSE$QWORD
.Ll163:
# [301] form1.memo1.lines.clear;
	movq	U_$UNIT1_$$_FORM1(%rip),%rax
	movq	1928(%rax),%rax
	movq	1480(%rax),%rcx
	movq	U_$UNIT1_$$_FORM1(%rip),%rax
	movq	1928(%rax),%rax
	movq	1480(%rax),%rax
	movq	(%rax),%rax
	call	*368(%rax)
.Ll164:
# [302] form1.memo1.lines.add('Samples: '+inttostr(samplenum));
	leaq	-968(%rbp),%rcx
	call	fpc_ansistr_decr_ref
	movzwl	-16(%rbp),%edx
	leaq	-976(%rbp),%rcx
	call	SYSUTILS_$$_INTTOSTR$LONGINT$$ANSISTRING
	movq	-976(%rbp),%r8
	leaq	_$UNIT1$_Ld26(%rip),%rdx
	leaq	-968(%rbp),%rcx
	movl	$0,%r9d
	call	fpc_ansistr_concat
	movq	-968(%rbp),%rdx
	movq	U_$UNIT1_$$_FORM1(%rip),%rax
	movq	1928(%rax),%rax
	movq	1480(%rax),%rcx
	movq	U_$UNIT1_$$_FORM1(%rip),%rax
	movq	1928(%rax),%rax
	movq	1480(%rax),%rax
	movq	(%rax),%rax
	call	*328(%rax)
.Ll165:
# [303] form1.memo1.lines.add('');
	movq	U_$UNIT1_$$_FORM1(%rip),%rax
	movq	1928(%rax),%rax
	movq	1480(%rax),%rcx
	movq	$0,%rdx
	movq	U_$UNIT1_$$_FORM1(%rip),%rax
	movq	1928(%rax),%rax
	movq	1480(%rax),%rax
	movq	(%rax),%rax
	call	*328(%rax)
.Ll166:
# [304] for i:=0 to samplenum-1 do
	movzwl	-16(%rbp),%eax
	leal	-1(%eax),%ebx
	movl	$0,%esi
	cmpl	%esi,%ebx
	jl	.Lj997
	subl	$1,%esi
	.balign 8,0x90
.Lj998:
	addl	$1,%esi
.Ll167:
# [306] s:='';
	movq	$0,%rdx
	leaq	-960(%rbp),%rcx
	call	fpc_ansistr_assign
.Ll168:
# [307] for j:=0 to 21 do s+=sampleinfo[i].samplename[j];
	movl	$0,%edi
	subl	$1,%edi
	.balign 8,0x90
.Lj1005:
	addl	$1,%edi
# PeepHole Optimization,var2a
	movl	%esi,%eax
	imulq	$40,%rax,%rdx
# PeepHole Optimization,var2a
	movl	%edi,%eax
	leaq	-934(%rbp,%rdx),%rdx
	movzbl	(%rdx,%rax,1),%edx
	leaq	-976(%rbp),%rcx
	movl	$0,%r8d
	call	fpc_char_to_ansistr
	movq	-976(%rbp),%r8
	movq	-960(%rbp),%rdx
	leaq	-960(%rbp),%rcx
	movl	$0,%r9d
	call	fpc_ansistr_concat
	cmpl	$21,%edi
	jl	.Lj1005
.Ll169:
# [309] form1.memo1.lines.add('Sample name: '+s);
	leaq	-976(%rbp),%rcx
	call	fpc_ansistr_decr_ref
	movq	-960(%rbp),%r8
	leaq	_$UNIT1$_Ld27(%rip),%rdx
	leaq	-976(%rbp),%rcx
	movl	$0,%r9d
	call	fpc_ansistr_concat
	movq	-976(%rbp),%rdx
	movq	U_$UNIT1_$$_FORM1(%rip),%rax
	movq	1928(%rax),%rax
	movq	1480(%rax),%rcx
	movq	U_$UNIT1_$$_FORM1(%rip),%rax
	movq	1928(%rax),%rax
	movq	1480(%rax),%rax
	movq	(%rax),%rax
	call	*328(%rax)
.Ll170:
# [310] form1.memo1.lines.add('Sample length: '+inttostr(sampleinfo[i].slen));
	leaq	-976(%rbp),%rcx
	call	fpc_ansistr_decr_ref
# PeepHole Optimization,var2a
	movl	%esi,%eax
	imulq	$40,%rax,%rax
	movl	-952(%rbp,%rax),%edx
	leaq	-968(%rbp),%rcx
	call	SYSUTILS_$$_INTTOSTR$QWORD$$ANSISTRING
	movq	-968(%rbp),%r8
	leaq	_$UNIT1$_Ld28(%rip),%rdx
	leaq	-976(%rbp),%rcx
	movl	$0,%r9d
	call	fpc_ansistr_concat
	movq	-976(%rbp),%rdx
	movq	U_$UNIT1_$$_FORM1(%rip),%rax
	movq	1928(%rax),%rax
	movq	1480(%rax),%rcx
	movq	U_$UNIT1_$$_FORM1(%rip),%rax
	movq	1928(%rax),%rax
	movq	1480(%rax),%rax
	movq	(%rax),%rax
	call	*328(%rax)
.Ll171:
# [311] form1.memo1.lines.add('Sample loop start: '+inttostr(sampleinfo[i].sls));
	leaq	-976(%rbp),%rcx
	call	fpc_ansistr_decr_ref
# PeepHole Optimization,var2a
	movl	%esi,%eax
	imulq	$40,%rax,%rax
	movl	-948(%rbp,%rax),%edx
	leaq	-968(%rbp),%rcx
	call	SYSUTILS_$$_INTTOSTR$QWORD$$ANSISTRING
	movq	-968(%rbp),%r8
	leaq	_$UNIT1$_Ld29(%rip),%rdx
	leaq	-976(%rbp),%rcx
	movl	$0,%r9d
	call	fpc_ansistr_concat
	movq	-976(%rbp),%rdx
	movq	U_$UNIT1_$$_FORM1(%rip),%rax
	movq	1928(%rax),%rax
	movq	1480(%rax),%rcx
	movq	U_$UNIT1_$$_FORM1(%rip),%rax
	movq	1928(%rax),%rax
	movq	1480(%rax),%rax
	movq	(%rax),%rax
	call	*328(%rax)
.Ll172:
# [312] form1.memo1.lines.add('Sample loop length: '+inttostr(sampleinfo[i].sll));
	leaq	-976(%rbp),%rcx
	call	fpc_ansistr_decr_ref
# PeepHole Optimization,var2a
	movl	%esi,%eax
	imulq	$40,%rax,%rax
	movl	-944(%rbp,%rax),%edx
	leaq	-968(%rbp),%rcx
	call	SYSUTILS_$$_INTTOSTR$QWORD$$ANSISTRING
	movq	-968(%rbp),%r8
	leaq	_$UNIT1$_Ld30(%rip),%rdx
	leaq	-976(%rbp),%rcx
	movl	$0,%r9d
	call	fpc_ansistr_concat
	movq	-976(%rbp),%rdx
	movq	U_$UNIT1_$$_FORM1(%rip),%rax
	movq	1928(%rax),%rax
	movq	1480(%rax),%rcx
	movq	U_$UNIT1_$$_FORM1(%rip),%rax
	movq	1928(%rax),%rax
	movq	1480(%rax),%rax
	movq	(%rax),%rax
	call	*328(%rax)
.Ll173:
# [313] form1.memo1.lines.add('Sample type :'+inttohex(sampleinfo[i].sampletype,2));
	leaq	-976(%rbp),%rcx
	call	fpc_ansistr_decr_ref
# PeepHole Optimization,var2a
	movl	%esi,%eax
	imulq	$40,%rax,%rax
	movzbl	-938(%rbp,%rax),%edx
	leaq	-968(%rbp),%rcx
	movl	$2,%r8d
	call	SYSUTILS_$$_INTTOHEX$LONGINT$LONGINT$$ANSISTRING
	movq	-968(%rbp),%r8
	leaq	_$UNIT1$_Ld31(%rip),%rdx
	leaq	-976(%rbp),%rcx
	movl	$0,%r9d
	call	fpc_ansistr_concat
	movq	-976(%rbp),%rdx
	movq	U_$UNIT1_$$_FORM1(%rip),%rax
	movq	1928(%rax),%rax
	movq	1480(%rax),%rcx
	movq	U_$UNIT1_$$_FORM1(%rip),%rax
	movq	1928(%rax),%rax
	movq	1480(%rax),%rax
	movq	(%rax),%rax
	call	*328(%rax)
.Ll174:
# [314] form1.memo1.lines.add('');
	movq	U_$UNIT1_$$_FORM1(%rip),%rax
	movq	1928(%rax),%rax
	movq	1480(%rax),%rcx
	movq	$0,%rdx
	movq	U_$UNIT1_$$_FORM1(%rip),%rax
	movq	1928(%rax),%rax
	movq	1480(%rax),%rax
	movq	(%rax),%rax
	call	*328(%rax)
.Ll175:
	cmpl	%esi,%ebx
	jg	.Lj998
.Lj997:
.Lj1102:
.Ll176:
	nop
.Lj931:
	movq	%rbp,%rcx
	call	UNIT1$_$LOADXI$ANSISTRING$$LONGINT_$$_fin$3
.Ll177:
# [333] end;
	movl	%edx,%eax
	movq	-1000(%rbp),%rbx
	movq	-992(%rbp),%rdi
	movq	-984(%rbp),%rsi
	leaq	(%rbp),%rsp
	popq	%rbp
	ret
.seh_handler __FPC_specific_handler,@unwind
.seh_handlerdata
	.long	1
	.long	0
	.rva	.Lj930
	.rva	.Lj931
	.rva	UNIT1$_$LOADXI$ANSISTRING$$LONGINT_$$_fin$3

.section .text.n_unit1_$$_loadxi$ansistring$$longint,"x"
.seh_endproc
.Lc44:
.Lt5:
.Ll178:
# End asmlist al_procedures
# Begin asmlist al_globals

.section .bss
	.balign 8
# [39] Form1: TForm1;
	.globl U_$UNIT1_$$_FORM1
U_$UNIT1_$$_FORM1:
	.zero 8

.section .bss
# [40] var ram6502:array[0..65535] of byte;
	.globl U_$UNIT1_$$_RAM6502
U_$UNIT1_$$_RAM6502:
	.zero 65536

.section .bss
	.balign 4
# [43] cia:integer;
	.globl U_$UNIT1_$$_CIA
U_$UNIT1_$$_CIA:
	.zero 4

.section .bss
	.balign 2
# [46] init:word;
	.globl U_$UNIT1_$$_INIT
U_$UNIT1_$$_INIT:
	.zero 2

.section .bss
# [47] title,author,copyright:string[32];
	.globl U_$UNIT1_$$_TITLE
U_$UNIT1_$$_TITLE:
	.zero 33

.section .bss
	.globl U_$UNIT1_$$_AUTHOR
U_$UNIT1_$$_AUTHOR:
	.zero 33

.section .bss
	.globl U_$UNIT1_$$_COPYRIGHT
U_$UNIT1_$$_COPYRIGHT:
	.zero 33

.section .bss
	.balign 8
# [48] sc:TSynthCtrl;
	.globl U_$UNIT1_$$_SC
U_$UNIT1_$$_SC:
	.zero 8

.section .data.n_VMT_$UNIT1_$$_TFORM1,"d"
	.balign 8
.globl	VMT_$UNIT1_$$_TFORM1
VMT_$UNIT1_$$_TFORM1:
	.quad	1976,-1976
	.quad	VMT_$FORMS_$$_TFORM
	.quad	.Ld32
	.quad	0
	.quad	.Ld33
	.quad	.Ld39
	.quad	RTTI_$UNIT1_$$_TFORM1
	.quad	0,0,0,0
	.quad	FORMS$_$TCUSTOMFORM_$__$$_DESTROY
	.quad	LCLCLASSES$_$TLCLCOMPONENT_$__$$_NEWINSTANCE$$TOBJECT
	.quad	SYSTEM$_$TOBJECT_$__$$_FREEINSTANCE
	.quad	CLASSES$_$TCOMPONENT_$__$$_SAFECALLEXCEPTION$TOBJECT$POINTER$$HRESULT
	.quad	CONTROLS$_$TWINCONTROL_$__$$_DEFAULTHANDLER$formal
	.quad	FORMS$_$TCUSTOMFORM_$__$$_AFTERCONSTRUCTION
	.quad	FORMS$_$TCUSTOMFORM_$__$$_BEFOREDESTRUCTION
	.quad	FPC_EMPTYMETHOD
	.quad	SYSTEM$_$TOBJECT_$__$$_DISPATCH$formal
	.quad	SYSTEM$_$TOBJECT_$__$$_DISPATCHSTR$formal
	.quad	SYSTEM$_$TOBJECT_$__$$_EQUALS$TOBJECT$$BOOLEAN
	.quad	SYSTEM$_$TOBJECT_$__$$_GETHASHCODE$$INT64
	.quad	SYSTEM$_$TOBJECT_$__$$_TOSTRING$$ANSISTRING
	.quad	CONTROLS$_$TCONTROL_$__$$_ASSIGNTO$TPERSISTENT
	.quad	CONTROLS$_$TCONTROL_$__$$_DEFINEPROPERTIES$TFILER
	.quad	CLASSES$_$TCOMPONENT_$__$$_GETOWNER$$TPERSISTENT
	.quad	CLASSES$_$TPERSISTENT_$__$$_ASSIGN$TPERSISTENT
	.quad	CLASSES$_$TCOMPONENT_$__$$_GETNAMEPATH$$ANSISTRING
	.quad	FORMS$_$TCUSTOMFORM_$__$$_GETCHILDREN$TGETCHILDPROC$TCOMPONENT
	.quad	CLASSES$_$TCOMPONENT_$__$$_GETCHILDOWNER$$TCOMPONENT
	.quad	CLASSES$_$TCOMPONENT_$__$$_GETCHILDPARENT$$TCOMPONENT
	.quad	FORMS$_$TFORM_$__$$_LOADED
	.quad	CLASSES$_$TCOMPONENT_$__$$_LOADING
	.quad	FORMS$_$TCUSTOMFORM_$__$$_NOTIFICATION$TCOMPONENT$TOPERATION
	.quad	FPC_EMPTYMETHOD
	.quad	CONTROLS$_$TCONTROL_$__$$_READSTATE$TREADER
	.quad	CONTROLS$_$TCONTROL_$__$$_SETNAME$ANSISTRING
	.quad	FPC_EMPTYMETHOD
	.quad	CONTROLS$_$TCONTROL_$__$$_SETPARENTCOMPONENT$TCOMPONENT
	.quad	CLASSES$_$TCOMPONENT_$__$$_UPDATING
	.quad	CLASSES$_$TCOMPONENT_$__$$_UPDATED
	.quad	FPC_EMPTYMETHOD
	.quad	CLASSES$_$TCOMPONENT_$__$$_VALIDATERENAME$TCOMPONENT$ANSISTRING$ANSISTRING
	.quad	CLASSES$_$TCOMPONENT_$__$$_VALIDATECONTAINER$TCOMPONENT
	.quad	FPC_EMPTYMETHOD
	.quad	CLASSES$_$TCOMPONENT_$__$$_QUERYINTERFACE$TGUID$formal$$HRESULT
	.quad	CLASSES$_$TCOMPONENT_$__$$_WRITESTATE$TWRITER
	.quad	FORMS$_$TFORM_$__$$_CREATE$TCOMPONENT$$TFORM
	.quad	CLASSES$_$TCOMPONENT_$__$$_EXECUTEACTION$TBASICACTION$$BOOLEAN
	.quad	CONTROLS$_$TCONTROL_$__$$_GETPARENTCOMPONENT$$TCOMPONENT
	.quad	CONTROLS$_$TCONTROL_$__$$_HASPARENT$$BOOLEAN
	.quad	CLASSES$_$TCOMPONENT_$__$$_UPDATEACTION$TBASICACTION$$BOOLEAN
	.quad	FORMS$_$TCUSTOMFORM_$__$$_WSREGISTERCLASS
	.quad	LCLCLASSES$_$TLCLCOMPONENT_$__$$_GETWSCOMPONENTCLASS$TLCLCOMPONENT$$TWSLCLCOMPONENTCLASS
	.quad	FORMS$_$TCUSTOMFORM_$__$$_REMOVEALLHANDLERSOFOBJECT$TOBJECT
	.quad	CONTROLS$_$TCONTROL_$__$$_GETCURSOR$$TCURSOR
	.quad	CONTROLS$_$TCONTROL_$__$$_SETCURSOR$TCURSOR
	.quad	FORMS$_$TCUSTOMFORM_$__$$_SETVISIBLE$BOOLEAN
	.quad	CONTROLS$_$TCONTROL_$__$$_DOONPARENTHANDLEDESTRUCTION
	.quad	FORMS$_$TCUSTOMFORM_$__$$_DOAUTOSIZE
	.quad	CONTROLS$_$TWINCONTROL_$__$$_DOALLAUTOSIZE
	.quad	CONTROLS$_$TCONTROL_$__$$_ANCHORSIDECHANGED$TANCHORSIDE
	.quad	CONTROLS$_$TCONTROL_$__$$_FOREIGNANCHORSIDECHANGED$TANCHORSIDE$TANCHORSIDECHANGEOPERATION
	.quad	CONTROLS$_$TCONTROL_$__$$_SETALIGN$TALIGN
	.quad	CONTROLS$_$TCONTROL_$__$$_SETANCHORS$TANCHORS
	.quad	FORMS$_$TCUSTOMFORM_$__$$_SETAUTOSIZE$BOOLEAN
	.quad	CONTROLS$_$TCONTROL_$__$$_BOUNDSCHANGED
	.quad	CONTROLS$_$TCONTROL_$__$$_CREATECONTROLBORDERSPACING$$TCONTROLBORDERSPACING
	.quad	CONTROLS$_$TWINCONTROL_$__$$_DOCONSTRAINTSCHANGE$TOBJECT
	.quad	CONTROLS$_$TCONTROL_$__$$_DOBORDERSPACINGCHANGE$TOBJECT$BOOLEAN
	.quad	CONTROLS$_$TCONTROL_$__$$_ISBORDERSPACINGINNERBORDERSTORED$$BOOLEAN
	.quad	CONTROLS$_$TWINCONTROL_$__$$_SENDMOVESIZEMESSAGES$BOOLEAN$BOOLEAN
	.quad	CONTROLS$_$TCONTROL_$__$$_CONSTRAINEDRESIZE$crc2DEA86E4
	.quad	FORMS$_$TCUSTOMFORM_$__$$_CALCULATEPREFERREDSIZE$LONGINT$LONGINT$BOOLEAN
	.quad	FORMS$_$TSCROLLINGWINCONTROL_$__$$_DOONRESIZE
	.quad	CONTROLS$_$TCONTROL_$__$$_DOONCHANGEBOUNDS
	.quad	CONTROLS$_$TCONTROL_$__$$_RESIZE
	.quad	FORMS$_$TCUSTOMFORM_$__$$_REQUESTALIGN
	.quad	CONTROLS$_$TCONTROL_$__$$_CHANGEBOUNDS$LONGINT$LONGINT$LONGINT$LONGINT$BOOLEAN
	.quad	CONTROLS$_$TWINCONTROL_$__$$_DOSETBOUNDS$LONGINT$LONGINT$LONGINT$LONGINT
	.quad	CONTROLS$_$TWINCONTROL_$__$$_CHANGESCALE$LONGINT$LONGINT
	.quad	CONTROLS$_$TCONTROL_$__$$_CANAUTOSIZE$LONGINT$LONGINT$$BOOLEAN
	.quad	CONTROLS$_$TCONTROL_$__$$_SETBIDIMODE$TBIDIMODE
	.quad	CONTROLS$_$TCONTROL_$__$$_SETPARENTBIDIMODE$BOOLEAN
	.quad	CONTROLS$_$TWINCONTROL_$__$$_GETCLIENTORIGIN$$TPOINT
	.quad	CONTROLS$_$TWINCONTROL_$__$$_GETCLIENTRECT$$TRECT
	.quad	FORMS$_$TSCROLLINGWINCONTROL_$__$$_GETLOGICALCLIENTRECT$$TRECT
	.quad	CONTROLS$_$TCONTROL_$__$$_GETSCROLLEDCLIENTRECT$$TRECT
	.quad	FORMS$_$TSCROLLINGWINCONTROL_$__$$_GETCLIENTSCROLLOFFSET$$TPOINT
	.quad	CONTROLS$_$TWINCONTROL_$__$$_GETCONTROLORIGIN$$TPOINT
	.quad	CONTROLS$_$TWINCONTROL_$__$$_ISCLIENTHEIGHTSTORED$$BOOLEAN
	.quad	CONTROLS$_$TWINCONTROL_$__$$_ISCLIENTWIDTHSTORED$$BOOLEAN
	.quad	CONTROLS$_$TCONTROL_$__$$_GETDOCKEDGE$TPOINT$$TALIGN
	.quad	CONTROLS$_$TCONTROL_$__$$_GETDRAGIMAGES$$TDRAGIMAGELIST
	.quad	FORMS$_$TCUSTOMFORM_$__$$_GETFLOATING$$BOOLEAN
	.quad	CONTROLS$_$TCONTROL_$__$$_GETFLOATINGDOCKSITECLASS$$TWINCONTROLCLASS
	.quad	CONTROLS$_$TCONTROL_$__$$_BEFOREDRAGSTART
	.quad	FORMS$_$TCUSTOMFORM_$__$$_BEGINAUTODRAG
	.quad	CONTROLS$_$TWINCONTROL_$__$$_DOFLOATMSG$TDRAGDOCKOBJECT
	.quad	CONTROLS$_$TCONTROL_$__$$_DOCKTRACKNOTARGET$TDRAGDOCKOBJECT$LONGINT$LONGINT
	.quad	FORMS$_$TCUSTOMFORM_$__$$_DODOCK$TWINCONTROL$TRECT
	.quad	CONTROLS$_$TWINCONTROL_$__$$_DODRAGMSG$TDRAGMESSAGE$TPOINT$TDRAGOBJECT$TCONTROL$BOOLEAN$$INT64
	.quad	CONTROLS$_$TCONTROL_$__$$_DOENDDOCK$TOBJECT$LONGINT$LONGINT
	.quad	CONTROLS$_$TCONTROL_$__$$_DOENDDRAG$TOBJECT$LONGINT$LONGINT
	.quad	CONTROLS$_$TCONTROL_$__$$_DOSTARTDOCK$TDRAGOBJECT
	.quad	CONTROLS$_$TCONTROL_$__$$_DOSTARTDRAG$TDRAGOBJECT
	.quad	CONTROLS$_$TCONTROL_$__$$_DRAGCANCELED
	.quad	CONTROLS$_$TCONTROL_$__$$_DRAGOVER$TOBJECT$LONGINT$LONGINT$TDRAGSTATE$BOOLEAN
	.quad	CONTROLS$_$TCONTROL_$__$$_POSITIONDOCKRECT$TDRAGDOCKOBJECT
	.quad	CONTROLS$_$TCONTROL_$__$$_SETDRAGMODE$TDRAGMODE
	.quad	FORMS$_$TCUSTOMFORM_$__$$_GETDEFAULTDOCKCAPTION$$ANSISTRING
	.quad	CONTROLS$_$TCONTROL_$__$$_CLICK
	.quad	CONTROLS$_$TCONTROL_$__$$_DBLCLICK
	.quad	CONTROLS$_$TCONTROL_$__$$_TRIPLECLICK
	.quad	CONTROLS$_$TCONTROL_$__$$_QUADCLICK
	.quad	CONTROLS$_$TCONTROL_$__$$_MOUSEDOWN$TMOUSEBUTTON$TSHIFTSTATE$LONGINT$LONGINT
	.quad	CONTROLS$_$TCONTROL_$__$$_MOUSEMOVE$TSHIFTSTATE$LONGINT$LONGINT
	.quad	CONTROLS$_$TCONTROL_$__$$_MOUSEUP$TMOUSEBUTTON$TSHIFTSTATE$LONGINT$LONGINT
	.quad	CONTROLS$_$TCONTROL_$__$$_MOUSEENTER
	.quad	CONTROLS$_$TCONTROL_$__$$_MOUSELEAVE
	.quad	CONTROLS$_$TWINCONTROL_$__$$_DIALOGCHAR$TLMKEY$$BOOLEAN
	.quad	CONTROLS$_$TCONTROL_$__$$_GETPALETTE$$QWORD
	.quad	CONTROLS$_$TWINCONTROL_$__$$_CHILDCLASSALLOWED$TCLASS$$BOOLEAN
	.quad	CONTROLS$_$TCONTROL_$__$$_LOADEDALL
	.quad	CONTROLS$_$TWINCONTROL_$__$$_FORMENDUPDATED
	.quad	CONTROLS$_$TCUSTOMCONTROL_$__$$_FONTCHANGED$TOBJECT
	.quad	CONTROLS$_$TCONTROL_$__$$_PARENTFONTCHANGED
	.quad	CONTROLS$_$TCONTROL_$__$$_GETACTION$$TBASICACTION
	.quad	CONTROLS$_$TWINCONTROL_$__$$_REALGETTEXT$$TTRANSLATESTRING
	.quad	CONTROLS$_$TWINCONTROL_$__$$_REALSETTEXT$TTRANSLATESTRING
	.quad	CONTROLS$_$TCONTROL_$__$$_TEXTCHANGED
	.quad	CONTROLS$_$TCONTROL_$__$$_GETCACHEDTEXT$TTRANSLATESTRING$$BOOLEAN
	.quad	CONTROLS$_$TCONTROL_$__$$_SETACTION$TBASICACTION
	.quad	CONTROLS$_$TCUSTOMCONTROL_$__$$_SETCOLOR$TGRAPHICSCOLOR
	.quad	CONTROLS$_$TCONTROL_$__$$_SETENABLED$BOOLEAN
	.quad	CONTROLS$_$TCONTROL_$__$$_SETHINT$TTRANSLATESTRING
	.quad	FORMS$_$TCUSTOMFORM_$__$$_SETPARENT$TWINCONTROL
	.quad	FORMS$_$TCUSTOMFORM_$__$$_WNDPROC$TMESSAGE
	.quad	CONTROLS$_$TWINCONTROL_$__$$_PARENTFORMHANDLEINITIALIZED
	.quad	CONTROLS$_$TWINCONTROL_$__$$_GETMOUSECAPTURE$$BOOLEAN
	.quad	CONTROLS$_$TCONTROL_$__$$_CAPTURECHANGED
	.quad	CONTROLS$_$TWINCONTROL_$__$$_CANTAB$$BOOLEAN
	.quad	CONTROLS$_$TWINCONTROL_$__$$_GETDEVICECONTEXT$QWORD$$QWORD
	.quad	CONTROLS$_$TCONTROL_$__$$_GETENABLED$$BOOLEAN
	.quad	CONTROLS$_$TCONTROL_$__$$_GETPOPUPMENU$$TPOPUPMENU
	.quad	CONTROLS$_$TCONTROL_$__$$_DOONSHOWHINT$PHINTINFO
	.quad	CONTROLS$_$TCONTROL_$__$$_DOMOUSEWHEEL$TSHIFTSTATE$LONGINT$TPOINT$$BOOLEAN
	.quad	CONTROLS$_$TCONTROL_$__$$_DOMOUSEWHEELDOWN$TSHIFTSTATE$TPOINT$$BOOLEAN
	.quad	CONTROLS$_$TCONTROL_$__$$_DOMOUSEWHEELUP$TSHIFTSTATE$TPOINT$$BOOLEAN
	.quad	FORMS$_$TCUSTOMFORM_$__$$_VISIBLECHANGING
	.quad	FORMS$_$TCUSTOMFORM_$__$$_VISIBLECHANGED
	.quad	CONTROLS$_$TCONTROL_$__$$_ENABLEDCHANGING
	.quad	CONTROLS$_$TCONTROL_$__$$_ENABLEDCHANGED
	.quad	CONTROLS$_$TCONTROL_$__$$_DOCONTEXTPOPUP$TPOINT$BOOLEAN
	.quad	FORMS$_$TCUSTOMFORM_$__$$_SETZORDER$BOOLEAN
	.quad	FORMS$_$TCUSTOMFORM_$__$$_GETCONTROLCLASSDEFAULTSIZE$$TSIZE
	.quad	FORMS$_$TCUSTOMFORM_$__$$_COLORISSTORED$$BOOLEAN
	.quad	FORMS$_$TCUSTOMDESIGNCONTROL_$__$$_DOAUTOADJUSTLAYOUT$TLAYOUTADJUSTMENTPOLICY$DOUBLE$DOUBLE
	.quad	CONTROLS$_$TCONTROL_$__$$_GETACTIONLINKCLASS$$TCONTROLACTIONLINKCLASS
	.quad	CONTROLS$_$TCONTROL_$__$$_ACTIONCHANGE$TOBJECT$BOOLEAN
	.quad	CONTROLS$_$TCONTROL_$__$$_DRAGDROP$TOBJECT$LONGINT$LONGINT
	.quad	FORMS$_$TCUSTOMFORM_$__$$_DOCK$TWINCONTROL$TRECT
	.quad	CONTROLS$_$TCONTROL_$__$$_MANUALDOCK$TWINCONTROL$TCONTROL$TALIGN$BOOLEAN$$BOOLEAN
	.quad	CONTROLS$_$TCONTROL_$__$$_MANUALFLOAT$TRECT$BOOLEAN$$BOOLEAN
	.quad	CONTROLS$_$TCONTROL_$__$$_CREATEACCESSIBLEOBJECT$$TLAZACCESSIBLEOBJECT
	.quad	CONTROLS$_$TCONTROL_$__$$_GETSELECTEDCHILDACCESSIBLEOBJECT$$TLAZACCESSIBLEOBJECT
	.quad	CONTROLS$_$TCONTROL_$__$$_GETCHILDACCESSIBLEOBJECTATPOS$TPOINT$$TLAZACCESSIBLEOBJECT
	.quad	CONTROLS$_$TCONTROL_$__$$_ADJUSTSIZE
	.quad	CONTROLS$_$TWINCONTROL_$__$$_AUTOSIZEPHASES$$TCONTROLAUTOSIZEPHASES
	.quad	CONTROLS$_$TWINCONTROL_$__$$_AUTOSIZEDELAYED$$BOOLEAN
	.quad	CONTROLS$_$TWINCONTROL_$__$$_AUTOSIZEDELAYEDREPORT$$ANSISTRING
	.quad	FORMS$_$TCUSTOMFORM_$__$$_AUTOSIZEDELAYEDHANDLE$$BOOLEAN
	.quad	CONTROLS$_$TWINCONTROL_$__$$_SETBOUNDS$LONGINT$LONGINT$LONGINT$LONGINT
	.quad	CONTROLS$_$TCONTROL_$__$$_SETINITIALBOUNDS$LONGINT$LONGINT$LONGINT$LONGINT
	.quad	CONTROLS$_$TCONTROL_$__$$_SETBOUNDSKEEPBASE$LONGINT$LONGINT$LONGINT$LONGINT
	.quad	FORMS$_$TCUSTOMFORM_$__$$_GETPREFERREDSIZE$LONGINT$LONGINT$BOOLEAN$BOOLEAN
	.quad	CONTROLS$_$TCONTROL_$__$$_GETDEFAULTCOLOR$TDEFAULTCOLORTYPE$$TGRAPHICSCOLOR
	.quad	CONTROLS$_$TCONTROL_$__$$_INVALIDATEPREFERREDSIZE
	.quad	CONTROLS$_$TCONTROL_$__$$_UPDATEBASEBOUNDS$BOOLEAN$BOOLEAN$BOOLEAN
	.quad	CONTROLS$_$TWINCONTROL_$__$$_WRITELAYOUTDEBUGREPORT$ANSISTRING
	.quad	FORMS$_$TCUSTOMDESIGNCONTROL_$__$$_AUTOADJUSTLAYOUT$crc5F4A49A3
	.quad	CONTROLS$_$TCONTROL_$__$$_SHOULDAUTOADJUST$BOOLEAN$BOOLEAN
	.quad	CONTROLS$_$TCONTROL_$__$$_FIXDESIGNFONTSPPI$LONGINT
	.quad	CONTROLS$_$TCONTROL_$__$$_SCALEFONTSPPI$LONGINT$DOUBLE
	.quad	CONTROLS$_$TCONTROL_$__$$_EDITINGDONE
	.quad	CONTROLS$_$TCONTROL_$__$$_EXECUTEDEFAULTACTION
	.quad	CONTROLS$_$TCONTROL_$__$$_EXECUTECANCELACTION
	.quad	CONTROLS$_$TCONTROL_$__$$_ISPARENTOF$TCONTROL$$BOOLEAN
	.quad	CONTROLS$_$TCONTROL_$__$$_ISVISIBLE$$BOOLEAN
	.quad	CONTROLS$_$TCONTROL_$__$$_ISCONTROLVISIBLE$$BOOLEAN
	.quad	FORMS$_$TCUSTOMFORM_$__$$_FORMISUPDATING$$BOOLEAN
	.quad	CONTROLS$_$TWINCONTROL_$__$$_REPAINT
	.quad	CONTROLS$_$TWINCONTROL_$__$$_INVALIDATE
	.quad	CONTROLS$_$TCONTROL_$__$$_CHECKNEWPARENT$TWINCONTROL
	.quad	CONTROLS$_$TWINCONTROL_$__$$_SETTEMPCURSOR$TCURSOR
	.quad	CONTROLS$_$TCONTROL_$__$$_UPDATEROLESFORFORM
	.quad	CONTROLS$_$TCONTROL_$__$$_ACTIVEDEFAULTCONTROLCHANGED$TCONTROL
	.quad	CONTROLS$_$TCONTROL_$__$$_GETTEXTBUF$PCHAR$LONGINT$$LONGINT
	.quad	CONTROLS$_$TWINCONTROL_$__$$_GETTEXTLEN$$LONGINT
	.quad	CONTROLS$_$TCONTROL_$__$$_SETTEXTBUF$PCHAR
	.quad	CONTROLS$_$TWINCONTROL_$__$$_GETCHILDRENRECT$BOOLEAN$$TRECT
	.quad	CONTROLS$_$TWINCONTROL_$__$$_UPDATE
	.quad	CONTROLS$_$TCONTROL_$__$$_HANDLEOBJECTSHOULDBEVISIBLE$$BOOLEAN
	.quad	CONTROLS$_$TWINCONTROL_$__$$_PARENTHANDLESALLOCATED$$BOOLEAN
	.quad	CONTROLS$_$TCONTROL_$__$$_INITIATEACTION
	.quad	CONTROLS$_$TCONTROL_$__$$_SHOWHELP
	.quad	CONTROLS$_$TCONTROL_$__$$_USERIGHTTOLEFTALIGNMENT$$BOOLEAN
	.quad	CONTROLS$_$TCONTROL_$__$$_USERIGHTTOLEFTREADING$$BOOLEAN
	.quad	FORMS$_$TCUSTOMFORM_$__$$_ADJUSTCLIENTRECT$TRECT
	.quad	FORMS$_$TSCROLLINGWINCONTROL_$__$$_ALIGNCONTROLS$TCONTROL$TRECT
	.quad	CONTROLS$_$TWINCONTROL_$__$$_CUSTOMALIGNINSERTBEFORE$TCONTROL$TCONTROL$$BOOLEAN
	.quad	CONTROLS$_$TWINCONTROL_$__$$_CUSTOMALIGNPOSITION$crc472CC6C4
	.quad	CONTROLS$_$TWINCONTROL_$__$$_DOALIGNCHILDCONTROLS$TALIGN$TCONTROL$TFPLIST$TRECT$$BOOLEAN
	.quad	CONTROLS$_$TWINCONTROL_$__$$_DOCHILDSIZINGCHANGE$TOBJECT
	.quad	CONTROLS$_$TWINCONTROL_$__$$_DOSENDSHOWHIDETOINTERFACE
	.quad	CONTROLS$_$TWINCONTROL_$__$$_CONTROLSALIGNED
	.quad	FORMS$_$TCUSTOMFORM_$__$$_DOSENDBOUNDSTOINTERFACE
	.quad	CONTROLS$_$TWINCONTROL_$__$$_REALIZEBOUNDS
	.quad	FORMS$_$TCUSTOMFORM_$__$$_ALLAUTOSIZED
	.quad	FORMS$_$TSCROLLINGWINCONTROL_$__$$_GETPREFERREDSIZECLIENTFRAME$LONGINT$LONGINT
	.quad	FORMS$_$TCUSTOMFORM_$__$$_PAINTWINDOW$QWORD
	.quad	CONTROLS$_$TWINCONTROL_$__$$_CREATEBRUSH
	.quad	CONTROLS$_$TWINCONTROL_$__$$_SCALECONTROLS$LONGINT$LONGINT
	.quad	CONTROLS$_$TWINCONTROL_$__$$_DODOCKCLIENTMSG$TDRAGDOCKOBJECT$TPOINT$$BOOLEAN
	.quad	CONTROLS$_$TWINCONTROL_$__$$_DOUNDOCKCLIENTMSG$TCONTROL$TCONTROL$$BOOLEAN
	.quad	CONTROLS$_$TWINCONTROL_$__$$_DOADDDOCKCLIENT$TCONTROL$TRECT
	.quad	CONTROLS$_$TWINCONTROL_$__$$_DOCKOVER$TDRAGDOCKOBJECT$LONGINT$LONGINT$TDRAGSTATE$BOOLEAN
	.quad	CONTROLS$_$TWINCONTROL_$__$$_DODOCKOVER$TDRAGDOCKOBJECT$LONGINT$LONGINT$TDRAGSTATE$BOOLEAN
	.quad	CONTROLS$_$TWINCONTROL_$__$$_DOREMOVEDOCKCLIENT$TCONTROL
	.quad	CONTROLS$_$TWINCONTROL_$__$$_DOUNDOCK$TWINCONTROL$TCONTROL$BOOLEAN$$BOOLEAN
	.quad	CONTROLS$_$TWINCONTROL_$__$$_GETSITEINFO$TCONTROL$TRECT$TPOINT$BOOLEAN
	.quad	CONTROLS$_$TWINCONTROL_$__$$_RELOADDOCKEDCONTROL$ANSISTRING$TCONTROL
	.quad	CONTROLS$_$TWINCONTROL_$__$$_CREATEDOCKMANAGER$$TDOCKMANAGER
	.quad	CONTROLS$_$TWINCONTROL_$__$$_DOGETDOCKCAPTION$TCONTROL$ANSISTRING
	.quad	CONTROLS$_$TWINCONTROL_$__$$_DOENTER
	.quad	CONTROLS$_$TWINCONTROL_$__$$_DOEXIT
	.quad	CONTROLS$_$TWINCONTROL_$__$$_DOUTF8KEYPRESS$TUTF8CHAR$$BOOLEAN
	.quad	CONTROLS$_$TWINCONTROL_$__$$_CHILDKEY$TLMKEY$$BOOLEAN
	.quad	CONTROLS$_$TWINCONTROL_$__$$_CONTROLKEYDOWN$WORD$TSHIFTSTATE
	.quad	CONTROLS$_$TWINCONTROL_$__$$_CONTROLKEYUP$WORD$TSHIFTSTATE
	.quad	CONTROLS$_$TWINCONTROL_$__$$_KEYDOWN$WORD$TSHIFTSTATE
	.quad	CONTROLS$_$TWINCONTROL_$__$$_KEYDOWNBEFOREINTERFACE$WORD$TSHIFTSTATE
	.quad	CONTROLS$_$TWINCONTROL_$__$$_KEYDOWNAFTERINTERFACE$WORD$TSHIFTSTATE
	.quad	CONTROLS$_$TWINCONTROL_$__$$_KEYPRESS$CHAR
	.quad	CONTROLS$_$TWINCONTROL_$__$$_KEYUP$WORD$TSHIFTSTATE
	.quad	CONTROLS$_$TWINCONTROL_$__$$_KEYUPBEFOREINTERFACE$WORD$TSHIFTSTATE
	.quad	CONTROLS$_$TWINCONTROL_$__$$_KEYUPAFTERINTERFACE$WORD$TSHIFTSTATE
	.quad	CONTROLS$_$TWINCONTROL_$__$$_UTF8KEYPRESS$TUTF8CHAR
	.quad	CONTROLS$_$TWINCONTROL_$__$$_CREATEHANDLE
	.quad	FORMS$_$TCUSTOMFORM_$__$$_CREATEPARAMS$TCREATEPARAMS
	.quad	FORMS$_$TFORM_$__$$_CREATEWND
	.quad	CONTROLS$_$TWINCONTROL_$__$$_DESTROYHANDLE
	.quad	FORMS$_$TCUSTOMFORM_$__$$_DESTROYWND
	.quad	CONTROLS$_$TWINCONTROL_$__$$_DOFLIPCHILDREN
	.quad	CONTROLS$_$TWINCONTROL_$__$$_FINALIZEWND
	.quad	FORMS$_$TCUSTOMFORM_$__$$_INITIALIZEWND
	.quad	FORMS$_$TCUSTOMFORM_$__$$_CHILDHANDLESCREATED
	.quad	CONTROLS$_$TWINCONTROL_$__$$_SETBORDERSTYLE$TBORDERSTYLE
	.quad	CONTROLS$_$TWINCONTROL_$__$$_SHOWCONTROL$TCONTROL
	.quad	FORMS$_$TCUSTOMFORM_$__$$_UPDATESHOWING
	.quad	CONTROLS$_$TWINCONTROL_$__$$_WSSETTEXT$ANSISTRING
	.quad	FORMS$_$TSCROLLINGWINCONTROL_$__$$_SCROLLBY$LONGINT$LONGINT
	.quad	CONTROLS$_$TWINCONTROL_$__$$_DOCKDROP$TDRAGDOCKOBJECT$LONGINT$LONGINT
	.quad	FORMS$_$TCUSTOMFORM_$__$$_CANFOCUS$$BOOLEAN
	.quad	CONTROLS$_$TWINCONTROL_$__$$_CANSETFOCUS$$BOOLEAN
	.quad	CONTROLS$_$TWINCONTROL_$__$$_FOCUSED$$BOOLEAN
	.quad	CONTROLS$_$TWINCONTROL_$__$$_PERFORMTAB$BOOLEAN$$BOOLEAN
	.quad	CONTROLS$_$TWINCONTROL_$__$$_ADDCONTROL
	.quad	CONTROLS$_$TWINCONTROL_$__$$_INSERTCONTROL$TCONTROL$LONGINT
	.quad	CONTROLS$_$TWINCONTROL_$__$$_REMOVECONTROL$TCONTROL
	.quad	FORMS$_$TCUSTOMFORM_$__$$_SETFOCUS
	.quad	CONTROLS$_$TWINCONTROL_$__$$_FLIPCHILDREN$BOOLEAN
	.quad	CONTROLS$_$TWINCONTROL_$__$$_GETDOCKCAPTION$TCONTROL$$ANSISTRING
	.quad	FORMS$_$TCUSTOMFORM_$__$$_UPDATEDOCKCAPTION$TCONTROL
	.quad	CONTROLS$_$TWINCONTROL_$__$$_GETTABORDERLIST$TFPLIST
	.quad	CONTROLS$_$TWINCONTROL_$__$$_ERASEBACKGROUND$QWORD
	.quad	CONTROLS$_$TWINCONTROL_$__$$_INTFUTF8KEYPRESS$TUTF8CHAR$LONGINT$BOOLEAN$$BOOLEAN
	.quad	CONTROLS$_$TWINCONTROL_$__$$_INTFGETDROPFILESTARGET$$TWINCONTROL
	.quad	CONTROLS$_$TWINCONTROL_$__$$_PAINTTO$QWORD$LONGINT$LONGINT
	.quad	CONTROLS$_$TCUSTOMCONTROL_$__$$_PAINT
	.quad	FORMS$_$TSCROLLINGWINCONTROL_$__$$_AUTOSCROLLENABLED$$BOOLEAN
	.quad	FORMS$_$TSCROLLINGWINCONTROL_$__$$_CALCULATEAUTORANGES
	.quad	FORMS$_$TSCROLLINGWINCONTROL_$__$$_COMPUTESCROLLBARS
	.quad	FORMS$_$TCUSTOMFORM_$__$$_SETAUTOSCROLL$BOOLEAN
	.quad	FORMS$_$TCUSTOMFORM_$__$$_RESIZING$TWINDOWSTATE
	.quad	FORMS$_$TCUSTOMFORM_$__$$_SETSCALED$BOOLEAN
	.quad	FORMS$_$TCUSTOMFORM_$__$$_DOSHOWWINDOW
	.quad	FORMS$_$TCUSTOMFORM_$__$$_ACTIVATE
	.quad	FORMS$_$TCUSTOMFORM_$__$$_ACTIVECHANGED
	.quad	FORMS$_$TCUSTOMFORM_$__$$_DEACTIVATE
	.quad	FORMS$_$TCUSTOMFORM_$__$$_DOCLOSE$TCLOSEACTION
	.quad	FORMS$_$TCUSTOMFORM_$__$$_DOCREATE
	.quad	FORMS$_$TCUSTOMFORM_$__$$_DODESTROY
	.quad	FORMS$_$TCUSTOMFORM_$__$$_DOHIDE
	.quad	FORMS$_$TCUSTOMFORM_$__$$_DOSHOW
	.quad	FORMS$_$TCUSTOMFORM_$__$$_HANDLECREATEEXCEPTION$$BOOLEAN
	.quad	FORMS$_$TCUSTOMFORM_$__$$_HANDLEDESTROYEXCEPTION$$BOOLEAN
	.quad	FORMS$_$TCUSTOMFORM_$__$$_HANDLESHOWHIDEEXCEPTION$$BOOLEAN
	.quad	FORMS$_$TCUSTOMFORM_$__$$_MOVETODEFAULTPOSITION
	.quad	FORMS$_$TCUSTOMFORM_$__$$_DOFIRSTSHOW
	.quad	FORMS$_$TCUSTOMFORM_$__$$_PROCESSRESOURCE
	.quad	FORMS$_$TCUSTOMFORM_$__$$_UPDATEACTIONS
	.quad	FORMS$_$TCUSTOMFORM_$__$$_CREATENEW$TCOMPONENT$LONGINT$$TCUSTOMFORM
	.quad	FORMS$_$TCUSTOMFORM_$__$$_CLOSEQUERY$$BOOLEAN
	.quad	FORMS$_$TCUSTOMFORM_$__$$_ISSHORTCUT$TLMKEY$$BOOLEAN
	.quad	FORMS$_$TCUSTOMFORM_$__$$_SETFOCUSEDCONTROL$TWINCONTROL$$BOOLEAN
	.quad	FORMS$_$TCUSTOMFORM_$__$$_SHOWMODAL$$LONGINT
	.quad	FORMS$_$TCUSTOMFORM_$__$$_WANTCHILDKEY$TCONTROL$TMESSAGE$$BOOLEAN
	.quad	FORMS$_$TCUSTOMFORM_$__$$_ACTIVEMDICHILD$$TCUSTOMFORM
	.quad	FORMS$_$TCUSTOMFORM_$__$$_GETMDICHILDREN$LONGINT$$TCUSTOMFORM
	.quad	FORMS$_$TCUSTOMFORM_$__$$_MDICHILDCOUNT$$LONGINT
	.quad	0
# [338] 
	.balign 8
.Ld32:
	.byte	6
	.ascii	"TForm1"
	.balign 8
.Ld33:
	.long	5
	.quad	.Ld34
	.quad	UNIT1$_$TFORM1_$__$$_BUTTON1CLICK$TOBJECT
	.quad	.Ld35
	.quad	UNIT1$_$TFORM1_$__$$_BUTTON2CLICK$TOBJECT
	.quad	.Ld36
	.quad	UNIT1$_$TFORM1_$__$$_BUTTON3CLICK$TOBJECT
	.quad	.Ld37
	.quad	UNIT1$_$TFORM1_$__$$_FORMCLOSE$TOBJECT$TCLOSEACTION
	.quad	.Ld38
	.quad	UNIT1$_$TFORM1_$__$$_FORMCREATE$TOBJECT
	.balign 8
.Ld34:
	.byte	12
	.ascii	"Button1Click"
	.balign 8
.Ld35:
	.byte	12
	.ascii	"Button2Click"
	.balign 8
.Ld36:
	.byte	12
	.ascii	"Button3Click"
	.balign 8
.Ld37:
	.byte	9
	.ascii	"FormClose"
	.balign 8
.Ld38:
	.byte	10
	.ascii	"FormCreate"
	.balign 8
.Ld39:
	.short	10
	.quad	.Ld40
	.quad	1896
	.short	1
	.byte	7
	.ascii	"Button1"
	.quad	1904
	.short	1
	.byte	7
	.ascii	"Button2"
	.quad	1912
	.short	1
	.byte	7
	.ascii	"Button3"
	.quad	1920
	.short	2
	.byte	9
	.ascii	"CheckBox1"
	.quad	1928
	.short	3
	.byte	5
	.ascii	"Memo1"
	.quad	1936
	.short	4
	.byte	11
	.ascii	"OpenDialog1"
	.quad	1944
	.short	5
	.byte	12
	.ascii	"RadioButton1"
	.quad	1952
	.short	5
	.byte	12
	.ascii	"RadioButton2"
	.quad	1960
	.short	5
	.byte	12
	.ascii	"RadioButton3"
	.quad	1968
	.short	5
	.byte	12
	.ascii	"RadioButton4"
	.balign 8
.Ld40:
	.short	5
	.quad	VMT_$STDCTRLS_$$_TBUTTON
	.quad	VMT_$STDCTRLS_$$_TCHECKBOX
	.quad	VMT_$STDCTRLS_$$_TMEMO
	.quad	VMT_$DIALOGS_$$_TOPENDIALOG
	.quad	VMT_$STDCTRLS_$$_TRADIOBUTTON
# End asmlist al_globals
# Begin asmlist al_typedconsts

.section .data.n_tc_$unit1_$$_fuck,"d"
	.balign 4
.globl	TC_$UNIT1_$$_FUCK
TC_$UNIT1_$$_FUCK:
	.long	0
# [42] fuck2:integer=0;

.section .data.n_tc_$unit1_$$_fuck2,"d"
	.balign 4
.globl	TC_$UNIT1_$$_FUCK2
TC_$UNIT1_$$_FUCK2:
	.long	0

.section .data.n_tc_$unit1_$$_song,"d"
	.balign 2
.globl	TC_$UNIT1_$$_SONG
TC_$UNIT1_$$_SONG:
	.short	0
# [45] songs:word=0;

.section .data.n_tc_$unit1_$$_songs,"d"
	.balign 2
.globl	TC_$UNIT1_$$_SONGS
TC_$UNIT1_$$_SONGS:
	.short	0

.section .data.n_tc_$unit1$_$tform1_$_button1click$tobject_$$_defaultsel,"d"
	.balign 4
TC_$UNIT1$_$TFORM1_$_BUTTON1CLICK$TOBJECT_$$_defaultsel:
	.long	0
# [70] selstart:integer=0;

.section .data.n_tc_$unit1$_$tform1_$_button1click$tobject_$$_defaultselstart,"d"
	.balign 4
TC_$UNIT1$_$TFORM1_$_BUTTON1CLICK$TOBJECT_$$_defaultselstart:
	.long	0
# [71] buf:array[0..25] of  byte;

.section .rodata.n__$UNIT1$_Ld1,"d"
	.balign 8
	.short	0,1
	.long	0
	.quad	-1,7
.globl	_$UNIT1$_Ld1
_$UNIT1$_Ld1:
	.ascii	"d:\\sid\\\000"

.section .rodata.n__$UNIT1$_Ld2,"d"
	.balign 8
.globl	_$UNIT1$_Ld2
_$UNIT1$_Ld2:
# value: 0d+1.1000000000000001E+000
	.byte	154,153,153,153,153,153,241,63

.section .rodata.n__$UNIT1$_Ld3,"d"
	.balign 8
.globl	_$UNIT1$_Ld3
_$UNIT1$_Ld3:
# value: 0d+9.0909090909090906E-001
	.byte	23,93,116,209,69,23,237,63

.section .rodata.n__$UNIT1$_Ld4,"d"
	.balign 8
.globl	_$UNIT1$_Ld4
_$UNIT1$_Ld4:
# value: 0d+1.0000000000000000E+000
	.byte	0,0,0,0,0,0,240,63

.section .rodata.n__$UNIT1$_Ld5,"d"
	.balign 8
.globl	_$UNIT1$_Ld5
_$UNIT1$_Ld5:
# value: 0d+9.6000000000000000E+004
	.byte	0,0,0,0,0,112,247,64

.section .rodata.n__$UNIT1$_Ld6,"d"
	.balign 8
.globl	_$UNIT1$_Ld6
_$UNIT1$_Ld6:
# value: 0d+0.0000000000000000E+000
	.byte	0,0,0,0,0,0,0,0

.section .rodata.n__$UNIT1$_Ld7,"d"
	.balign 8
.globl	_$UNIT1$_Ld7
_$UNIT1$_Ld7:
# value: 0d+6.2831853071795862E+000
	.byte	24,45,68,84,251,33,25,64

.section .rodata.n__$UNIT1$_Ld8,"d"
	.balign 8
.globl	_$UNIT1$_Ld8
_$UNIT1$_Ld8:
# value: 0d+1.9531250000000000E-003
	.byte	0,0,0,0,0,0,96,63

.section .rodata.n__$UNIT1$_Ld9,"d"
	.balign 8
.globl	_$UNIT1$_Ld9
_$UNIT1$_Ld9:
# value: 0d+1.5258789062500000E-005
	.byte	0,0,0,0,0,0,240,62

.section .rodata.n__$UNIT1$_Ld10,"d"
	.balign 8
.globl	_$UNIT1$_Ld10
_$UNIT1$_Ld10:
# value: 0d+7.8125000000000000E-003
	.byte	0,0,0,0,0,0,128,63

.section .data.n_tc_$unit1$_$sidopen$longint_$$_defaultmagic,"d"
TC_$UNIT1$_$SIDOPEN$LONGINT_$$_defaultmagic:
	.byte	4
# [202] magic:string[4]='    ';
	.ascii	"    "
# [203] dump:word;

.section .rodata.n__$UNIT1$_Ld11,"d"
	.balign 8
.globl	_$UNIT1$_Ld11
_$UNIT1$_Ld11:
	.ascii	"                                 \000"

.section .rodata.n__$UNIT1$_Ld12,"d"
	.balign 8
	.short	0,1
	.long	0
	.quad	-1,10
.globl	_$UNIT1$_Ld12
_$UNIT1$_Ld12:
	.ascii	"type: PSID\000"

.section .rodata.n__$UNIT1$_Ld13,"d"
	.balign 8
	.short	0,1
	.long	0
	.quad	-1,9
.globl	_$UNIT1$_Ld13
_$UNIT1$_Ld13:
	.ascii	"version: \000"

.section .rodata.n__$UNIT1$_Ld14,"d"
	.balign 8
	.short	0,1
	.long	0
	.quad	-1,8
.globl	_$UNIT1$_Ld14
_$UNIT1$_Ld14:
	.ascii	"offset: \000"

.section .rodata.n__$UNIT1$_Ld15,"d"
	.balign 8
	.short	0,1
	.long	0
	.quad	-1,6
.globl	_$UNIT1$_Ld15
_$UNIT1$_Ld15:
	.ascii	"load: \000"

.section .rodata.n__$UNIT1$_Ld16,"d"
	.balign 8
	.short	0,1
	.long	0
	.quad	-1,6
.globl	_$UNIT1$_Ld16
_$UNIT1$_Ld16:
	.ascii	"init: \000"

.section .rodata.n__$UNIT1$_Ld17,"d"
	.balign 8
	.short	0,1
	.long	0
	.quad	-1,6
.globl	_$UNIT1$_Ld17
_$UNIT1$_Ld17:
	.ascii	"play: \000"

.section .rodata.n__$UNIT1$_Ld18,"d"
	.balign 8
	.short	0,1
	.long	0
	.quad	-1,7
.globl	_$UNIT1$_Ld18
_$UNIT1$_Ld18:
	.ascii	"songs: \000"

.section .rodata.n__$UNIT1$_Ld19,"d"
	.balign 8
	.short	0,1
	.long	0
	.quad	-1,11
.globl	_$UNIT1$_Ld19
_$UNIT1$_Ld19:
	.ascii	"startsong: \000"

.section .rodata.n__$UNIT1$_Ld20,"d"
	.balign 8
	.short	0,1
	.long	0
	.quad	-1,7
.globl	_$UNIT1$_Ld20
_$UNIT1$_Ld20:
	.ascii	"speed: \000"

.section .rodata.n__$UNIT1$_Ld21,"d"
	.balign 8
	.short	0,1
	.long	0
	.quad	-1,7
.globl	_$UNIT1$_Ld21
_$UNIT1$_Ld21:
	.ascii	"title: \000"

.section .rodata.n__$UNIT1$_Ld22,"d"
	.balign 8
	.short	0,1
	.long	0
	.quad	-1,8
.globl	_$UNIT1$_Ld22
_$UNIT1$_Ld22:
	.ascii	"author: \000"

.section .rodata.n__$UNIT1$_Ld23,"d"
	.balign 8
	.short	0,1
	.long	0
	.quad	-1,11
.globl	_$UNIT1$_Ld23
_$UNIT1$_Ld23:
	.ascii	"copyright: \000"

.section .rodata.n__$UNIT1$_Ld24,"d"
	.balign 8
	.short	0,1
	.long	0
	.quad	-1,7
.globl	_$UNIT1$_Ld24
_$UNIT1$_Ld24:
	.ascii	"flags: \000"

.section .rodata.n__$UNIT1$_Ld25,"d"
	.balign 8
	.short	0,1
	.long	0
	.quad	-1,5
.globl	_$UNIT1$_Ld25
_$UNIT1$_Ld25:
	.ascii	"cia: \000"

.section .rodata.n__$UNIT1$_Ld26,"d"
	.balign 8
	.short	0,1
	.long	0
	.quad	-1,9
.globl	_$UNIT1$_Ld26
_$UNIT1$_Ld26:
	.ascii	"Samples: \000"

.section .rodata.n__$UNIT1$_Ld27,"d"
	.balign 8
	.short	0,1
	.long	0
	.quad	-1,13
.globl	_$UNIT1$_Ld27
_$UNIT1$_Ld27:
	.ascii	"Sample name: \000"

.section .rodata.n__$UNIT1$_Ld28,"d"
	.balign 8
	.short	0,1
	.long	0
	.quad	-1,15
.globl	_$UNIT1$_Ld28
_$UNIT1$_Ld28:
	.ascii	"Sample length: \000"

.section .rodata.n__$UNIT1$_Ld29,"d"
	.balign 8
	.short	0,1
	.long	0
	.quad	-1,19
.globl	_$UNIT1$_Ld29
_$UNIT1$_Ld29:
	.ascii	"Sample loop start: \000"

.section .rodata.n__$UNIT1$_Ld30,"d"
	.balign 8
	.short	0,1
	.long	0
	.quad	-1,20
.globl	_$UNIT1$_Ld30
_$UNIT1$_Ld30:
	.ascii	"Sample loop length: \000"

.section .rodata.n__$UNIT1$_Ld31,"d"
	.balign 8
	.short	0,1
	.long	0
	.quad	-1,13
.globl	_$UNIT1$_Ld31
_$UNIT1$_Ld31:
	.ascii	"Sample type :\000"
# End asmlist al_typedconsts
# Begin asmlist al_rtti

.section .data.n_RTTI_$UNIT1_$$_DEF13,"d"
	.balign 8
.globl	RTTI_$UNIT1_$$_DEF13
RTTI_$UNIT1_$$_DEF13:
	.byte	12
	.ascii	"\000"
	.quad	16,2
	.quad	RTTI_$SYSTEM_$$_ANSISTRING
	.byte	1
	.quad	RTTI_$SYSTEM_$$_SHORTINT

.section .data.n_RTTI_$UNIT1_$$_DEF12,"d"
	.balign 8
.globl	RTTI_$UNIT1_$$_DEF12
RTTI_$UNIT1_$$_DEF12:
	.byte	12
	.ascii	"\000"
	.quad	16016,2002
	.quad	RTTI_$SYSTEM_$$_ANSISTRING
	.byte	2
	.quad	RTTI_$SYSTEM_$$_SMALLINT
	.quad	RTTI_$SYSTEM_$$_SHORTINT

.section .data.n_RTTI_$UNIT1_$$_DEF14,"d"
	.balign 8
.globl	RTTI_$UNIT1_$$_DEF14
RTTI_$UNIT1_$$_DEF14:
	.byte	12
	.ascii	"\000"
	.quad	8008,1001
	.quad	RTTI_$SYSTEM_$$_ANSISTRING
	.byte	1
	.quad	RTTI_$SYSTEM_$$_SMALLINT

.section .data.n_INIT_$UNIT1_$$_TFORM1,"d"
	.balign 8
.globl	INIT_$UNIT1_$$_TFORM1
INIT_$UNIT1_$$_TFORM1:
	.byte	15,6
	.ascii	"TForm1"
	.long	8,0

.section .data.n_RTTI_$UNIT1_$$_TFORM1,"d"
	.balign 8
.globl	RTTI_$UNIT1_$$_TFORM1
RTTI_$UNIT1_$$_TFORM1:
	.byte	15,6
	.ascii	"TForm1"
	.quad	VMT_$UNIT1_$$_TFORM1
	.quad	RTTI_$FORMS_$$_TFORM
	.short	103
	.byte	5
	.ascii	"Unit1"
	.short	0
# End asmlist al_rtti
# Begin asmlist al_dwarf_frame

.section .debug_frame
.Lc48:
	.long	.Lc50-.Lc49
.Lc49:
	.long	-1
	.byte	1
	.byte	0
	.uleb128	1
	.sleb128	-4
	.byte	16
	.byte	12
	.uleb128	7
	.uleb128	8
	.byte	5
	.uleb128	16
	.uleb128	2
	.balign 4,0
.Lc50:
	.long	.Lc52-.Lc51
.Lc51:
	.secrel32	.Lc48
	.quad	.Lc1
	.quad	.Lc2-.Lc1
	.byte	4
	.long	.Lc3-.Lc1
	.byte	14
	.uleb128	16
	.byte	4
	.long	.Lc4-.Lc3
	.byte	5
	.uleb128	6
	.uleb128	4
	.byte	4
	.long	.Lc5-.Lc4
	.byte	13
	.uleb128	6
	.balign 4,0
.Lc52:
	.long	.Lc54-.Lc53
.Lc53:
	.secrel32	.Lc48
	.quad	.Lc6
	.quad	.Lc7-.Lc6
	.byte	4
	.long	.Lc8-.Lc6
	.byte	14
	.uleb128	16
	.byte	4
	.long	.Lc9-.Lc8
	.byte	5
	.uleb128	6
	.uleb128	4
	.byte	4
	.long	.Lc10-.Lc9
	.byte	13
	.uleb128	6
	.balign 4,0
.Lc54:
	.long	.Lc56-.Lc55
.Lc55:
	.secrel32	.Lc48
	.quad	.Lc11
	.quad	.Lc12-.Lc11
	.byte	4
	.long	.Lc13-.Lc11
	.byte	14
	.uleb128	40
	.balign 4,0
.Lc56:
	.long	.Lc58-.Lc57
.Lc57:
	.secrel32	.Lc48
	.quad	.Lc14
	.quad	.Lc15-.Lc14
	.byte	4
	.long	.Lc16-.Lc14
	.byte	14
	.uleb128	16
	.byte	4
	.long	.Lc17-.Lc16
	.byte	5
	.uleb128	6
	.uleb128	4
	.byte	4
	.long	.Lc18-.Lc17
	.byte	13
	.uleb128	6
	.balign 4,0
.Lc58:
	.long	.Lc60-.Lc59
.Lc59:
	.secrel32	.Lc48
	.quad	.Lc19
	.quad	.Lc20-.Lc19
	.byte	4
	.long	.Lc21-.Lc19
	.byte	14
	.uleb128	16
	.byte	4
	.long	.Lc22-.Lc21
	.byte	5
	.uleb128	6
	.uleb128	4
	.byte	4
	.long	.Lc23-.Lc22
	.byte	13
	.uleb128	6
	.balign 4,0
.Lc60:
	.long	.Lc62-.Lc61
.Lc61:
	.secrel32	.Lc48
	.quad	.Lc24
	.quad	.Lc25-.Lc24
	.balign 4,0
.Lc62:
	.long	.Lc64-.Lc63
.Lc63:
	.secrel32	.Lc48
	.quad	.Lc26
	.quad	.Lc27-.Lc26
	.balign 4,0
.Lc64:
	.long	.Lc66-.Lc65
.Lc65:
	.secrel32	.Lc48
	.quad	.Lc28
	.quad	.Lc29-.Lc28
	.byte	4
	.long	.Lc30-.Lc28
	.byte	14
	.uleb128	16
	.byte	4
	.long	.Lc31-.Lc30
	.byte	5
	.uleb128	6
	.uleb128	4
	.byte	4
	.long	.Lc32-.Lc31
	.byte	13
	.uleb128	6
	.balign 4,0
.Lc66:
	.long	.Lc68-.Lc67
.Lc67:
	.secrel32	.Lc48
	.quad	.Lc33
	.quad	.Lc34-.Lc33
	.byte	4
	.long	.Lc35-.Lc33
	.byte	14
	.uleb128	16
	.byte	4
	.long	.Lc36-.Lc35
	.byte	5
	.uleb128	6
	.uleb128	4
	.byte	4
	.long	.Lc37-.Lc36
	.byte	13
	.uleb128	6
	.balign 4,0
.Lc68:
	.long	.Lc70-.Lc69
.Lc69:
	.secrel32	.Lc48
	.quad	.Lc38
	.quad	.Lc39-.Lc38
	.byte	4
	.long	.Lc40-.Lc38
	.byte	14
	.uleb128	16
	.byte	4
	.long	.Lc41-.Lc40
	.byte	5
	.uleb128	6
	.uleb128	4
	.byte	4
	.long	.Lc42-.Lc41
	.byte	13
	.uleb128	6
	.balign 4,0
.Lc70:
	.long	.Lc72-.Lc71
.Lc71:
	.secrel32	.Lc48
	.quad	.Lc43
	.quad	.Lc44-.Lc43
	.byte	4
	.long	.Lc45-.Lc43
	.byte	14
	.uleb128	16
	.byte	4
	.long	.Lc46-.Lc45
	.byte	5
	.uleb128	6
	.uleb128	4
	.byte	4
	.long	.Lc47-.Lc46
	.byte	13
	.uleb128	6
	.balign 4,0
.Lc72:
# End asmlist al_dwarf_frame
# Begin asmlist al_dwarf_info
